Certificate:
    Data:
        Version: 3 (0x2)
        Serial Number: 1 (0x1)
        Signature Algorithm: rsassaPss         
         Hash Algorithm: sha256
         Mask Algorithm: mgf1 with sha256
          Salt Length: 0xDE
         Trailer Field: 0xBC (default)
        Issuer: DC=ca, DC=lab5, O=Lab5 DevOps Inc., OU=DevOps, CN=SigningCA G1
        Validity
            Not Before: May  1 11:31:05 2022 GMT
            Not After : Apr 30 11:31:05 2024 GMT
        Subject: DC=ca, DC=lab5, O=Lab5 DevOps Inc., OU=DevOps, CN=vault.lab5.ca
        Subject Public Key Info:
            Public Key Algorithm: rsassaPss
                RSA-PSS Public-Key: (2048 bit)
                Modulus:
                    00:a5:e6:35:bc:45:ba:e0:34:81:1e:5b:e3:09:72:
                    2d:f5:52:4e:7c:89:e5:a7:81:f4:bc:03:88:8e:89:
                    9c:a1:9e:fb:d0:d6:19:f0:24:f9:7a:94:b4:99:18:
                    e7:09:da:cd:2a:48:7f:79:5f:96:cd:40:cb:08:a1:
                    0e:84:4c:3f:b8:d6:a6:8d:ef:74:09:4a:f6:39:48:
                    1c:24:68:a3:00:5c:ad:cf:a9:5a:8a:f0:17:fa:bb:
                    33:47:12:58:4a:b6:9b:57:b1:f9:7a:cd:55:30:53:
                    20:34:1d:cf:11:fe:4c:fa:7f:85:ee:c9:1a:4b:4b:
                    46:85:95:48:c6:25:57:2b:b7:bf:80:f5:27:0d:ba:
                    42:5b:ac:44:e3:85:7b:4a:22:65:b9:4c:07:f6:b8:
                    ea:97:1a:63:0f:f2:d5:4e:1c:2c:3e:62:07:60:85:
                    7b:5e:be:31:3b:6c:6b:84:12:49:f1:02:ec:ab:c5:
                    58:55:db:2c:2d:12:58:cf:a1:3d:d7:6f:d4:96:e4:
                    f0:f6:ce:3a:67:6a:6c:65:0f:ab:fb:ab:e3:29:2a:
                    5d:79:90:03:a0:88:f7:78:1a:d6:cc:34:36:08:31:
                    b6:e0:d7:7d:6d:e1:28:06:b9:c3:21:e4:bd:df:08:
                    68:6a:f3:d7:f8:9f:0a:55:e3:19:64:86:b4:ce:78:
                    5a:5d
                Exponent: 65537 (0x10001)
                No PSS parameter restrictions
        X509v3 extensions:
            X509v3 Key Usage: critical
                Digital Signature, Key Encipherment
            X509v3 Basic Constraints: 
                CA:FALSE
            X509v3 Extended Key Usage: 
                TLS Web Server Authentication, TLS Web Client Authentication
            X509v3 Subject Key Identifier: 
                58:E5:80:F4:8B:74:26:78:88:E5:A1:BC:F6:28:A7:FC:0D:77:6C:8B
            X509v3 Authority Key Identifier: 
                keyid:34:34:B5:CD:2B:E6:A6:0F:D5:80:BE:F8:D2:8F:96:79:E3:99:3C:26

            X509v3 Subject Alternative Name: 
                DNS:vault.lab5.ca, IP Address:127.0.0.1
    Signature Algorithm: rsassaPss         
         Hash Algorithm: sha256
         Mask Algorithm: mgf1 with sha256
          Salt Length: 0xDE
         Trailer Field: 0xBC (default)

         68:54:08:7a:84:89:3a:78:33:c8:9f:07:fd:dc:c1:e8:df:ff:
         16:3b:1e:3f:23:23:2b:89:b3:cb:5d:d3:c4:28:44:a5:2f:22:
         4c:b7:1c:28:61:42:5b:06:75:cd:7c:f4:9d:4a:a7:32:b8:e8:
         dc:44:ce:ab:8d:e7:21:ef:db:7a:bd:c4:3b:35:7c:a8:37:26:
         12:ee:4c:d7:ed:78:59:84:9f:c1:5f:ef:41:e7:c4:fe:19:89:
         17:c8:6c:1d:44:b4:97:ef:94:cd:ec:a8:6a:39:b3:06:9a:83:
         d9:a8:a7:b4:84:f8:85:78:1f:5c:78:d4:15:d5:30:6d:b1:b8:
         6b:f7:21:0c:37:6a:e5:a3:cf:ff:72:dc:54:ba:44:f6:81:c4:
         3b:3e:39:1d:ce:36:71:3f:a7:79:dd:a7:2f:9d:8a:09:ce:cb:
         34:2c:ac:a3:3c:a4:61:a2:fa:e0:0b:37:b8:74:8c:22:f5:4f:
         ef:c4:0a:02:3b:b2:2e:a6:d4:4b:99:14:77:64:12:90:c0:66:
         8d:f9:32:bb:2d:fb:1c:6e:83:8a:3e:84:c2:2d:97:4d:34:08:
         46:8e:2e:e9:ff:5b:7b:7d:aa:c8:82:8b:c8:ee:9f:4b:0c:c4:
         4d:55:f5:4a:13:82:69:0b:56:0a:40:82:dc:7a:03:09:37:74:
         e7:a8:fa:3f
-----BEGIN CERTIFICATE-----
MIIEVDCCAwugAwIBAgIBATA+BgkqhkiG9w0BAQowMaANMAsGCWCGSAFlAwQCAaEa
MBgGCSqGSIb3DQEBCDALBglghkgBZQMEAgGiBAICAN4wbTESMBAGCgmSJomT8ixk
ARkWAmNhMRQwEgYKCZImiZPyLGQBGRYEbGFiNTEZMBcGA1UECgwQTGFiNSBEZXZP
cHMgSW5jLjEPMA0GA1UECwwGRGV2T3BzMRUwEwYDVQQDDAxTaWduaW5nQ0EgRzEw
HhcNMjIwNTAxMTEzMTA1WhcNMjQwNDMwMTEzMTA1WjBuMRIwEAYKCZImiZPyLGQB
GRYCY2ExFDASBgoJkiaJk/IsZAEZFgRsYWI1MRkwFwYDVQQKDBBMYWI1IERldk9w
cyBJbmMuMQ8wDQYDVQQLDAZEZXZPcHMxFjAUBgNVBAMMDXZhdWx0LmxhYjUuY2Ew
ggEgMAsGCSqGSIb3DQEBCgOCAQ8AMIIBCgKCAQEApeY1vEW64DSBHlvjCXIt9VJO
fInlp4H0vAOIjomcoZ770NYZ8CT5epS0mRjnCdrNKkh/eV+WzUDLCKEOhEw/uNam
je90CUr2OUgcJGijAFytz6laivAX+rszRxJYSrabV7H5es1VMFMgNB3PEf5M+n+F
7skaS0tGhZVIxiVXK7e/gPUnDbpCW6xE44V7SiJluUwH9rjqlxpjD/LVThwsPmIH
YIV7Xr4xO2xrhBJJ8QLsq8VYVdssLRJYz6E912/UluTw9s46Z2psZQ+r+6vjKSpd
eZADoIj3eBrWzDQ2CDG24Nd9beEoBrnDIeS93whoavPX+J8KVeMZZIa0znhaXQID
AQABo4GdMIGaMA4GA1UdDwEB/wQEAwIFoDAJBgNVHRMEAjAAMB0GA1UdJQQWMBQG
CCsGAQUFBwMBBggrBgEFBQcDAjAdBgNVHQ4EFgQUWOWA9It0JniI5aG89iin/A13
bIswHwYDVR0jBBgwFoAUNDS1zSvmpg/VgL740o+WeeOZPCYwHgYDVR0RBBcwFYIN
dmF1bHQubGFiNS5jYYcEfwAAATA+BgkqhkiG9w0BAQowMaANMAsGCWCGSAFlAwQC
AaEaMBgGCSqGSIb3DQEBCDALBglghkgBZQMEAgGiBAICAN4DggEBAGhUCHqEiTp4
M8ifB/3cwejf/xY7Hj8jIyuJs8td08QoRKUvIky3HChhQlsGdc189J1KpzK46NxE
zquN5yHv23q9xDs1fKg3JhLuTNfteFmEn8Ff70HnxP4ZiRfIbB1EtJfvlM3sqGo5
swaag9mop7SE+IV4H1x41BXVMG2xuGv3IQw3auWjz/9y3FS6RPaBxDs+OR3ONnE/
p3ndpy+dignOyzQsrKM8pGGi+uALN7h0jCL1T+/ECgI7si6m1EuZFHdkEpDAZo35
Mrst+xxug4o+hMItl000CEaOLun/W3t9qsiCi8jun0sMxE1V9UoTgmkLVgpAgtx6
Awk3dOeo+j8=
-----END CERTIFICATE-----
