Certificate:
    Data:
        Version: 3 (0x2)
        Serial Number: 1 (0x1)
        Signature Algorithm: sha256WithRSAEncryption
        Issuer: DC=ca, DC=lab5, O=Lab5 DevOps Inc., OU=DevOps, CN=RootCA G1
        Validity
            Not Before: Apr 29 13:53:37 2022 GMT
            Not After : Apr 28 13:53:37 2024 GMT
        Subject: DC=ca, DC=lab5, O=Lab5 DevOps Inc., OU=DevOps, CN=vault.lab5.ca
        Subject Public Key Info:
            Public Key Algorithm: rsaEncryption
                RSA Public-Key: (2048 bit)
                Modulus:
                    00:a9:f4:05:47:9e:48:b0:0e:d9:e0:fe:56:0f:5c:
                    25:dd:c5:16:da:a8:3b:f8:24:6c:45:74:1b:3d:02:
                    99:8d:e7:0a:32:5e:03:4c:f3:b2:d3:43:af:c8:28:
                    61:2d:86:bd:26:bd:21:0a:c5:fe:5e:c6:e2:b1:39:
                    b7:63:47:55:55:ab:9e:09:5a:1f:e6:2a:70:b7:24:
                    5c:52:85:86:6c:32:73:ee:47:23:99:8c:06:c9:07:
                    e6:6f:6c:75:ca:91:85:12:57:5f:60:8e:db:63:a3:
                    31:61:4d:39:6a:5d:f2:d1:79:65:c9:cc:85:8d:89:
                    8d:6b:17:74:0b:1f:a3:5c:1f:a6:ea:b5:13:61:2e:
                    43:d3:a7:8d:af:5e:fa:79:7b:28:76:70:5b:24:58:
                    e3:9f:5e:bd:b9:10:a9:39:5c:b5:1e:59:3d:91:b6:
                    b6:34:78:b4:15:4a:c4:8a:bb:0e:c1:4c:86:0d:d5:
                    5d:32:a8:ee:2e:6e:66:75:7d:8c:64:2f:5e:d3:7d:
                    9c:5c:42:d1:7d:c7:5b:be:47:ce:69:f7:77:48:c6:
                    60:4c:ed:f3:10:c8:a6:7a:52:3e:f8:f0:c2:10:7e:
                    64:61:f3:d9:36:c2:64:ed:62:02:ae:d2:f9:55:3e:
                    0d:01:03:af:45:a5:3c:1f:9c:35:0e:fd:d0:b6:78:
                    62:9b
                Exponent: 65537 (0x10001)
        X509v3 extensions:
            X509v3 Key Usage: critical
                Digital Signature, Key Encipherment
            X509v3 Basic Constraints: 
                CA:FALSE
            X509v3 Extended Key Usage: 
                TLS Web Server Authentication, TLS Web Client Authentication
            X509v3 Subject Key Identifier: 
                46:24:47:46:C5:52:F1:B0:0C:7E:7B:6A:05:BB:AA:E2:64:2C:00:4E
            X509v3 Authority Key Identifier: 
                keyid:FD:35:57:E4:42:E2:C1:BD:CF:56:5A:E1:61:50:55:87:68:7C:92:0E

            X509v3 Subject Alternative Name: 
                DNS:vault.lab5.ca, IP Address:10.0.0.2
    Signature Algorithm: sha256WithRSAEncryption
         9f:b5:b9:99:12:65:59:9e:ef:53:d0:e5:2d:3b:a0:09:22:dd:
         34:5f:82:ad:86:6c:b7:b0:ad:38:a5:ab:1e:18:35:f1:70:3b:
         76:e2:bb:ec:bd:16:b8:e0:5d:f0:0f:0b:68:ca:56:c7:f3:14:
         2d:d2:ec:a5:c7:8d:16:49:df:81:8a:26:73:44:a1:79:59:ae:
         e8:91:b2:46:8a:44:7f:b7:e8:e0:36:86:ac:81:5d:0c:9c:de:
         7a:59:9d:61:39:c3:37:54:98:30:0f:13:70:84:c8:62:23:5f:
         5c:60:9e:11:4b:de:98:41:c9:91:86:b1:b2:6b:5b:70:54:b8:
         0a:aa:9a:84:19:84:f4:05:a6:b5:ed:0d:d8:69:fc:b2:c5:4c:
         c4:23:c1:8a:58:dd:84:50:7b:8b:1f:dc:8e:b2:22:ef:7d:ee:
         cb:cd:91:ba:44:11:38:31:e6:5a:ab:51:59:5c:4d:f6:fa:ee:
         b4:34:67:61:6c:97:70:43:d4:5a:3b:79:fe:0d:0c:46:9b:77:
         18:73:e1:24:08:0d:c2:73:47:a1:a0:e7:99:c4:8c:24:e2:fd:
         80:3c:2e:c7:f8:ea:ee:61:7d:a3:45:b6:45:d7:40:0f:c2:0f:
         1d:fd:08:c1:65:67:41:a8:28:d9:78:d3:a1:08:d8:7c:6b:13:
         36:ff:26:91
-----BEGIN CERTIFICATE-----
MIID8TCCAtmgAwIBAgIBATANBgkqhkiG9w0BAQsFADBqMRIwEAYKCZImiZPyLGQB
GRYCY2ExFDASBgoJkiaJk/IsZAEZFgRsYWI1MRkwFwYDVQQKDBBMYWI1IERldk9w
cyBJbmMuMQ8wDQYDVQQLDAZEZXZPcHMxEjAQBgNVBAMMCVJvb3RDQSBHMTAeFw0y
MjA0MjkxMzUzMzdaFw0yNDA0MjgxMzUzMzdaMG4xEjAQBgoJkiaJk/IsZAEZFgJj
YTEUMBIGCgmSJomT8ixkARkWBGxhYjUxGTAXBgNVBAoMEExhYjUgRGV2T3BzIElu
Yy4xDzANBgNVBAsMBkRldk9wczEWMBQGA1UEAwwNdmF1bHQubGFiNS5jYTCCASIw
DQYJKoZIhvcNAQEBBQADggEPADCCAQoCggEBAKn0BUeeSLAO2eD+Vg9cJd3FFtqo
O/gkbEV0Gz0CmY3nCjJeA0zzstNDr8goYS2GvSa9IQrF/l7G4rE5t2NHVVWrngla
H+YqcLckXFKFhmwyc+5HI5mMBskH5m9sdcqRhRJXX2CO22OjMWFNOWpd8tF5ZcnM
hY2JjWsXdAsfo1wfpuq1E2EuQ9Onja9e+nl7KHZwWyRY459evbkQqTlctR5ZPZG2
tjR4tBVKxIq7DsFMhg3VXTKo7i5uZnV9jGQvXtN9nFxC0X3HW75Hzmn3d0jGYEzt
8xDIpnpSPvjwwhB+ZGHz2TbCZO1iAq7S+VU+DQEDr0WlPB+cNQ790LZ4YpsCAwEA
AaOBnTCBmjAOBgNVHQ8BAf8EBAMCBaAwCQYDVR0TBAIwADAdBgNVHSUEFjAUBggr
BgEFBQcDAQYIKwYBBQUHAwIwHQYDVR0OBBYEFEYkR0bFUvGwDH57agW7quJkLABO
MB8GA1UdIwQYMBaAFP01V+RC4sG9z1Za4WFQVYdofJIOMB4GA1UdEQQXMBWCDXZh
dWx0LmxhYjUuY2GHBAoAAAIwDQYJKoZIhvcNAQELBQADggEBAJ+1uZkSZVme71PQ
5S07oAki3TRfgq2GbLewrTilqx4YNfFwO3biu+y9FrjgXfAPC2jKVsfzFC3S7KXH
jRZJ34GKJnNEoXlZruiRskaKRH+36OA2hqyBXQyc3npZnWE5wzdUmDAPE3CEyGIj
X1xgnhFL3phByZGGsbJrW3BUuAqqmoQZhPQFprXtDdhp/LLFTMQjwYpY3YRQe4sf
3I6yIu997svNkbpEETgx5lqrUVlcTfb67rQ0Z2Fsl3BD1Fo7ef4NDEabdxhz4SQI
DcJzR6Gg55nEjCTi/YA8Lsf46u5hfaNFtkXXQA/CDx39CMFlZ0GoKNl406EI2Hxr
Ezb/JpE=
-----END CERTIFICATE-----
