Certificate:
    Data:
        Version: 3 (0x2)
        Serial Number: 1 (0x1)
        Signature Algorithm: sha256WithRSAEncryption
        Issuer: DC=ca, DC=lab5, O=Lab5 DevOps Inc., OU=www.lab5.ca, CN=Lab5 DevOps Inc. Issuing CA
        Validity
            Not Before: Dec  5 15:23:02 2022 GMT
            Not After : Dec  4 15:23:02 2024 GMT
        Subject: DC=ca, DC=lab5, O=Lab5 DevOps Inc., OU=www.lab5.ca, CN=www.lab5.ca
        Subject Public Key Info:
            Public Key Algorithm: rsaEncryption
                Public-Key: (2048 bit)
                Modulus:
                    00:d4:e8:0c:e5:15:a4:34:26:cd:55:c6:31:35:ff:
                    4d:27:74:37:01:9f:2f:26:72:0c:dd:70:7f:fd:d9:
                    38:57:84:96:d3:8e:3e:50:74:91:cc:95:ab:80:9e:
                    5a:82:d7:5b:e9:58:b1:72:8f:9f:40:07:6b:e5:f6:
                    d2:b1:90:d0:25:fd:d7:2f:35:3e:8e:05:1a:85:f6:
                    ec:91:36:41:8b:56:6e:fa:53:37:fe:0c:d3:18:2b:
                    93:cc:ca:b3:d1:14:9f:4c:0e:af:0d:ba:99:1b:b3:
                    f9:7d:0c:1c:df:78:9c:aa:25:07:b3:73:91:19:ec:
                    d4:82:d6:4a:dd:f2:0b:b9:8a:a6:b4:e3:1a:90:46:
                    bd:c1:34:bb:01:f5:6c:bc:99:12:c7:d3:8d:f9:c3:
                    a2:23:2f:b9:f5:96:fb:ee:09:29:2a:d1:00:57:11:
                    a6:ae:b3:4e:b9:98:21:1d:4f:8f:5a:cf:95:6d:bf:
                    71:b2:64:11:f2:76:49:62:18:0d:e2:77:ea:ec:b9:
                    f4:e4:e9:0e:c6:12:cf:58:0f:e2:4a:a8:ce:31:66:
                    bb:b1:a6:2f:29:14:53:b1:dc:f9:9a:96:22:74:a1:
                    18:9e:63:b7:c4:35:18:54:00:29:d4:3d:4d:04:ec:
                    25:e3:ed:d1:37:54:fc:97:2e:a1:1d:f0:f7:49:73:
                    7e:cd
                Exponent: 65537 (0x10001)
        X509v3 extensions:
            X509v3 Key Usage: critical
                Digital Signature, Key Encipherment
            X509v3 Basic Constraints: 
                CA:FALSE
            X509v3 Extended Key Usage: 
                TLS Web Server Authentication, TLS Web Client Authentication
            X509v3 Subject Key Identifier: 
                E0:D1:7C:8C:6B:B3:17:14:72:D8:4A:23:7B:BB:3A:C2:4C:1E:2F:72
            X509v3 Authority Key Identifier: 
                A3:C8:E8:A2:31:60:6D:24:8B:DD:5E:2C:0B:2B:69:12:3C:83:70:50
            X509v3 Subject Alternative Name: 
                DNS:www.lab5.ca, DNS:log.lab5.ca, IP Address:127.0.0.1, IP Address:10.99.99.100
    Signature Algorithm: sha256WithRSAEncryption
    Signature Value:
        61:0a:7a:4b:fe:09:3e:77:7e:a8:db:c3:a2:f5:78:65:96:53:
        9f:db:46:dc:84:ea:2b:ac:8e:c2:60:f5:40:20:87:ce:d3:2e:
        0e:a2:52:56:f7:8c:8f:3c:a4:22:c1:43:73:ab:a7:d0:2a:3b:
        54:b6:af:0d:a1:e1:78:b9:39:3c:40:50:8f:28:ab:01:c6:c4:
        07:37:ea:b3:f6:6d:90:3e:50:a8:e0:87:a1:65:ad:93:3f:ee:
        81:c9:59:52:39:3e:65:1d:60:e2:d1:8a:de:67:30:e2:13:34:
        33:cd:d9:5a:75:0e:7e:ad:5c:3f:7e:83:30:42:8a:de:c3:fb:
        d9:2f:85:43:85:1c:33:cc:d4:d7:51:f7:c1:27:52:3b:17:be:
        d1:62:b0:67:87:67:21:f3:4e:00:e5:f2:e5:2c:db:7f:ae:97:
        a4:b1:98:e3:1f:75:66:78:34:99:6f:a2:20:84:6a:8b:75:86:
        3c:5c:a3:8c:c2:95:00:72:c5:72:fa:20:2c:14:84:2c:a6:c5:
        a6:4d:c5:6e:93:a7:66:d6:ef:b8:38:2a:1b:1b:95:29:fb:69:
        50:65:3e:19:ec:32:7f:a5:43:8d:ca:79:01:6b:99:42:ef:de:
        39:f0:15:13:d5:17:41:8c:de:36:a5:97:f3:b5:35:23:9d:75:
        0e:66:ac:87
-----BEGIN CERTIFICATE-----
MIIEHTCCAwWgAwIBAgIBATANBgkqhkiG9w0BAQsFADCBgTESMBAGCgmSJomT8ixk
ARkWAmNhMRQwEgYKCZImiZPyLGQBGRYEbGFiNTEZMBcGA1UECgwQTGFiNSBEZXZP
cHMgSW5jLjEUMBIGA1UECwwLd3d3LmxhYjUuY2ExJDAiBgNVBAMMG0xhYjUgRGV2
T3BzIEluYy4gSXNzdWluZyBDQTAeFw0yMjEyMDUxNTIzMDJaFw0yNDEyMDQxNTIz
MDJaMHExEjAQBgoJkiaJk/IsZAEZFgJjYTEUMBIGCgmSJomT8ixkARkWBGxhYjUx
GTAXBgNVBAoMEExhYjUgRGV2T3BzIEluYy4xFDASBgNVBAsMC3d3dy5sYWI1LmNh
MRQwEgYDVQQDDAt3d3cubGFiNS5jYTCCASIwDQYJKoZIhvcNAQEBBQADggEPADCC
AQoCggEBANToDOUVpDQmzVXGMTX/TSd0NwGfLyZyDN1wf/3ZOFeEltOOPlB0kcyV
q4CeWoLXW+lYsXKPn0AHa+X20rGQ0CX91y81Po4FGoX27JE2QYtWbvpTN/4M0xgr
k8zKs9EUn0wOrw26mRuz+X0MHN94nKolB7NzkRns1ILWSt3yC7mKprTjGpBGvcE0
uwH1bLyZEsfTjfnDoiMvufWW++4JKSrRAFcRpq6zTrmYIR1Pj1rPlW2/cbJkEfJ2
SWIYDeJ36uy59OTpDsYSz1gP4kqozjFmu7GmLykUU7Hc+ZqWInShGJ5jt8Q1GFQA
KdQ9TQTsJePt0TdU/JcuoR3w90lzfs0CAwEAAaOBrjCBqzAOBgNVHQ8BAf8EBAMC
BaAwCQYDVR0TBAIwADAdBgNVHSUEFjAUBggrBgEFBQcDAQYIKwYBBQUHAwIwHQYD
VR0OBBYEFODRfIxrsxcUcthKI3u7OsJMHi9yMB8GA1UdIwQYMBaAFKPI6KIxYG0k
i91eLAsraRI8g3BQMC8GA1UdEQQoMCaCC3d3dy5sYWI1LmNhggtsb2cubGFiNS5j
YYcEfwAAAYcECmNjZDANBgkqhkiG9w0BAQsFAAOCAQEAYQp6S/4JPnd+qNvDovV4
ZZZTn9tG3ITqK6yOwmD1QCCHztMuDqJSVveMjzykIsFDc6un0Co7VLavDaHheLk5
PEBQjyirAcbEBzfqs/ZtkD5QqOCHoWWtkz/ugclZUjk+ZR1g4tGK3mcw4hM0M83Z
WnUOfq1cP36DMEKK3sP72S+FQ4UcM8zU11H3wSdSOxe+0WKwZ4dnIfNOAOXy5Szb
f66XpLGY4x91Zng0mW+iIIRqi3WGPFyjjMKVAHLFcvogLBSELKbFpk3FbpOnZtbv
uDgqGxuVKftpUGU+Gewyf6VDjcp5AWuZQu/eOfAVE9UXQYzeNqWX87U1I511Dmas
hw==
-----END CERTIFICATE-----
