Certificate:
    Data:
        Version: 3 (0x2)
        Serial Number: 1 (0x1)
        Signature Algorithm: rsassaPss         
         Hash Algorithm: sha256
         Mask Algorithm: mgf1 with sha256
          Salt Length: 0xDE
         Trailer Field: 0xBC (default)
        Issuer: DC=ca, DC=lab5, O=Lab5 DevOps Inc., OU=DevOps, CN=SigningCA G1
        Validity
            Not Before: Apr 30 10:18:04 2022 GMT
            Not After : Apr 29 10:18:04 2024 GMT
        Subject: DC=ca, DC=lab5, O=Lab5 DevOps Inc., OU=DevOps, CN=vault.lab5.ca
        Subject Public Key Info:
            Public Key Algorithm: rsassaPss
                RSA-PSS Public-Key: (2048 bit)
                Modulus:
                    00:ba:37:f2:e7:73:29:17:27:26:28:43:d8:0d:39:
                    67:d8:44:c4:e4:09:bf:d0:ca:6f:d4:59:e0:17:e5:
                    fe:34:39:ff:61:af:d0:f8:c7:5d:d9:0f:42:e5:7b:
                    09:54:3e:53:03:f2:b4:22:74:ec:45:a7:87:7b:72:
                    24:5d:5d:0f:17:ae:c8:81:ea:ad:4d:57:10:e5:34:
                    a8:9c:1c:56:50:20:e8:31:5b:94:de:9f:b8:fc:32:
                    77:d5:89:23:b8:48:ed:3e:e5:50:16:c0:bb:7b:1e:
                    74:08:b2:5b:c4:5e:f7:0b:37:51:b1:32:1d:d3:30:
                    ac:27:1c:8f:21:6d:5e:3a:01:e4:a1:34:a6:43:8c:
                    82:28:b7:59:93:7b:ba:c7:9f:d4:45:c3:b0:49:46:
                    fd:86:df:29:99:b4:81:89:14:60:52:67:c5:45:aa:
                    26:dd:4a:30:d8:a2:92:d7:37:89:45:21:29:a2:9c:
                    db:25:ae:eb:f0:30:90:89:4d:8a:a4:fd:fc:ca:3a:
                    02:fb:d0:10:b4:9c:08:bc:5e:6d:fd:ec:e1:9e:1b:
                    a9:a0:54:75:11:6b:92:fa:91:25:b3:71:08:31:42:
                    09:12:06:15:1f:c2:b9:17:7a:11:27:d6:5b:10:a5:
                    41:0d:64:5c:86:6e:e4:f9:67:9a:08:b1:c8:66:03:
                    ac:db
                Exponent: 65537 (0x10001)
                No PSS parameter restrictions
        X509v3 extensions:
            X509v3 Key Usage: critical
                Digital Signature, Key Encipherment
            X509v3 Basic Constraints: 
                CA:FALSE
            X509v3 Extended Key Usage: 
                TLS Web Server Authentication, TLS Web Client Authentication
            X509v3 Subject Key Identifier: 
                78:15:BF:F7:9B:74:E1:0E:B8:D7:E0:2D:9C:D1:A8:95:B1:A0:52:CF
            X509v3 Authority Key Identifier: 
                keyid:B4:19:64:0E:73:DC:30:06:E7:83:09:04:20:45:F2:DA:17:D4:B0:54

            X509v3 Subject Alternative Name: 
                DNS:vault.lab5.ca, IP Address:127.0.0.1
    Signature Algorithm: rsassaPss         
         Hash Algorithm: sha256
         Mask Algorithm: mgf1 with sha256
          Salt Length: 0xDE
         Trailer Field: 0xBC (default)

         34:c2:00:da:6f:32:68:4d:35:9a:98:de:5b:57:00:de:b5:93:
         3e:8f:5b:56:a8:10:4e:34:e5:6a:4a:f1:44:70:ea:27:c7:84:
         38:59:d5:3f:75:93:79:b1:60:7d:97:4f:8d:cb:6d:31:98:73:
         41:fd:a5:28:ad:ee:62:77:9d:5c:bb:6c:4a:90:09:f4:63:ac:
         e0:9c:e4:ad:63:96:55:50:69:99:9e:62:c6:ec:cd:bb:2a:c6:
         96:05:53:e6:f6:bb:77:5e:32:49:03:5d:bd:c5:75:60:60:d7:
         7c:38:d3:0b:5a:b6:52:b4:27:45:0d:81:9b:49:7f:a7:ab:e9:
         7d:52:cd:8f:62:f6:1a:fc:13:5e:34:1a:a4:91:04:ee:cf:48:
         cb:da:88:b5:27:96:ed:d8:a2:0d:c5:2a:3d:ec:a5:5d:cf:fd:
         b0:6e:af:f9:61:3c:a8:6b:f6:2e:53:20:76:8b:81:2a:34:87:
         63:b6:c9:d3:e3:08:af:13:73:bf:19:14:15:b0:94:6c:3e:32:
         e2:be:d7:b2:7b:a2:f2:cf:81:2e:1f:4c:fc:1d:ee:cf:55:82:
         e0:0d:0d:59:16:65:3f:9b:e2:9d:2b:2e:d4:b6:42:72:84:64:
         f7:c7:fd:f3:6e:a9:a3:71:13:3c:8c:fe:f9:de:a1:59:0a:7f:
         61:a9:79:21
-----BEGIN CERTIFICATE-----
MIIEVDCCAwugAwIBAgIBATA+BgkqhkiG9w0BAQowMaANMAsGCWCGSAFlAwQCAaEa
MBgGCSqGSIb3DQEBCDALBglghkgBZQMEAgGiBAICAN4wbTESMBAGCgmSJomT8ixk
ARkWAmNhMRQwEgYKCZImiZPyLGQBGRYEbGFiNTEZMBcGA1UECgwQTGFiNSBEZXZP
cHMgSW5jLjEPMA0GA1UECwwGRGV2T3BzMRUwEwYDVQQDDAxTaWduaW5nQ0EgRzEw
HhcNMjIwNDMwMTAxODA0WhcNMjQwNDI5MTAxODA0WjBuMRIwEAYKCZImiZPyLGQB
GRYCY2ExFDASBgoJkiaJk/IsZAEZFgRsYWI1MRkwFwYDVQQKDBBMYWI1IERldk9w
cyBJbmMuMQ8wDQYDVQQLDAZEZXZPcHMxFjAUBgNVBAMMDXZhdWx0LmxhYjUuY2Ew
ggEgMAsGCSqGSIb3DQEBCgOCAQ8AMIIBCgKCAQEAujfy53MpFycmKEPYDTln2ETE
5Am/0Mpv1FngF+X+NDn/Ya/Q+Mdd2Q9C5XsJVD5TA/K0InTsRaeHe3IkXV0PF67I
geqtTVcQ5TSonBxWUCDoMVuU3p+4/DJ31YkjuEjtPuVQFsC7ex50CLJbxF73CzdR
sTId0zCsJxyPIW1eOgHkoTSmQ4yCKLdZk3u6x5/URcOwSUb9ht8pmbSBiRRgUmfF
Raom3Uow2KKS1zeJRSEpopzbJa7r8DCQiU2KpP38yjoC+9AQtJwIvF5t/ezhnhup
oFR1EWuS+pEls3EIMUIJEgYVH8K5F3oRJ9ZbEKVBDWRchm7k+WeaCLHIZgOs2wID
AQABo4GdMIGaMA4GA1UdDwEB/wQEAwIFoDAJBgNVHRMEAjAAMB0GA1UdJQQWMBQG
CCsGAQUFBwMBBggrBgEFBQcDAjAdBgNVHQ4EFgQUeBW/95t04Q641+AtnNGolbGg
Us8wHwYDVR0jBBgwFoAUtBlkDnPcMAbngwkEIEXy2hfUsFQwHgYDVR0RBBcwFYIN
dmF1bHQubGFiNS5jYYcEfwAAATA+BgkqhkiG9w0BAQowMaANMAsGCWCGSAFlAwQC
AaEaMBgGCSqGSIb3DQEBCDALBglghkgBZQMEAgGiBAICAN4DggEBADTCANpvMmhN
NZqY3ltXAN61kz6PW1aoEE405WpK8URw6ifHhDhZ1T91k3mxYH2XT43LbTGYc0H9
pSit7mJ3nVy7bEqQCfRjrOCc5K1jllVQaZmeYsbszbsqxpYFU+b2u3deMkkDXb3F
dWBg13w40wtatlK0J0UNgZtJf6er6X1SzY9i9hr8E140GqSRBO7PSMvaiLUnlu3Y
og3FKj3spV3P/bBur/lhPKhr9i5TIHaLgSo0h2O2ydPjCK8Tc78ZFBWwlGw+MuK+
17J7ovLPgS4fTPwd7s9VguANDVkWZT+b4p0rLtS2QnKEZPfH/fNuqaNxEzyM/vne
oVkKf2GpeSE=
-----END CERTIFICATE-----
