Certificate:
    Data:
        Version: 3 (0x2)
        Serial Number: 1 (0x1)
        Signature Algorithm: sha256WithRSAEncryption
        Issuer: DC=ca, DC=lab5, O=Lab5 DevOps Inc., OU=DevOps, CN=SigningCA G1
        Validity
            Not Before: May  1 13:23:05 2022 GMT
            Not After : Apr 30 13:23:05 2024 GMT
        Subject: DC=ca, DC=lab5, O=Lab5 DevOps Inc., OU=DevOps, CN=vault.lab5.ca
        Subject Public Key Info:
            Public Key Algorithm: rsaEncryption
                RSA Public-Key: (2048 bit)
                Modulus:
                    00:b8:3b:ce:f4:9b:23:93:d8:58:c0:5b:81:96:ed:
                    6d:48:e5:7f:2c:b8:b8:38:45:49:be:01:28:b9:64:
                    2c:0a:dd:54:88:b5:f6:06:6c:5c:47:65:3e:8b:e3:
                    bb:a4:fd:9d:44:ae:e8:4f:57:3d:56:20:48:d8:30:
                    1c:6c:45:2e:95:bb:cb:4f:d8:56:8c:f1:3a:48:8b:
                    56:2f:8b:c2:17:69:88:3b:59:00:e4:a8:31:2c:e3:
                    bc:2e:9a:5e:62:18:14:9e:67:5e:16:07:82:2f:43:
                    18:f0:29:0b:d7:62:02:0f:b9:71:4d:54:51:73:45:
                    51:28:90:be:bc:a2:da:2b:cc:50:dc:84:09:04:48:
                    7e:86:5d:ea:34:f9:33:08:bb:a7:30:f3:5d:1e:57:
                    f1:d2:1a:c9:66:d8:6f:35:97:30:8f:7c:42:91:25:
                    47:66:4e:0b:6a:73:cc:32:28:76:a0:4b:2f:28:6d:
                    f3:11:cb:97:26:56:e6:d7:85:ec:e5:d6:90:c8:76:
                    59:b6:ed:39:eb:09:b6:ca:c8:5c:42:40:d6:a7:06:
                    95:d6:8e:82:26:cc:3f:d8:be:58:b4:0c:83:29:1d:
                    01:18:2a:3e:2e:e4:35:1d:71:1f:e7:ee:84:12:89:
                    0b:aa:a2:96:c4:fc:ca:b2:b2:61:83:fb:63:e7:17:
                    ce:cb
                Exponent: 65537 (0x10001)
        X509v3 extensions:
            X509v3 Key Usage: critical
                Digital Signature, Key Encipherment
            X509v3 Basic Constraints: 
                CA:FALSE
            X509v3 Extended Key Usage: 
                TLS Web Server Authentication, TLS Web Client Authentication
            X509v3 Subject Key Identifier: 
                DD:F7:2C:F8:A8:03:38:BF:28:56:5F:FD:CE:25:C6:EE:25:2B:D6:66
            X509v3 Authority Key Identifier: 
                keyid:63:6E:08:24:9C:A8:52:87:4A:21:FC:D7:13:4E:B7:FE:E9:B2:AF:9D

            X509v3 Subject Alternative Name: 
                DNS:vault.lab5.ca, IP Address:127.0.0.1
    Signature Algorithm: sha256WithRSAEncryption
         9a:25:ec:4b:06:5d:47:78:e5:23:23:6e:d5:e8:a3:1d:96:3c:
         67:e5:4e:03:b3:f6:4c:1e:e3:99:0f:1e:ae:c8:84:4d:b5:80:
         7f:c5:48:a4:88:18:da:f5:4f:3c:38:c7:d7:8e:39:85:fa:6e:
         fd:83:be:02:1d:3b:26:65:be:00:27:00:e0:7e:87:75:6c:2e:
         d0:f9:74:d7:f3:29:87:85:cc:4e:d9:46:5b:93:51:8f:25:c2:
         00:0b:21:80:df:ee:ef:84:3a:65:83:3e:45:0c:8a:66:96:33:
         d8:23:92:ce:b2:3c:03:ac:df:ec:83:91:85:46:dc:a6:63:ca:
         e7:65:85:3e:19:62:66:d4:ea:f9:40:f8:7e:ee:e4:0f:3b:77:
         4c:5d:46:1f:7e:58:d3:3f:de:9e:f0:05:9f:6d:f1:1d:39:a3:
         28:71:05:f4:b7:02:da:40:1c:c3:06:10:02:50:0f:2f:c3:67:
         2f:8c:2d:7d:5b:9d:16:3b:a4:ce:d8:b6:e8:ba:d9:6c:ca:e8:
         29:31:38:4e:a5:86:e2:cf:14:9a:e8:71:b3:97:48:1c:96:5d:
         c5:ce:7c:6b:d7:b7:b5:30:3b:b9:4c:be:1a:8c:b8:3b:5d:9a:
         8c:8d:8f:8e:ad:90:b5:04:41:85:b7:a8:32:3f:8d:f3:f0:38:
         5c:bd:6f:6b
-----BEGIN CERTIFICATE-----
MIID9DCCAtygAwIBAgIBATANBgkqhkiG9w0BAQsFADBtMRIwEAYKCZImiZPyLGQB
GRYCY2ExFDASBgoJkiaJk/IsZAEZFgRsYWI1MRkwFwYDVQQKDBBMYWI1IERldk9w
cyBJbmMuMQ8wDQYDVQQLDAZEZXZPcHMxFTATBgNVBAMMDFNpZ25pbmdDQSBHMTAe
Fw0yMjA1MDExMzIzMDVaFw0yNDA0MzAxMzIzMDVaMG4xEjAQBgoJkiaJk/IsZAEZ
FgJjYTEUMBIGCgmSJomT8ixkARkWBGxhYjUxGTAXBgNVBAoMEExhYjUgRGV2T3Bz
IEluYy4xDzANBgNVBAsMBkRldk9wczEWMBQGA1UEAwwNdmF1bHQubGFiNS5jYTCC
ASIwDQYJKoZIhvcNAQEBBQADggEPADCCAQoCggEBALg7zvSbI5PYWMBbgZbtbUjl
fyy4uDhFSb4BKLlkLArdVIi19gZsXEdlPovju6T9nUSu6E9XPVYgSNgwHGxFLpW7
y0/YVozxOkiLVi+LwhdpiDtZAOSoMSzjvC6aXmIYFJ5nXhYHgi9DGPApC9diAg+5
cU1UUXNFUSiQvryi2ivMUNyECQRIfoZd6jT5Mwi7pzDzXR5X8dIayWbYbzWXMI98
QpElR2ZOC2pzzDIodqBLLyht8xHLlyZW5teF7OXWkMh2WbbtOesJtsrIXEJA1qcG
ldaOgibMP9i+WLQMgykdARgqPi7kNR1xH+fuhBKJC6qilsT8yrKyYYP7Y+cXzssC
AwEAAaOBnTCBmjAOBgNVHQ8BAf8EBAMCBaAwCQYDVR0TBAIwADAdBgNVHSUEFjAU
BggrBgEFBQcDAQYIKwYBBQUHAwIwHQYDVR0OBBYEFN33LPioAzi/KFZf/c4lxu4l
K9ZmMB8GA1UdIwQYMBaAFGNuCCScqFKHSiH81xNOt/7psq+dMB4GA1UdEQQXMBWC
DXZhdWx0LmxhYjUuY2GHBH8AAAEwDQYJKoZIhvcNAQELBQADggEBAJol7EsGXUd4
5SMjbtXoox2WPGflTgOz9kwe45kPHq7IhE21gH/FSKSIGNr1Tzw4x9eOOYX6bv2D
vgIdOyZlvgAnAOB+h3VsLtD5dNfzKYeFzE7ZRluTUY8lwgALIYDf7u+EOmWDPkUM
imaWM9gjks6yPAOs3+yDkYVG3KZjyudlhT4ZYmbU6vlA+H7u5A87d0xdRh9+WNM/
3p7wBZ9t8R05oyhxBfS3AtpAHMMGEAJQDy/DZy+MLX1bnRY7pM7Ytui62WzK6Ckx
OE6lhuLPFJrocbOXSByWXcXOfGvXt7UwO7lMvhqMuDtdmoyNj46tkLUEQYW3qDI/
jfPwOFy9b2s=
-----END CERTIFICATE-----
