Certificate:
    Data:
        Version: 3 (0x2)
        Serial Number: 1 (0x1)
        Signature Algorithm: ED25519
        Issuer: DC=ca, DC=lab5, O=Lab5 DevOps Inc., OU=www.lab5.ca, CN=Lab5 DevOps Inc. Issuing CA
        Validity
            Not Before: Jun 12 10:47:13 2023 GMT
            Not After : Jun 11 10:47:13 2025 GMT
        Subject: DC=ca, DC=lab5, O=Lab5 DevOps Inc., OU=www.lab5.ca, CN=www.lab5.ca
        Subject Public Key Info:
            Public Key Algorithm: ED25519
                ED25519 Public-Key:
                pub:
                    97:80:33:39:7d:40:d2:4a:d5:f9:bd:bd:74:c6:99:
                    90:30:bf:8c:56:f2:85:72:59:97:48:2e:d6:4a:c6:
                    f8:45
        X509v3 extensions:
            X509v3 Key Usage: critical
                Digital Signature, Key Encipherment
            X509v3 Basic Constraints: 
                CA:FALSE
            X509v3 Extended Key Usage: 
                TLS Web Server Authentication, TLS Web Client Authentication
            X509v3 Subject Key Identifier: 
                29:D9:9D:3F:60:70:DA:4D:F7:DC:CB:56:C3:DD:A0:E6:06:4D:99:17
            X509v3 Authority Key Identifier: 
                F7:64:E3:35:1C:61:DF:BA:E0:F3:19:9A:32:07:D7:38:0C:5D:F0:08
            X509v3 Subject Alternative Name: 
                DNS:www.lab5.ca, DNS:log.lab5.ca, IP Address:10.99.99.100, IP Address:127.0.0.1
    Signature Algorithm: ED25519
    Signature Value:
        00:37:e4:1a:fa:c3:4c:f2:69:ba:02:6b:14:af:03:04:ed:04:
        22:6c:65:ab:78:71:20:b6:b7:db:86:03:3d:ea:96:83:2c:c5:
        76:1e:ab:1e:d7:db:27:20:70:95:a5:d2:54:37:e4:30:81:0e:
        74:79:ad:d4:44:1e:a7:c3:0b:01
-----BEGIN CERTIFICATE-----
MIICUTCCAgOgAwIBAgIBATAFBgMrZXAwgYExEjAQBgoJkiaJk/IsZAEZFgJjYTEU
MBIGCgmSJomT8ixkARkWBGxhYjUxGTAXBgNVBAoMEExhYjUgRGV2T3BzIEluYy4x
FDASBgNVBAsMC3d3dy5sYWI1LmNhMSQwIgYDVQQDDBtMYWI1IERldk9wcyBJbmMu
IElzc3VpbmcgQ0EwHhcNMjMwNjEyMTA0NzEzWhcNMjUwNjExMTA0NzEzWjBxMRIw
EAYKCZImiZPyLGQBGRYCY2ExFDASBgoJkiaJk/IsZAEZFgRsYWI1MRkwFwYDVQQK
DBBMYWI1IERldk9wcyBJbmMuMRQwEgYDVQQLDAt3d3cubGFiNS5jYTEUMBIGA1UE
AwwLd3d3LmxhYjUuY2EwKjAFBgMrZXADIQCXgDM5fUDSStX5vb10xpmQML+MVvKF
clmXSC7WSsb4RaOBrjCBqzAOBgNVHQ8BAf8EBAMCBaAwCQYDVR0TBAIwADAdBgNV
HSUEFjAUBggrBgEFBQcDAQYIKwYBBQUHAwIwHQYDVR0OBBYEFCnZnT9gcNpN99zL
VsPdoOYGTZkXMB8GA1UdIwQYMBaAFPdk4zUcYd+64PMZmjIH1zgMXfAIMC8GA1Ud
EQQoMCaCC3d3dy5sYWI1LmNhggtsb2cubGFiNS5jYYcECmNjZIcEfwAAATAFBgMr
ZXADQQAAN+Qa+sNM8mm6AmsUrwME7QQibGWreHEgtrfbhgM96paDLMV2Hqse19sn
IHCVpdJUN+QwgQ50ea3URB6nwwsB
-----END CERTIFICATE-----
