Certificate:
    Data:
        Version: 3 (0x2)
        Serial Number: 1 (0x1)
        Signature Algorithm: sha256WithRSAEncryption
        Issuer: DC=ca, DC=lab5, O=Lab5 DevOps Inc., OU=www.lab5.ca, CN=SigningCA G1
        Validity
            Not Before: May  1 14:40:13 2022 GMT
            Not After : Apr 30 14:40:13 2024 GMT
        Subject: DC=ca, DC=lab5, O=Lab5 DevOps Inc., OU=www.lab5.ca, CN=vault.lab5.ca
        Subject Public Key Info:
            Public Key Algorithm: rsaEncryption
                RSA Public-Key: (2048 bit)
                Modulus:
                    00:b8:d0:1a:36:59:89:1f:ed:18:d1:e8:ec:33:2e:
                    a2:60:df:70:d0:85:fb:8c:b1:ba:76:8f:20:c2:b0:
                    1e:71:a3:b1:b1:cc:72:a8:e0:2d:f3:78:08:1f:bf:
                    08:25:a3:f6:48:f9:bf:b4:05:f2:e7:ec:6b:ea:85:
                    55:94:4f:24:f6:e4:8f:2e:a0:43:ab:a2:3b:31:fd:
                    5d:1e:cb:1a:58:1d:b4:bb:70:72:a6:9a:c3:38:05:
                    ae:c1:81:b3:b0:ed:d7:f7:6a:82:7f:eb:14:7c:46:
                    c4:73:d7:c2:38:7f:eb:01:f7:d5:5b:4a:54:58:01:
                    a8:06:b2:d5:a9:93:e2:52:df:c2:c1:77:4f:8d:42:
                    11:f0:77:d2:99:df:08:6b:43:76:e6:fa:00:f0:5e:
                    17:2b:db:2b:3b:0d:aa:00:e3:fb:a1:49:af:4a:68:
                    ff:b0:2c:14:ea:84:0f:cc:8f:e3:1f:29:43:8b:5f:
                    7c:19:a7:ac:f2:53:70:df:ec:be:08:6a:06:94:a3:
                    67:79:53:31:d0:66:e2:1d:e0:06:b9:ef:d1:48:ba:
                    5a:b0:a4:cb:23:af:06:42:cf:ad:9b:8b:22:8e:22:
                    ce:67:f3:0c:ba:7a:5e:d6:be:2e:69:1d:d1:44:30:
                    1d:38:7f:56:93:be:00:bd:56:6b:f6:55:74:04:c7:
                    4b:f5
                Exponent: 65537 (0x10001)
        X509v3 extensions:
            X509v3 Key Usage: critical
                Digital Signature, Key Encipherment
            X509v3 Basic Constraints: 
                CA:FALSE
            X509v3 Extended Key Usage: 
                TLS Web Server Authentication, TLS Web Client Authentication
            X509v3 Subject Key Identifier: 
                28:4A:07:0B:DE:A9:93:7F:1E:BB:A4:EF:C7:73:7D:7A:9B:F4:4C:69
            X509v3 Authority Key Identifier: 
                keyid:8A:0D:DD:D6:86:43:56:1A:35:A5:F3:2D:34:B4:80:21:B7:FC:78:7D

            X509v3 Subject Alternative Name: 
                DNS:vault.lab5.ca, IP Address:127.0.0.1
    Signature Algorithm: sha256WithRSAEncryption
         af:4a:04:ea:0e:5e:92:1f:02:84:a8:0a:70:c1:10:77:cc:75:
         9e:ba:30:11:3e:8c:c2:4d:e1:d3:40:1b:54:c9:9e:96:1a:0d:
         38:0e:7a:cc:42:c0:58:ed:25:f8:a1:fd:fe:89:28:d9:a1:4d:
         9d:62:9e:d8:c9:86:94:9d:c4:51:52:9e:81:bb:c6:02:f4:23:
         72:e7:f4:80:a6:89:af:0e:48:af:f3:c1:74:a2:18:32:65:b6:
         48:61:eb:11:4a:e9:83:7d:fe:76:39:a7:f0:e8:3e:f0:01:aa:
         9e:4d:70:3e:8e:b9:82:a0:b0:61:41:ed:4d:0d:d8:a0:65:70:
         a4:ae:83:e3:8a:48:9c:1c:c8:4e:da:eb:70:55:77:17:31:87:
         95:42:0d:02:cd:a8:62:7c:df:7d:ff:e0:2d:27:a9:42:63:2c:
         69:90:b0:11:e3:6b:dc:61:16:e3:b1:b9:b1:51:ac:d2:6f:92:
         16:76:35:aa:e6:9a:88:3a:83:d6:b3:93:30:ec:c9:03:35:67:
         ef:b4:77:8c:a1:5a:dc:7b:0d:d1:6f:9c:05:ea:47:26:ec:d4:
         e1:06:07:28:52:ba:11:1d:b3:84:03:b7:17:a6:b0:fb:98:c2:
         c9:10:65:74:a4:7a:ed:b0:62:7e:da:9c:ff:1b:40:3b:25:5f:
         c6:bc:2a:d2
-----BEGIN CERTIFICATE-----
MIID/jCCAuagAwIBAgIBATANBgkqhkiG9w0BAQsFADByMRIwEAYKCZImiZPyLGQB
GRYCY2ExFDASBgoJkiaJk/IsZAEZFgRsYWI1MRkwFwYDVQQKDBBMYWI1IERldk9w
cyBJbmMuMRQwEgYDVQQLDAt3d3cubGFiNS5jYTEVMBMGA1UEAwwMU2lnbmluZ0NB
IEcxMB4XDTIyMDUwMTE0NDAxM1oXDTI0MDQzMDE0NDAxM1owczESMBAGCgmSJomT
8ixkARkWAmNhMRQwEgYKCZImiZPyLGQBGRYEbGFiNTEZMBcGA1UECgwQTGFiNSBE
ZXZPcHMgSW5jLjEUMBIGA1UECwwLd3d3LmxhYjUuY2ExFjAUBgNVBAMMDXZhdWx0
LmxhYjUuY2EwggEiMA0GCSqGSIb3DQEBAQUAA4IBDwAwggEKAoIBAQC40Bo2WYkf
7RjR6OwzLqJg33DQhfuMsbp2jyDCsB5xo7GxzHKo4C3zeAgfvwglo/ZI+b+0BfLn
7GvqhVWUTyT25I8uoEOrojsx/V0eyxpYHbS7cHKmmsM4Ba7BgbOw7df3aoJ/6xR8
RsRz18I4f+sB99VbSlRYAagGstWpk+JS38LBd0+NQhHwd9KZ3whrQ3bm+gDwXhcr
2ys7DaoA4/uhSa9KaP+wLBTqhA/Mj+MfKUOLX3wZp6zyU3Df7L4IagaUo2d5UzHQ
ZuId4Aa579FIulqwpMsjrwZCz62biyKOIs5n8wy6el7Wvi5pHdFEMB04f1aTvgC9
Vmv2VXQEx0v1AgMBAAGjgZ0wgZowDgYDVR0PAQH/BAQDAgWgMAkGA1UdEwQCMAAw
HQYDVR0lBBYwFAYIKwYBBQUHAwEGCCsGAQUFBwMCMB0GA1UdDgQWBBQoSgcL3qmT
fx67pO/Hc316m/RMaTAfBgNVHSMEGDAWgBSKDd3WhkNWGjWl8y00tIAht/x4fTAe
BgNVHREEFzAVgg12YXVsdC5sYWI1LmNhhwR/AAABMA0GCSqGSIb3DQEBCwUAA4IB
AQCvSgTqDl6SHwKEqApwwRB3zHWeujARPozCTeHTQBtUyZ6WGg04DnrMQsBY7SX4
of3+iSjZoU2dYp7YyYaUncRRUp6Bu8YC9CNy5/SApomvDkiv88F0ohgyZbZIYesR
SumDff52Oafw6D7wAaqeTXA+jrmCoLBhQe1NDdigZXCkroPjikicHMhO2utwVXcX
MYeVQg0CzahifN99/+AtJ6lCYyxpkLAR42vcYRbjsbmxUazSb5IWdjWq5pqIOoPW
s5Mw7MkDNWfvtHeMoVrcew3Rb5wF6kcm7NThBgcoUroRHbOEA7cXprD7mMLJEGV0
pHrtsGJ+2pz/G0A7JV/GvCrS
-----END CERTIFICATE-----
