Certificate:
    Data:
        Version: 3 (0x2)
        Serial Number: 1 (0x1)
        Signature Algorithm: ED25519
        Issuer: DC=ca, DC=lab5, O=Lab5 DevOps Inc., OU=www.lab5.ca, CN=Lab5 DevOps Inc. Issuing CA
        Validity
            Not Before: Jun 12 11:08:34 2023 GMT
            Not After : Jun 11 11:08:34 2025 GMT
        Subject: DC=ca, DC=lab5, O=Lab5 DevOps Inc., OU=www.lab5.ca, CN=www.lab5.ca
        Subject Public Key Info:
            Public Key Algorithm: ED25519
                ED25519 Public-Key:
                pub:
                    ee:e1:9b:11:3e:1a:32:97:1c:cf:2b:c0:f2:b2:f7:
                    b1:3a:97:02:c4:67:be:a9:2d:28:cb:55:06:3f:1d:
                    1b:3e
        X509v3 extensions:
            X509v3 Key Usage: critical
                Digital Signature, Key Encipherment
            X509v3 Basic Constraints: 
                CA:FALSE
            X509v3 Extended Key Usage: 
                TLS Web Server Authentication, TLS Web Client Authentication
            X509v3 Subject Key Identifier: 
                B8:22:B6:40:94:7D:2D:13:06:2B:2E:6F:6B:E0:50:FF:4F:0D:FC:96
            X509v3 Authority Key Identifier: 
                B8:3E:5E:77:44:8A:32:D9:2F:10:45:54:4A:5A:77:7A:E2:BE:A1:D2
            X509v3 Subject Alternative Name: 
                DNS:www.lab5.ca, DNS:log.lab5.ca, IP Address:10.99.99.100, IP Address:127.0.0.1
    Signature Algorithm: ED25519
    Signature Value:
        0c:8a:7c:fb:25:06:f9:cb:e0:d1:e1:04:cd:93:c6:db:56:7c:
        77:a3:65:cd:fe:33:eb:bb:5e:b6:77:e8:da:75:37:16:18:73:
        40:42:3b:b9:f7:dd:56:a3:04:58:1a:38:4b:29:b4:bb:e4:fa:
        ff:b3:ea:89:71:16:9d:74:22:06
-----BEGIN CERTIFICATE-----
MIICUTCCAgOgAwIBAgIBATAFBgMrZXAwgYExEjAQBgoJkiaJk/IsZAEZFgJjYTEU
MBIGCgmSJomT8ixkARkWBGxhYjUxGTAXBgNVBAoMEExhYjUgRGV2T3BzIEluYy4x
FDASBgNVBAsMC3d3dy5sYWI1LmNhMSQwIgYDVQQDDBtMYWI1IERldk9wcyBJbmMu
IElzc3VpbmcgQ0EwHhcNMjMwNjEyMTEwODM0WhcNMjUwNjExMTEwODM0WjBxMRIw
EAYKCZImiZPyLGQBGRYCY2ExFDASBgoJkiaJk/IsZAEZFgRsYWI1MRkwFwYDVQQK
DBBMYWI1IERldk9wcyBJbmMuMRQwEgYDVQQLDAt3d3cubGFiNS5jYTEUMBIGA1UE
AwwLd3d3LmxhYjUuY2EwKjAFBgMrZXADIQDu4ZsRPhoylxzPK8DysvexOpcCxGe+
qS0oy1UGPx0bPqOBrjCBqzAOBgNVHQ8BAf8EBAMCBaAwCQYDVR0TBAIwADAdBgNV
HSUEFjAUBggrBgEFBQcDAQYIKwYBBQUHAwIwHQYDVR0OBBYEFLgitkCUfS0TBisu
b2vgUP9PDfyWMB8GA1UdIwQYMBaAFLg+XndEijLZLxBFVEpad3rivqHSMC8GA1Ud
EQQoMCaCC3d3dy5sYWI1LmNhggtsb2cubGFiNS5jYYcECmNjZIcEfwAAATAFBgMr
ZXADQQAMinz7JQb5y+DR4QTNk8bbVnx3o2XN/jPru162d+jadTcWGHNAQju5991W
owRYGjhLKbS75Pr/s+qJcRaddCIG
-----END CERTIFICATE-----
