Certificate:
    Data:
        Version: 3 (0x2)
        Serial Number: 1 (0x1)
        Signature Algorithm: sha256WithRSAEncryption
        Issuer: DC=ca, DC=lab5, O=Lab5 DevOps Inc., OU=www.lab5.ca, CN=Lab5 DevOps Inc. Issuing CA
        Validity
            Not Before: Dec  4 14:58:24 2022 GMT
            Not After : Dec  3 14:58:24 2024 GMT
        Subject: DC=ca, DC=lab5, O=Lab5 DevOps Inc., OU=www.lab5.ca, CN=www.lab5.ca
        Subject Public Key Info:
            Public Key Algorithm: rsaEncryption
                Public-Key: (2048 bit)
                Modulus:
                    00:87:3e:80:58:19:eb:dc:a4:e1:63:dc:6b:4c:5e:
                    7c:ef:a8:99:0e:f8:eb:84:94:aa:84:10:0e:e5:f6:
                    e0:46:eb:2e:a0:70:f4:ed:bb:78:2d:fd:1b:2f:e6:
                    33:77:58:4e:ce:78:8a:36:9d:33:dc:84:ea:da:62:
                    c8:4f:8c:ef:78:87:55:62:f1:c6:17:61:35:47:7b:
                    33:52:e0:54:f9:24:77:3d:c2:04:52:d2:3f:8e:c8:
                    7a:f4:e1:f4:67:4f:7f:7e:af:5e:d4:97:ac:76:ba:
                    a6:a5:b3:67:3a:8c:7f:ac:9a:61:66:20:20:9c:56:
                    db:a4:a6:78:f5:3e:c7:d4:7d:f0:03:f9:43:94:98:
                    f4:aa:55:89:c6:b8:4c:41:cf:e4:5d:e4:8c:5b:75:
                    97:0c:db:1b:4f:38:d8:0e:f0:98:30:f7:e9:5e:9a:
                    95:c8:6c:f8:e8:99:f4:1f:ea:fc:b1:0b:e9:05:12:
                    eb:e0:71:ea:30:72:f5:06:04:2b:1c:a1:6f:81:3a:
                    e0:2e:e1:30:3f:44:fa:36:f9:e7:68:d7:a5:e9:a6:
                    d9:27:fd:b2:a6:73:00:43:a5:b4:91:7d:70:ef:81:
                    5a:ab:3c:8c:84:26:d7:f2:ee:45:71:8b:b1:84:03:
                    b3:7d:c4:f8:79:b8:bb:ab:8a:a0:a8:41:76:f6:97:
                    58:a3
                Exponent: 65537 (0x10001)
        X509v3 extensions:
            X509v3 Key Usage: critical
                Digital Signature, Key Encipherment
            X509v3 Basic Constraints: 
                CA:FALSE
            X509v3 Extended Key Usage: 
                TLS Web Server Authentication, TLS Web Client Authentication
            X509v3 Subject Key Identifier: 
                86:1F:38:A3:77:CA:4E:A4:83:8E:01:7D:D6:14:84:E5:B0:A3:63:00
            X509v3 Authority Key Identifier: 
                F4:DB:CC:42:BA:D7:79:E3:35:86:9E:7F:8A:8F:8E:4E:19:A5:A5:C7
            X509v3 Subject Alternative Name: 
                DNS:www.lab5.ca, DNS:log.lab5.ca, IP Address:127.0.0.1, IP Address:10.99.99.100
    Signature Algorithm: sha256WithRSAEncryption
    Signature Value:
        8a:ef:70:46:47:3e:10:b7:05:7c:13:42:90:1c:5c:66:ab:74:
        f4:99:ed:12:f1:b8:2a:5d:c0:4e:bd:40:4a:46:f9:84:86:de:
        a6:47:5e:06:51:4e:56:cc:ed:bc:09:a5:8f:26:98:ca:ad:fc:
        2b:e8:3d:78:6c:07:90:85:f7:08:b1:ef:69:90:56:9d:5b:47:
        5a:19:05:8f:fd:d8:a1:8a:0f:33:e7:bb:96:33:d9:c9:bb:ef:
        f6:fa:ad:17:34:07:d8:27:e1:5a:0c:40:d4:13:0d:0a:41:cd:
        f1:83:96:ed:aa:4f:4b:0d:99:f8:d2:64:dc:c3:c0:7d:ef:8a:
        81:16:66:2f:1c:c4:29:cd:a8:77:79:29:81:2e:26:8d:1a:0c:
        46:8c:a5:50:94:61:d3:cf:75:c3:b9:99:07:30:1c:be:76:15:
        fe:66:ab:f2:9b:9d:fb:20:95:a3:74:4e:60:f2:a6:04:5b:ee:
        12:82:f3:9f:b9:da:5d:25:6e:14:fd:cc:fe:9a:b9:d6:44:f4:
        91:44:a3:8d:23:9f:27:07:40:8e:f0:27:20:67:99:9d:9e:9b:
        68:04:b4:9d:65:04:a2:d4:7f:c4:18:0a:b4:01:dc:8b:5a:b5:
        d3:a6:59:2c:3d:46:8e:5d:00:58:04:6b:c8:1a:e5:b2:32:63:
        2f:63:43:ff
-----BEGIN CERTIFICATE-----
MIIEHTCCAwWgAwIBAgIBATANBgkqhkiG9w0BAQsFADCBgTESMBAGCgmSJomT8ixk
ARkWAmNhMRQwEgYKCZImiZPyLGQBGRYEbGFiNTEZMBcGA1UECgwQTGFiNSBEZXZP
cHMgSW5jLjEUMBIGA1UECwwLd3d3LmxhYjUuY2ExJDAiBgNVBAMMG0xhYjUgRGV2
T3BzIEluYy4gSXNzdWluZyBDQTAeFw0yMjEyMDQxNDU4MjRaFw0yNDEyMDMxNDU4
MjRaMHExEjAQBgoJkiaJk/IsZAEZFgJjYTEUMBIGCgmSJomT8ixkARkWBGxhYjUx
GTAXBgNVBAoMEExhYjUgRGV2T3BzIEluYy4xFDASBgNVBAsMC3d3dy5sYWI1LmNh
MRQwEgYDVQQDDAt3d3cubGFiNS5jYTCCASIwDQYJKoZIhvcNAQEBBQADggEPADCC
AQoCggEBAIc+gFgZ69yk4WPca0xefO+omQ7464SUqoQQDuX24EbrLqBw9O27eC39
Gy/mM3dYTs54ijadM9yE6tpiyE+M73iHVWLxxhdhNUd7M1LgVPkkdz3CBFLSP47I
evTh9GdPf36vXtSXrHa6pqWzZzqMf6yaYWYgIJxW26SmePU+x9R98AP5Q5SY9KpV
ica4TEHP5F3kjFt1lwzbG0842A7wmDD36V6alchs+OiZ9B/q/LEL6QUS6+Bx6jBy
9QYEKxyhb4E64C7hMD9E+jb552jXpemm2Sf9sqZzAEOltJF9cO+BWqs8jIQm1/Lu
RXGLsYQDs33E+Hm4u6uKoKhBdvaXWKMCAwEAAaOBrjCBqzAOBgNVHQ8BAf8EBAMC
BaAwCQYDVR0TBAIwADAdBgNVHSUEFjAUBggrBgEFBQcDAQYIKwYBBQUHAwIwHQYD
VR0OBBYEFIYfOKN3yk6kg44BfdYUhOWwo2MAMB8GA1UdIwQYMBaAFPTbzEK613nj
NYaef4qPjk4ZpaXHMC8GA1UdEQQoMCaCC3d3dy5sYWI1LmNhggtsb2cubGFiNS5j
YYcEfwAAAYcECmNjZDANBgkqhkiG9w0BAQsFAAOCAQEAiu9wRkc+ELcFfBNCkBxc
Zqt09JntEvG4Kl3ATr1ASkb5hIbepkdeBlFOVsztvAmljyaYyq38K+g9eGwHkIX3
CLHvaZBWnVtHWhkFj/3YoYoPM+e7ljPZybvv9vqtFzQH2CfhWgxA1BMNCkHN8YOW
7apPSw2Z+NJk3MPAfe+KgRZmLxzEKc2od3kpgS4mjRoMRoylUJRh0891w7mZBzAc
vnYV/mar8pud+yCVo3ROYPKmBFvuEoLzn7naXSVuFP3M/pq51kT0kUSjjSOfJwdA
jvAnIGeZnZ6baAS0nWUEotR/xBgKtAHci1q106ZZLD1Gjl0AWARryBrlsjJjL2ND
/w==
-----END CERTIFICATE-----
