Certificate:
    Data:
        Version: 3 (0x2)
        Serial Number: 1 (0x1)
        Signature Algorithm: ED25519
        Issuer: DC=ca, DC=lab5, O=Lab5 DevOps Inc., OU=www.lab5.ca, CN=Lab5 DevOps Inc. Issuing CA
        Validity
            Not Before: Jun  2 14:22:29 2023 GMT
            Not After : Jun  1 14:22:29 2025 GMT
        Subject: DC=ca, DC=lab5, O=Lab5 DevOps Inc., OU=www.lab5.ca, CN=www.lab5.ca
        Subject Public Key Info:
            Public Key Algorithm: ED25519
                ED25519 Public-Key:
                pub:
                    17:54:cf:16:7a:5c:87:33:ad:ef:d6:b8:4e:a6:f2:
                    7c:54:57:98:8f:3d:97:08:67:7e:10:9f:64:0c:c2:
                    ca:51
        X509v3 extensions:
            X509v3 Key Usage: critical
                Digital Signature, Key Encipherment
            X509v3 Basic Constraints: 
                CA:FALSE
            X509v3 Extended Key Usage: 
                TLS Web Server Authentication, TLS Web Client Authentication
            X509v3 Subject Key Identifier: 
                EF:8A:CF:B3:AC:1A:AC:AA:75:52:81:07:43:75:7A:32:C8:20:88:5D
            X509v3 Authority Key Identifier: 
                FB:41:9A:28:A5:CC:B5:02:F0:E0:07:F7:1C:67:13:80:D8:63:3B:60
            X509v3 Subject Alternative Name: 
                DNS:www.lab5.ca, DNS:log.lab5.ca, IP Address:10.99.99.100, IP Address:127.0.0.1
    Signature Algorithm: ED25519
    Signature Value:
        d4:3d:99:a2:43:96:da:a3:3a:bc:3e:c0:d8:fb:27:bd:07:2d:
        c6:9e:51:66:ac:bf:3e:1f:18:ef:b6:24:b2:95:00:52:13:34:
        67:83:86:57:0d:fc:8c:77:f9:61:6b:a3:9f:c0:7f:18:37:67:
        34:c9:12:21:57:74:69:90:01:0a
-----BEGIN CERTIFICATE-----
MIICUTCCAgOgAwIBAgIBATAFBgMrZXAwgYExEjAQBgoJkiaJk/IsZAEZFgJjYTEU
MBIGCgmSJomT8ixkARkWBGxhYjUxGTAXBgNVBAoMEExhYjUgRGV2T3BzIEluYy4x
FDASBgNVBAsMC3d3dy5sYWI1LmNhMSQwIgYDVQQDDBtMYWI1IERldk9wcyBJbmMu
IElzc3VpbmcgQ0EwHhcNMjMwNjAyMTQyMjI5WhcNMjUwNjAxMTQyMjI5WjBxMRIw
EAYKCZImiZPyLGQBGRYCY2ExFDASBgoJkiaJk/IsZAEZFgRsYWI1MRkwFwYDVQQK
DBBMYWI1IERldk9wcyBJbmMuMRQwEgYDVQQLDAt3d3cubGFiNS5jYTEUMBIGA1UE
AwwLd3d3LmxhYjUuY2EwKjAFBgMrZXADIQAXVM8WelyHM63v1rhOpvJ8VFeYjz2X
CGd+EJ9kDMLKUaOBrjCBqzAOBgNVHQ8BAf8EBAMCBaAwCQYDVR0TBAIwADAdBgNV
HSUEFjAUBggrBgEFBQcDAQYIKwYBBQUHAwIwHQYDVR0OBBYEFO+Kz7OsGqyqdVKB
B0N1ejLIIIhdMB8GA1UdIwQYMBaAFPtBmiilzLUC8OAH9xxnE4DYYztgMC8GA1Ud
EQQoMCaCC3d3dy5sYWI1LmNhggtsb2cubGFiNS5jYYcECmNjZIcEfwAAATAFBgMr
ZXADQQDUPZmiQ5baozq8PsDY+ye9By3GnlFmrL8+HxjvtiSylQBSEzRng4ZXDfyM
d/lha6OfwH8YN2c0yRIhV3RpkAEK
-----END CERTIFICATE-----
