Certificate:
    Data:
        Version: 3 (0x2)
        Serial Number: 2 (0x2)
        Signature Algorithm: sha256WithRSAEncryption
        Issuer: DC=ca, DC=lab5, O=Lab5 DevOps Inc., OU=www.lab5.ca, CN=Lab5 DevOps Inc. Issuing CA
        Validity
            Not Before: Nov  2 16:33:16 2022 GMT
            Not After : Nov  1 16:33:16 2024 GMT
        Subject: DC=ca, DC=lab5, O=Lab5 DevOps Inc., OU=www.lab5.ca, CN=www.lab5.ca
        Subject Public Key Info:
            Public Key Algorithm: rsaEncryption
                Public-Key: (2048 bit)
                Modulus:
                    00:94:86:4a:51:84:3b:69:ac:16:28:0e:54:2a:d7:
                    a6:50:60:f8:2f:66:0f:d4:3d:ec:3a:dc:f2:7f:48:
                    51:9c:00:8f:8c:40:c9:c9:db:bd:b5:5f:01:be:1d:
                    e9:2b:0b:94:27:db:7d:a6:10:c8:02:63:fa:18:25:
                    19:69:83:fc:fb:0a:d1:05:33:4c:c3:99:a8:41:a6:
                    19:d4:dc:c3:17:73:9c:05:45:3f:82:3e:fe:4e:ca:
                    c6:c3:ce:04:01:29:fb:75:56:8e:4b:bf:9c:df:a2:
                    9c:40:c8:84:07:75:56:b4:13:40:b9:4b:e4:24:06:
                    50:ea:2e:01:bf:ee:02:00:58:6b:b0:ab:d4:83:fe:
                    c1:6a:e0:0f:5c:eb:31:1e:41:4b:51:5d:84:24:eb:
                    c2:ae:d4:4c:99:60:28:83:83:69:ca:ed:7d:e8:7b:
                    7a:50:bc:fe:f5:54:78:86:ff:64:78:0b:cb:9b:30:
                    3d:5d:e2:81:9d:53:51:be:83:d2:26:c8:65:de:04:
                    ed:8b:92:45:59:72:87:f9:82:11:11:3d:41:85:89:
                    02:f9:40:93:d5:79:f9:24:dd:d8:cf:4d:f9:55:81:
                    b1:44:a6:34:1b:07:8e:7b:d3:31:2f:03:25:89:66:
                    f6:a1:28:fc:13:1d:43:1c:71:09:33:75:0f:ff:9d:
                    4e:83
                Exponent: 65537 (0x10001)
        X509v3 extensions:
            X509v3 Key Usage: critical
                Digital Signature, Key Encipherment
            X509v3 Basic Constraints: 
                CA:FALSE
            X509v3 Extended Key Usage: 
                TLS Web Server Authentication, TLS Web Client Authentication
            X509v3 Subject Key Identifier: 
                B8:A0:BA:78:BC:41:2F:D2:93:10:40:B2:B9:BB:BF:63:22:1E:B0:CA
            X509v3 Authority Key Identifier: 
                30:81:05:C9:07:09:3A:DB:F6:A0:B9:1B:C6:C5:8D:FC:D2:23:D2:B6
            X509v3 Subject Alternative Name: 
                DNS:www.lab5.ca, DNS:log.lab5.ca, IP Address:127.0.0.1
    Signature Algorithm: sha256WithRSAEncryption
    Signature Value:
        53:eb:88:7f:e3:9b:7c:29:06:37:a6:86:2a:a3:bd:02:18:03:
        38:ae:e2:06:03:40:6e:88:4e:21:b4:13:e9:51:ff:d6:ec:26:
        f7:3a:29:92:2f:d8:1e:95:45:fd:aa:ca:4f:eb:b0:78:e6:61:
        44:31:15:5f:b9:57:a3:e8:81:03:92:99:40:89:02:4a:3f:cb:
        ea:10:6f:b1:f3:36:bc:ab:36:41:ae:e7:83:9f:04:b6:c0:e1:
        7a:14:2b:53:85:03:ca:08:b1:92:13:5a:0c:d0:21:27:60:e0:
        0a:d8:0e:5f:7e:af:a2:0b:bf:4d:b5:95:d1:4c:48:b6:b7:c6:
        7f:95:e0:46:45:55:c6:c4:db:18:71:0c:1c:2e:f8:9c:5e:15:
        a3:88:49:47:3a:1d:79:7e:68:2e:73:d2:c5:88:96:8e:5e:34:
        d2:9b:78:fa:23:59:f4:02:7c:38:6b:dd:cd:ac:64:59:c2:a5:
        f6:d0:fb:c1:a6:72:11:f3:ba:69:e9:dc:ed:98:62:a8:dc:d2:
        36:26:1f:ba:11:ee:2e:1d:6e:77:81:2d:9e:f1:62:4e:93:7d:
        3d:60:86:93:27:56:08:a6:ab:c3:87:bc:3d:e1:53:fb:c4:72:
        15:77:28:8a:b4:da:21:8b:c5:0b:52:49:d8:9a:6c:a3:c6:09:
        a2:7d:c0:e1
-----BEGIN CERTIFICATE-----
MIIEFzCCAv+gAwIBAgIBAjANBgkqhkiG9w0BAQsFADCBgTESMBAGCgmSJomT8ixk
ARkWAmNhMRQwEgYKCZImiZPyLGQBGRYEbGFiNTEZMBcGA1UECgwQTGFiNSBEZXZP
cHMgSW5jLjEUMBIGA1UECwwLd3d3LmxhYjUuY2ExJDAiBgNVBAMMG0xhYjUgRGV2
T3BzIEluYy4gSXNzdWluZyBDQTAeFw0yMjExMDIxNjMzMTZaFw0yNDExMDExNjMz
MTZaMHExEjAQBgoJkiaJk/IsZAEZFgJjYTEUMBIGCgmSJomT8ixkARkWBGxhYjUx
GTAXBgNVBAoMEExhYjUgRGV2T3BzIEluYy4xFDASBgNVBAsMC3d3dy5sYWI1LmNh
MRQwEgYDVQQDDAt3d3cubGFiNS5jYTCCASIwDQYJKoZIhvcNAQEBBQADggEPADCC
AQoCggEBAJSGSlGEO2msFigOVCrXplBg+C9mD9Q97Drc8n9IUZwAj4xAycnbvbVf
Ab4d6SsLlCfbfaYQyAJj+hglGWmD/PsK0QUzTMOZqEGmGdTcwxdznAVFP4I+/k7K
xsPOBAEp+3VWjku/nN+inEDIhAd1VrQTQLlL5CQGUOouAb/uAgBYa7Cr1IP+wWrg
D1zrMR5BS1FdhCTrwq7UTJlgKIODacrtfeh7elC8/vVUeIb/ZHgLy5swPV3igZ1T
Ub6D0ibIZd4E7YuSRVlyh/mCERE9QYWJAvlAk9V5+STd2M9N+VWBsUSmNBsHjnvT
MS8DJYlm9qEo/BMdQxxxCTN1D/+dToMCAwEAAaOBqDCBpTAOBgNVHQ8BAf8EBAMC
BaAwCQYDVR0TBAIwADAdBgNVHSUEFjAUBggrBgEFBQcDAQYIKwYBBQUHAwIwHQYD
VR0OBBYEFLiguni8QS/SkxBAsrm7v2MiHrDKMB8GA1UdIwQYMBaAFDCBBckHCTrb
9qC5G8bFjfzSI9K2MCkGA1UdEQQiMCCCC3d3dy5sYWI1LmNhggtsb2cubGFiNS5j
YYcEfwAAATANBgkqhkiG9w0BAQsFAAOCAQEAU+uIf+ObfCkGN6aGKqO9AhgDOK7i
BgNAbohOIbQT6VH/1uwm9zopki/YHpVF/arKT+uweOZhRDEVX7lXo+iBA5KZQIkC
Sj/L6hBvsfM2vKs2Qa7ng58EtsDhehQrU4UDygixkhNaDNAhJ2DgCtgOX36vogu/
TbWV0UxItrfGf5XgRkVVxsTbGHEMHC74nF4Vo4hJRzodeX5oLnPSxYiWjl400pt4
+iNZ9AJ8OGvdzaxkWcKl9tD7waZyEfO6aenc7ZhiqNzSNiYfuhHuLh1ud4EtnvFi
TpN9PWCGkydWCKarw4e8PeFT+8RyFXcoirTaIYvFC1JJ2Jpso8YJon3A4Q==
-----END CERTIFICATE-----
