Certificate:
    Data:
        Version: 3 (0x2)
        Serial Number: 3 (0x3)
        Signature Algorithm: sha256WithRSAEncryption
        Issuer: DC=ca, DC=lab5, O=Lab5 DevOps Inc., OU=www.lab5.ca, CN=Lab5 DevOps Inc. Issuing CA
        Validity
            Not Before: Nov  2 16:47:23 2022 GMT
            Not After : Nov  1 16:47:23 2024 GMT
        Subject: DC=ca, DC=lab5, O=Lab5 DevOps Inc., OU=www.lab5.ca, CN=www.lab5.ca
        Subject Public Key Info:
            Public Key Algorithm: rsaEncryption
                Public-Key: (2048 bit)
                Modulus:
                    00:94:86:4a:51:84:3b:69:ac:16:28:0e:54:2a:d7:
                    a6:50:60:f8:2f:66:0f:d4:3d:ec:3a:dc:f2:7f:48:
                    51:9c:00:8f:8c:40:c9:c9:db:bd:b5:5f:01:be:1d:
                    e9:2b:0b:94:27:db:7d:a6:10:c8:02:63:fa:18:25:
                    19:69:83:fc:fb:0a:d1:05:33:4c:c3:99:a8:41:a6:
                    19:d4:dc:c3:17:73:9c:05:45:3f:82:3e:fe:4e:ca:
                    c6:c3:ce:04:01:29:fb:75:56:8e:4b:bf:9c:df:a2:
                    9c:40:c8:84:07:75:56:b4:13:40:b9:4b:e4:24:06:
                    50:ea:2e:01:bf:ee:02:00:58:6b:b0:ab:d4:83:fe:
                    c1:6a:e0:0f:5c:eb:31:1e:41:4b:51:5d:84:24:eb:
                    c2:ae:d4:4c:99:60:28:83:83:69:ca:ed:7d:e8:7b:
                    7a:50:bc:fe:f5:54:78:86:ff:64:78:0b:cb:9b:30:
                    3d:5d:e2:81:9d:53:51:be:83:d2:26:c8:65:de:04:
                    ed:8b:92:45:59:72:87:f9:82:11:11:3d:41:85:89:
                    02:f9:40:93:d5:79:f9:24:dd:d8:cf:4d:f9:55:81:
                    b1:44:a6:34:1b:07:8e:7b:d3:31:2f:03:25:89:66:
                    f6:a1:28:fc:13:1d:43:1c:71:09:33:75:0f:ff:9d:
                    4e:83
                Exponent: 65537 (0x10001)
        X509v3 extensions:
            X509v3 Key Usage: critical
                Digital Signature, Key Encipherment
            X509v3 Basic Constraints: 
                CA:FALSE
            X509v3 Extended Key Usage: 
                TLS Web Server Authentication, TLS Web Client Authentication
            X509v3 Subject Key Identifier: 
                B8:A0:BA:78:BC:41:2F:D2:93:10:40:B2:B9:BB:BF:63:22:1E:B0:CA
            X509v3 Authority Key Identifier: 
                30:81:05:C9:07:09:3A:DB:F6:A0:B9:1B:C6:C5:8D:FC:D2:23:D2:B6
            X509v3 Subject Alternative Name: 
                DNS:www.lab5.ca, DNS:lab5.ca, IP Address:127.0.0.1, IP Address:10.99.99.100
    Signature Algorithm: sha256WithRSAEncryption
    Signature Value:
        3e:23:99:da:d5:4e:6f:7b:5c:72:65:46:f7:6d:8b:ff:6b:e1:
        20:79:84:af:10:71:1b:7f:b4:d2:7d:ff:28:50:bf:0e:a2:3d:
        34:67:83:2f:3e:a8:13:0e:7a:03:9c:3c:96:fb:eb:22:39:c7:
        7e:7a:80:5c:1b:25:71:25:b2:f2:cd:f8:41:b8:8d:5b:35:1b:
        e0:69:8d:c9:87:64:82:b0:b3:05:e2:bf:be:2f:0b:8e:3b:cc:
        ea:b1:99:43:0f:a0:fd:9e:5d:b8:a7:ba:06:29:10:b7:62:75:
        22:9c:55:e1:16:e7:2e:0f:e2:72:36:b7:73:2f:41:c6:8c:2f:
        b6:6c:7d:ba:18:4f:61:27:29:f5:8a:bf:d9:df:1c:93:ff:45:
        ce:8b:b2:29:a6:fd:96:9c:ed:61:69:27:77:ba:02:c4:60:8b:
        b0:e8:e6:95:cf:12:d1:13:cb:15:10:28:6f:29:13:4f:f2:da:
        88:ef:9d:77:be:42:03:c3:07:7b:94:33:1f:19:cd:52:dd:b7:
        cf:15:30:38:84:55:7c:69:04:18:4e:1f:b4:51:e4:cd:29:49:
        13:bc:51:13:75:9d:dd:47:ba:6d:09:bd:86:41:c2:be:7c:31:
        60:0e:7e:63:42:85:80:5e:47:9c:18:d9:21:24:a3:45:b1:d7:
        92:91:a2:b1
-----BEGIN CERTIFICATE-----
MIIEGTCCAwGgAwIBAgIBAzANBgkqhkiG9w0BAQsFADCBgTESMBAGCgmSJomT8ixk
ARkWAmNhMRQwEgYKCZImiZPyLGQBGRYEbGFiNTEZMBcGA1UECgwQTGFiNSBEZXZP
cHMgSW5jLjEUMBIGA1UECwwLd3d3LmxhYjUuY2ExJDAiBgNVBAMMG0xhYjUgRGV2
T3BzIEluYy4gSXNzdWluZyBDQTAeFw0yMjExMDIxNjQ3MjNaFw0yNDExMDExNjQ3
MjNaMHExEjAQBgoJkiaJk/IsZAEZFgJjYTEUMBIGCgmSJomT8ixkARkWBGxhYjUx
GTAXBgNVBAoMEExhYjUgRGV2T3BzIEluYy4xFDASBgNVBAsMC3d3dy5sYWI1LmNh
MRQwEgYDVQQDDAt3d3cubGFiNS5jYTCCASIwDQYJKoZIhvcNAQEBBQADggEPADCC
AQoCggEBAJSGSlGEO2msFigOVCrXplBg+C9mD9Q97Drc8n9IUZwAj4xAycnbvbVf
Ab4d6SsLlCfbfaYQyAJj+hglGWmD/PsK0QUzTMOZqEGmGdTcwxdznAVFP4I+/k7K
xsPOBAEp+3VWjku/nN+inEDIhAd1VrQTQLlL5CQGUOouAb/uAgBYa7Cr1IP+wWrg
D1zrMR5BS1FdhCTrwq7UTJlgKIODacrtfeh7elC8/vVUeIb/ZHgLy5swPV3igZ1T
Ub6D0ibIZd4E7YuSRVlyh/mCERE9QYWJAvlAk9V5+STd2M9N+VWBsUSmNBsHjnvT
MS8DJYlm9qEo/BMdQxxxCTN1D/+dToMCAwEAAaOBqjCBpzAOBgNVHQ8BAf8EBAMC
BaAwCQYDVR0TBAIwADAdBgNVHSUEFjAUBggrBgEFBQcDAQYIKwYBBQUHAwIwHQYD
VR0OBBYEFLiguni8QS/SkxBAsrm7v2MiHrDKMB8GA1UdIwQYMBaAFDCBBckHCTrb
9qC5G8bFjfzSI9K2MCsGA1UdEQQkMCKCC3d3dy5sYWI1LmNhggdsYWI1LmNhhwR/
AAABhwQKY2NkMA0GCSqGSIb3DQEBCwUAA4IBAQA+I5na1U5ve1xyZUb3bYv/a+Eg
eYSvEHEbf7TSff8oUL8Ooj00Z4MvPqgTDnoDnDyW++siOcd+eoBcGyVxJbLyzfhB
uI1bNRvgaY3Jh2SCsLMF4r++LwuOO8zqsZlDD6D9nl24p7oGKRC3YnUinFXhFucu
D+JyNrdzL0HGjC+2bH26GE9hJyn1ir/Z3xyT/0XOi7Ippv2WnO1haSd3ugLEYIuw
6OaVzxLRE8sVEChvKRNP8tqI7513vkIDwwd7lDMfGc1S3bfPFTA4hFV8aQQYTh+0
UeTNKUkTvFETdZ3dR7ptCb2GQcK+fDFgDn5jQoWAXkecGNkhJKNFsdeSkaKx
-----END CERTIFICATE-----
