Certificate:
    Data:
        Version: 3 (0x2)
        Serial Number: 4 (0x4)
        Signature Algorithm: sha256WithRSAEncryption
        Issuer: DC=ca, DC=lab5, O=Lab5 DevOps Inc., OU=www.lab5.ca, CN=Lab5 DevOps Inc. Issuing CA
        Validity
            Not Before: Nov  2 16:48:05 2022 GMT
            Not After : Nov  1 16:48:05 2024 GMT
        Subject: DC=ca, DC=lab5, O=Lab5 DevOps Inc., OU=www.lab5.ca, CN=www.lab5.ca
        Subject Public Key Info:
            Public Key Algorithm: rsaEncryption
                Public-Key: (2048 bit)
                Modulus:
                    00:94:86:4a:51:84:3b:69:ac:16:28:0e:54:2a:d7:
                    a6:50:60:f8:2f:66:0f:d4:3d:ec:3a:dc:f2:7f:48:
                    51:9c:00:8f:8c:40:c9:c9:db:bd:b5:5f:01:be:1d:
                    e9:2b:0b:94:27:db:7d:a6:10:c8:02:63:fa:18:25:
                    19:69:83:fc:fb:0a:d1:05:33:4c:c3:99:a8:41:a6:
                    19:d4:dc:c3:17:73:9c:05:45:3f:82:3e:fe:4e:ca:
                    c6:c3:ce:04:01:29:fb:75:56:8e:4b:bf:9c:df:a2:
                    9c:40:c8:84:07:75:56:b4:13:40:b9:4b:e4:24:06:
                    50:ea:2e:01:bf:ee:02:00:58:6b:b0:ab:d4:83:fe:
                    c1:6a:e0:0f:5c:eb:31:1e:41:4b:51:5d:84:24:eb:
                    c2:ae:d4:4c:99:60:28:83:83:69:ca:ed:7d:e8:7b:
                    7a:50:bc:fe:f5:54:78:86:ff:64:78:0b:cb:9b:30:
                    3d:5d:e2:81:9d:53:51:be:83:d2:26:c8:65:de:04:
                    ed:8b:92:45:59:72:87:f9:82:11:11:3d:41:85:89:
                    02:f9:40:93:d5:79:f9:24:dd:d8:cf:4d:f9:55:81:
                    b1:44:a6:34:1b:07:8e:7b:d3:31:2f:03:25:89:66:
                    f6:a1:28:fc:13:1d:43:1c:71:09:33:75:0f:ff:9d:
                    4e:83
                Exponent: 65537 (0x10001)
        X509v3 extensions:
            X509v3 Key Usage: critical
                Digital Signature, Key Encipherment
            X509v3 Basic Constraints: 
                CA:FALSE
            X509v3 Extended Key Usage: 
                TLS Web Server Authentication, TLS Web Client Authentication
            X509v3 Subject Key Identifier: 
                B8:A0:BA:78:BC:41:2F:D2:93:10:40:B2:B9:BB:BF:63:22:1E:B0:CA
            X509v3 Authority Key Identifier: 
                30:81:05:C9:07:09:3A:DB:F6:A0:B9:1B:C6:C5:8D:FC:D2:23:D2:B6
            X509v3 Subject Alternative Name: 
                DNS:www.lab5.ca, DNS:log.lab5.ca, IP Address:127.0.0.1, IP Address:10.99.99.100
    Signature Algorithm: sha256WithRSAEncryption
    Signature Value:
        1c:67:70:f0:18:9f:25:77:85:17:60:c9:5e:ac:bd:d7:3e:b4:
        b5:10:ae:b8:95:2a:ad:6a:33:c9:58:28:90:7c:92:a7:74:50:
        24:ab:10:6a:e1:f0:9c:32:db:1a:8f:72:de:75:d5:ba:cc:31:
        b3:d8:64:1a:4f:ed:9a:c5:29:9f:b8:bc:9f:76:d1:00:d7:59:
        47:d5:a3:21:7d:44:83:46:be:27:df:e8:39:1c:9a:0c:d8:65:
        ff:51:83:b2:d5:dc:32:66:51:2a:78:c3:1f:5d:3b:08:10:f7:
        84:cb:c0:d9:cc:85:25:8b:20:e9:d8:a0:ee:e0:7e:92:d8:cd:
        57:97:a2:2d:af:8a:97:71:68:b7:f4:52:4f:3b:e6:af:eb:b9:
        db:49:97:74:16:66:dd:20:f0:92:94:b7:12:63:3e:75:77:0b:
        26:04:d6:1a:e7:3f:5d:13:31:ba:39:2d:8c:e4:df:55:ca:32:
        9a:cd:84:99:00:17:d6:d1:5e:6b:53:85:2e:d5:9e:0c:d2:b7:
        51:83:cf:12:7c:b4:0e:e7:28:c1:35:b4:26:89:a6:0a:8f:f9:
        20:4a:ac:4d:81:03:e3:8e:2c:4d:26:58:2d:1e:ca:da:46:12:
        26:bc:2f:d4:e9:17:47:ec:5c:f4:47:c9:9c:4b:a4:59:b9:14:
        af:80:ca:43
-----BEGIN CERTIFICATE-----
MIIEHTCCAwWgAwIBAgIBBDANBgkqhkiG9w0BAQsFADCBgTESMBAGCgmSJomT8ixk
ARkWAmNhMRQwEgYKCZImiZPyLGQBGRYEbGFiNTEZMBcGA1UECgwQTGFiNSBEZXZP
cHMgSW5jLjEUMBIGA1UECwwLd3d3LmxhYjUuY2ExJDAiBgNVBAMMG0xhYjUgRGV2
T3BzIEluYy4gSXNzdWluZyBDQTAeFw0yMjExMDIxNjQ4MDVaFw0yNDExMDExNjQ4
MDVaMHExEjAQBgoJkiaJk/IsZAEZFgJjYTEUMBIGCgmSJomT8ixkARkWBGxhYjUx
GTAXBgNVBAoMEExhYjUgRGV2T3BzIEluYy4xFDASBgNVBAsMC3d3dy5sYWI1LmNh
MRQwEgYDVQQDDAt3d3cubGFiNS5jYTCCASIwDQYJKoZIhvcNAQEBBQADggEPADCC
AQoCggEBAJSGSlGEO2msFigOVCrXplBg+C9mD9Q97Drc8n9IUZwAj4xAycnbvbVf
Ab4d6SsLlCfbfaYQyAJj+hglGWmD/PsK0QUzTMOZqEGmGdTcwxdznAVFP4I+/k7K
xsPOBAEp+3VWjku/nN+inEDIhAd1VrQTQLlL5CQGUOouAb/uAgBYa7Cr1IP+wWrg
D1zrMR5BS1FdhCTrwq7UTJlgKIODacrtfeh7elC8/vVUeIb/ZHgLy5swPV3igZ1T
Ub6D0ibIZd4E7YuSRVlyh/mCERE9QYWJAvlAk9V5+STd2M9N+VWBsUSmNBsHjnvT
MS8DJYlm9qEo/BMdQxxxCTN1D/+dToMCAwEAAaOBrjCBqzAOBgNVHQ8BAf8EBAMC
BaAwCQYDVR0TBAIwADAdBgNVHSUEFjAUBggrBgEFBQcDAQYIKwYBBQUHAwIwHQYD
VR0OBBYEFLiguni8QS/SkxBAsrm7v2MiHrDKMB8GA1UdIwQYMBaAFDCBBckHCTrb
9qC5G8bFjfzSI9K2MC8GA1UdEQQoMCaCC3d3dy5sYWI1LmNhggtsb2cubGFiNS5j
YYcEfwAAAYcECmNjZDANBgkqhkiG9w0BAQsFAAOCAQEAHGdw8BifJXeFF2DJXqy9
1z60tRCuuJUqrWozyVgokHySp3RQJKsQauHwnDLbGo9y3nXVuswxs9hkGk/tmsUp
n7i8n3bRANdZR9WjIX1Eg0a+J9/oORyaDNhl/1GDstXcMmZRKnjDH107CBD3hMvA
2cyFJYsg6dig7uB+ktjNV5eiLa+Kl3Fot/RSTzvmr+u520mXdBZm3SDwkpS3EmM+
dXcLJgTWGuc/XRMxujktjOTfVcoyms2EmQAX1tFea1OFLtWeDNK3UYPPEny0Duco
wTW0JommCo/5IEqsTYED444sTSZYLR7K2kYSJrwv1OkXR+xc9EfJnEukWbkUr4DK
Qw==
-----END CERTIFICATE-----
