Certificate:
    Data:
        Version: 3 (0x2)
        Serial Number: 1 (0x1)
        Signature Algorithm: sha256WithRSAEncryption
        Issuer: DC=ca, DC=lab5, O=Lab5 DevOps Inc., OU=www.lab5.ca, CN=Lab5 DevOps Inc. Root CA
        Validity
            Not Before: Dec  5 01:03:40 2022 GMT
            Not After : Dec  4 01:03:40 2032 GMT
        Subject: DC=ca, DC=lab5, O=Lab5 DevOps Inc., OU=www.lab5.ca, CN=Lab5 DevOps Inc. Root CA
        Subject Public Key Info:
            Public Key Algorithm: rsaEncryption
                Public-Key: (2048 bit)
                Modulus:
                    00:da:5d:05:27:15:bd:4e:5f:2e:d6:f2:5f:e3:72:
                    12:6e:81:23:db:4c:9a:c1:70:24:13:2a:5c:de:d4:
                    7b:75:bc:77:d4:7e:7d:6e:ee:6a:36:68:4d:46:0d:
                    09:ae:03:35:ad:f1:40:8a:4a:86:3e:07:a2:a5:d7:
                    90:5d:3e:af:ac:c4:05:47:45:25:22:fe:3a:fb:33:
                    0b:6d:80:12:bf:e8:44:7c:af:be:39:47:91:de:22:
                    58:31:16:e8:37:b6:0e:23:d7:c3:14:70:47:fd:c7:
                    cd:a8:7b:20:78:0c:01:1e:dd:be:91:49:1a:73:89:
                    a9:f2:2d:51:5b:2b:a1:03:f9:aa:7a:c9:e8:35:17:
                    dd:31:e2:2e:bc:43:6e:34:b5:ee:45:b7:b1:66:e0:
                    54:2b:d9:08:8b:e6:a5:95:f4:c4:cd:fd:b1:ff:a4:
                    d1:a1:98:53:37:37:a2:ef:bf:36:a5:9d:e6:76:75:
                    68:08:19:bc:eb:2a:fa:52:2c:03:f6:d2:c0:3a:81:
                    66:39:44:0a:c4:e7:37:1c:27:5e:f1:a4:c6:70:0d:
                    90:4b:45:13:fd:fa:74:ce:0c:2e:2c:c4:d9:56:9f:
                    cd:3f:37:12:76:d5:d1:7f:60:61:f0:75:92:66:94:
                    f8:44:0c:13:82:2a:78:f3:69:08:e0:85:0d:b8:79:
                    b5:35
                Exponent: 65537 (0x10001)
        X509v3 extensions:
            X509v3 Key Usage: critical
                Certificate Sign, CRL Sign
            X509v3 Basic Constraints: critical
                CA:TRUE
            X509v3 Subject Key Identifier: 
                38:A4:66:CF:B4:F0:8E:DF:05:B3:36:F3:88:A8:22:7E:FA:64:E9:12
            X509v3 Authority Key Identifier: 
                38:A4:66:CF:B4:F0:8E:DF:05:B3:36:F3:88:A8:22:7E:FA:64:E9:12
    Signature Algorithm: sha256WithRSAEncryption
    Signature Value:
        9c:a4:5e:4e:e5:fd:f5:94:6d:46:8d:cb:b4:3f:7e:3b:28:01:
        ec:26:cb:ad:61:8b:3e:20:f2:fb:bd:2d:7b:2b:fe:7e:02:73:
        79:6c:97:4c:08:41:29:5b:07:fb:f9:0b:8a:1b:d9:3c:8a:be:
        65:01:21:3e:5d:a1:93:03:39:32:7f:2b:cb:9e:bc:19:6e:13:
        71:24:06:fa:99:bf:01:b7:4c:0e:94:00:43:a6:06:e1:c7:b8:
        ec:e1:25:01:c3:c0:46:f8:9f:c0:50:b4:bf:80:cf:4a:8d:70:
        9c:dc:c6:bd:5b:4e:64:5e:5a:be:70:df:91:b6:16:98:08:0d:
        d2:cd:47:65:11:70:37:d7:a0:4b:69:c3:25:35:1c:01:17:d8:
        47:50:aa:2a:27:63:74:32:01:db:78:f2:78:04:54:ca:13:7b:
        67:ee:cd:fa:3f:20:f4:ba:33:55:22:f6:8a:0d:ab:26:ec:73:
        e8:dd:11:07:74:f6:19:86:5e:89:00:27:e8:31:f1:68:5e:b0:
        12:13:1c:77:f4:37:04:dd:15:db:35:6c:39:7e:8a:4d:e6:d0:
        b4:67:49:e1:9d:bb:49:8c:e7:01:ea:59:f6:67:b4:61:65:d1:
        c0:c6:bb:71:f6:0c:43:6c:32:f6:7d:34:21:57:94:c1:48:35:
        28:35:46:64
-----BEGIN CERTIFICATE-----
MIID2jCCAsKgAwIBAgIBATANBgkqhkiG9w0BAQsFADB+MRIwEAYKCZImiZPyLGQB
GRYCY2ExFDASBgoJkiaJk/IsZAEZFgRsYWI1MRkwFwYDVQQKDBBMYWI1IERldk9w
cyBJbmMuMRQwEgYDVQQLDAt3d3cubGFiNS5jYTEhMB8GA1UEAwwYTGFiNSBEZXZP
cHMgSW5jLiBSb290IENBMB4XDTIyMTIwNTAxMDM0MFoXDTMyMTIwNDAxMDM0MFow
fjESMBAGCgmSJomT8ixkARkWAmNhMRQwEgYKCZImiZPyLGQBGRYEbGFiNTEZMBcG
A1UECgwQTGFiNSBEZXZPcHMgSW5jLjEUMBIGA1UECwwLd3d3LmxhYjUuY2ExITAf
BgNVBAMMGExhYjUgRGV2T3BzIEluYy4gUm9vdCBDQTCCASIwDQYJKoZIhvcNAQEB
BQADggEPADCCAQoCggEBANpdBScVvU5fLtbyX+NyEm6BI9tMmsFwJBMqXN7Ue3W8
d9R+fW7uajZoTUYNCa4DNa3xQIpKhj4HoqXXkF0+r6zEBUdFJSL+OvszC22AEr/o
RHyvvjlHkd4iWDEW6De2DiPXwxRwR/3Hzah7IHgMAR7dvpFJGnOJqfItUVsroQP5
qnrJ6DUX3THiLrxDbjS17kW3sWbgVCvZCIvmpZX0xM39sf+k0aGYUzc3ou+/NqWd
5nZ1aAgZvOsq+lIsA/bSwDqBZjlECsTnNxwnXvGkxnANkEtFE/36dM4MLizE2Vaf
zT83EnbV0X9gYfB1kmaU+EQME4IqePNpCOCFDbh5tTUCAwEAAaNjMGEwDgYDVR0P
AQH/BAQDAgEGMA8GA1UdEwEB/wQFMAMBAf8wHQYDVR0OBBYEFDikZs+08I7fBbM2
84ioIn76ZOkSMB8GA1UdIwQYMBaAFDikZs+08I7fBbM284ioIn76ZOkSMA0GCSqG
SIb3DQEBCwUAA4IBAQCcpF5O5f31lG1Gjcu0P347KAHsJsutYYs+IPL7vS17K/5+
AnN5bJdMCEEpWwf7+QuKG9k8ir5lASE+XaGTAzkyfyvLnrwZbhNxJAb6mb8Bt0wO
lABDpgbhx7js4SUBw8BG+J/AULS/gM9KjXCc3Ma9W05kXlq+cN+RthaYCA3SzUdl
EXA316BLacMlNRwBF9hHUKoqJ2N0MgHbePJ4BFTKE3tn7s36PyD0ujNVIvaKDasm
7HPo3REHdPYZhl6JACfoMfFoXrASExx39DcE3RXbNWw5fopN5tC0Z0nhnbtJjOcB
6ln2Z7RhZdHAxrtx9gxDbDL2fTQhV5TBSDUoNUZk
-----END CERTIFICATE-----
Certificate:
    Data:
        Version: 3 (0x2)
        Serial Number: 2 (0x2)
        Signature Algorithm: sha256WithRSAEncryption
        Issuer: DC=ca, DC=lab5, O=Lab5 DevOps Inc., OU=www.lab5.ca, CN=Lab5 DevOps Inc. Root CA
        Validity
            Not Before: Dec  5 01:03:43 2022 GMT
            Not After : Dec  4 01:03:43 2032 GMT
        Subject: DC=ca, DC=lab5, O=Lab5 DevOps Inc., OU=www.lab5.ca, CN=Lab5 DevOps Inc. Issuing CA
        Subject Public Key Info:
            Public Key Algorithm: rsaEncryption
                Public-Key: (2048 bit)
                Modulus:
                    00:a5:7d:f5:a9:8e:d2:d4:4b:8f:de:ec:12:b3:3f:
                    c9:0a:43:ba:1c:f3:34:f1:61:e7:f6:60:1a:0a:20:
                    4c:b1:4d:1d:0d:89:2a:01:22:db:f7:e7:90:70:b0:
                    08:42:79:eb:9f:19:f5:c2:e1:fc:10:08:54:2e:14:
                    a9:a0:6d:7a:45:21:74:b6:af:6b:fc:9a:4e:33:72:
                    f5:28:a0:c2:66:70:46:7e:02:80:a5:fe:ef:08:80:
                    d5:13:d1:c5:8e:8b:ab:cb:70:ba:cd:ff:af:85:4d:
                    93:77:2b:37:7a:93:d9:a2:86:b4:f8:6c:f7:3f:cb:
                    8b:0b:23:ac:16:d4:61:bc:e4:01:61:d0:99:e0:20:
                    2d:aa:6b:19:bb:60:de:81:cd:84:ee:5d:70:02:cd:
                    54:8e:bf:68:d8:15:ae:23:ff:ed:2b:55:42:59:ce:
                    9b:62:d9:6d:de:08:c1:c6:73:4d:24:55:f9:4a:67:
                    d5:ad:3d:55:c0:76:d9:4a:fc:ad:fb:8e:af:64:c1:
                    59:99:a8:d0:04:cb:08:4d:fd:28:99:f0:10:75:97:
                    fb:07:81:56:1d:d5:35:16:58:9a:2f:03:8a:ae:c4:
                    52:84:0e:fa:2b:7a:ab:4a:2f:d2:8b:30:49:c7:d7:
                    75:6a:50:e2:eb:d3:b5:be:1e:1b:3a:1c:19:b9:b4:
                    9b:b3
                Exponent: 65537 (0x10001)
        X509v3 extensions:
            X509v3 Key Usage: critical
                Certificate Sign, CRL Sign
            X509v3 Basic Constraints: critical
                CA:TRUE, pathlen:0
            X509v3 Subject Key Identifier: 
                89:61:37:79:3F:57:57:EA:FD:27:47:F7:26:19:9E:2A:6B:EB:71:2D
            X509v3 Authority Key Identifier: 
                38:A4:66:CF:B4:F0:8E:DF:05:B3:36:F3:88:A8:22:7E:FA:64:E9:12
    Signature Algorithm: sha256WithRSAEncryption
    Signature Value:
        1c:98:2c:aa:2d:7f:4f:48:9d:16:86:2a:9e:33:10:c9:c4:b8:
        19:65:5a:ab:42:62:47:4a:cf:d8:85:cf:47:3a:01:7e:ca:58:
        dd:2e:4a:65:cc:c6:0a:ca:dc:0e:71:ca:b6:07:2a:a3:d3:b9:
        40:ba:00:27:59:bd:1c:4a:32:02:57:65:65:16:de:1d:89:5f:
        e4:77:f2:77:7d:8a:f3:d2:73:3e:ce:2a:dd:a3:f7:9f:e4:90:
        d3:30:cd:49:40:ac:d5:98:e6:65:7e:35:a8:5c:ae:42:4c:74:
        ee:d7:20:dd:66:cd:24:10:80:8e:8e:a7:62:8a:94:76:4c:c9:
        a8:40:17:a4:01:b7:bd:7e:fd:ba:8e:5b:2e:8d:af:9b:47:cd:
        b8:05:27:40:a3:a3:8a:cf:87:0c:5c:d1:3b:b2:83:2f:92:8f:
        34:91:96:79:c8:33:73:77:29:11:c2:1b:92:4a:ac:ad:51:94:
        db:e1:4d:c1:b6:33:e1:76:3e:59:36:50:be:98:65:0a:b9:4a:
        02:75:51:9d:cd:11:20:e1:83:c6:b8:55:ed:39:1f:f1:9c:de:
        8d:ee:08:de:35:ba:47:5f:07:6e:44:08:d7:ef:e0:86:71:95:
        e0:06:8d:10:11:64:68:99:5b:50:1b:a8:bc:54:18:0c:ac:d5:
        75:3c:48:e4
-----BEGIN CERTIFICATE-----
MIID4TCCAsmgAwIBAgIBAjANBgkqhkiG9w0BAQsFADB+MRIwEAYKCZImiZPyLGQB
GRYCY2ExFDASBgoJkiaJk/IsZAEZFgRsYWI1MRkwFwYDVQQKDBBMYWI1IERldk9w
cyBJbmMuMRQwEgYDVQQLDAt3d3cubGFiNS5jYTEhMB8GA1UEAwwYTGFiNSBEZXZP
cHMgSW5jLiBSb290IENBMB4XDTIyMTIwNTAxMDM0M1oXDTMyMTIwNDAxMDM0M1ow
gYExEjAQBgoJkiaJk/IsZAEZFgJjYTEUMBIGCgmSJomT8ixkARkWBGxhYjUxGTAX
BgNVBAoMEExhYjUgRGV2T3BzIEluYy4xFDASBgNVBAsMC3d3dy5sYWI1LmNhMSQw
IgYDVQQDDBtMYWI1IERldk9wcyBJbmMuIElzc3VpbmcgQ0EwggEiMA0GCSqGSIb3
DQEBAQUAA4IBDwAwggEKAoIBAQClffWpjtLUS4/e7BKzP8kKQ7oc8zTxYef2YBoK
IEyxTR0NiSoBItv355BwsAhCeeufGfXC4fwQCFQuFKmgbXpFIXS2r2v8mk4zcvUo
oMJmcEZ+AoCl/u8IgNUT0cWOi6vLcLrN/6+FTZN3Kzd6k9mihrT4bPc/y4sLI6wW
1GG85AFh0JngIC2qaxm7YN6BzYTuXXACzVSOv2jYFa4j/+0rVUJZzpti2W3eCMHG
c00kVflKZ9WtPVXAdtlK/K37jq9kwVmZqNAEywhN/SiZ8BB1l/sHgVYd1TUWWJov
A4quxFKEDvoreqtKL9KLMEnH13VqUOLr07W+Hhs6HBm5tJuzAgMBAAGjZjBkMA4G
A1UdDwEB/wQEAwIBBjASBgNVHRMBAf8ECDAGAQH/AgEAMB0GA1UdDgQWBBSJYTd5
P1dX6v0nR/cmGZ4qa+txLTAfBgNVHSMEGDAWgBQ4pGbPtPCO3wWzNvOIqCJ++mTp
EjANBgkqhkiG9w0BAQsFAAOCAQEAHJgsqi1/T0idFoYqnjMQycS4GWVaq0JiR0rP
2IXPRzoBfspY3S5KZczGCsrcDnHKtgcqo9O5QLoAJ1m9HEoyAldlZRbeHYlf5Hfy
d32K89JzPs4q3aP3n+SQ0zDNSUCs1ZjmZX41qFyuQkx07tcg3WbNJBCAjo6nYoqU
dkzJqEAXpAG3vX79uo5bLo2vm0fNuAUnQKOjis+HDFzRO7KDL5KPNJGWecgzc3cp
EcIbkkqsrVGU2+FNwbYz4XY+WTZQvphlCrlKAnVRnc0RIOGDxrhV7Tkf8Zzeje4I
3jW6R18HbkQI1+/ghnGV4AaNEBFkaJlbUBuovFQYDKzVdTxI5A==
-----END CERTIFICATE-----
