Certificate:
    Data:
        Version: 3 (0x2)
        Serial Number: 1 (0x1)
        Signature Algorithm: sha256WithRSAEncryption
        Issuer: DC=ca, DC=lab5, O=Lab5 DevOps Inc., OU=www.lab5.ca, CN=Root CA G1
        Validity
            Not Before: May  8 12:16:40 2022 GMT
            Not After : May  7 12:16:40 2032 GMT
        Subject: DC=ca, DC=lab5, O=Lab5 DevOps Inc., OU=www.lab5.ca, CN=Root CA G1
        Subject Public Key Info:
            Public Key Algorithm: rsaEncryption
                RSA Public-Key: (2048 bit)
                Modulus:
                    00:a1:87:fd:69:3b:3d:eb:ef:2d:7b:ee:9a:e5:6f:
                    d7:f2:64:f2:7c:00:98:f6:eb:c3:3a:95:d4:fc:17:
                    89:7c:e3:d5:4a:16:cc:60:f1:48:5a:1b:36:1d:07:
                    59:91:77:c6:aa:92:7a:4c:54:6b:3d:1e:e7:2a:3d:
                    bc:1e:6f:6a:1a:22:2d:28:1b:d4:44:2f:83:35:b7:
                    da:94:30:aa:9d:4d:0b:1f:cc:11:06:89:d3:c7:60:
                    3a:71:c4:84:c9:13:ed:24:55:2f:55:a3:06:0e:b6:
                    b4:63:7d:6e:0f:98:70:f0:c0:e3:71:dd:c0:70:98:
                    3e:d8:58:57:b4:b8:ed:6f:66:4c:81:f8:f8:b6:3b:
                    c9:a8:0a:1e:81:32:1a:41:3f:76:af:5a:75:1c:c0:
                    21:e4:e2:7d:20:85:f5:ef:ab:d9:c9:56:57:14:a5:
                    f2:7f:d3:62:77:af:2d:40:52:8f:58:e7:48:33:4e:
                    3e:53:18:f9:87:b8:5a:c8:ae:b2:f3:70:a3:26:93:
                    ae:d9:70:e2:19:0c:cb:0f:0b:0f:08:2c:5c:68:72:
                    88:0e:a5:78:8f:1f:11:fc:3b:25:df:42:3a:59:63:
                    8f:d6:97:78:2a:02:05:00:41:3c:17:f9:73:db:c7:
                    7f:57:42:97:6f:d0:b5:82:c4:f9:39:c6:65:99:ee:
                    99:7f
                Exponent: 65537 (0x10001)
        X509v3 extensions:
            X509v3 Key Usage: critical
                Certificate Sign, CRL Sign
            X509v3 Basic Constraints: critical
                CA:TRUE
            X509v3 Subject Key Identifier: 
                FF:FB:29:0F:F2:85:D6:B5:69:7C:AB:9A:E5:55:C4:D6:F3:70:63:51
            X509v3 Authority Key Identifier: 
                keyid:FF:FB:29:0F:F2:85:D6:B5:69:7C:AB:9A:E5:55:C4:D6:F3:70:63:51

    Signature Algorithm: sha256WithRSAEncryption
         1c:bb:88:0e:0d:43:04:47:d1:34:00:a5:0c:4e:76:2e:da:24:
         4c:ff:e8:7f:bb:9b:ec:a2:22:62:ff:07:a1:e2:83:f1:d8:93:
         da:ff:d1:6e:41:36:21:23:11:f0:14:9e:41:f7:72:d9:0e:f5:
         71:95:0b:f2:5e:0e:c2:5c:83:32:82:e5:b6:74:23:46:2b:d4:
         f2:1b:d4:76:5a:05:65:a5:ac:59:c7:d4:af:a8:6b:6e:a3:ef:
         d3:ae:df:8b:87:2a:ed:c8:a0:26:b0:ed:35:35:8e:56:e3:51:
         58:4d:20:68:7e:fa:1d:ec:9c:fe:28:c7:4a:83:48:f8:b2:d5:
         8a:69:7d:4e:fb:36:86:ff:69:3d:31:15:f4:8c:04:41:ab:38:
         70:a0:41:50:9e:6f:b3:98:f4:ee:c6:63:fe:6c:38:35:e0:77:
         3e:f8:ba:76:13:a4:74:78:fe:d1:88:a3:88:d5:4c:fa:3c:89:
         1f:51:45:bb:a3:55:ab:9a:28:9e:a9:73:d9:2b:ce:1a:63:c9:
         01:12:6a:f3:fb:79:ad:90:c7:18:80:f0:fb:86:0c:9d:be:36:
         a8:2a:ef:5d:ff:ff:30:e8:38:b1:d5:98:61:06:1c:95:ec:b3:
         cd:29:5f:6c:6a:02:71:ee:e4:d7:10:46:65:9a:00:d9:c9:0b:
         5c:a2:46:54
-----BEGIN CERTIFICATE-----
MIIDvjCCAqagAwIBAgIBATANBgkqhkiG9w0BAQsFADBwMRIwEAYKCZImiZPyLGQB
GRYCY2ExFDASBgoJkiaJk/IsZAEZFgRsYWI1MRkwFwYDVQQKDBBMYWI1IERldk9w
cyBJbmMuMRQwEgYDVQQLDAt3d3cubGFiNS5jYTETMBEGA1UEAwwKUm9vdCBDQSBH
MTAeFw0yMjA1MDgxMjE2NDBaFw0zMjA1MDcxMjE2NDBaMHAxEjAQBgoJkiaJk/Is
ZAEZFgJjYTEUMBIGCgmSJomT8ixkARkWBGxhYjUxGTAXBgNVBAoMEExhYjUgRGV2
T3BzIEluYy4xFDASBgNVBAsMC3d3dy5sYWI1LmNhMRMwEQYDVQQDDApSb290IENB
IEcxMIIBIjANBgkqhkiG9w0BAQEFAAOCAQ8AMIIBCgKCAQEAoYf9aTs96+8te+6a
5W/X8mTyfACY9uvDOpXU/BeJfOPVShbMYPFIWhs2HQdZkXfGqpJ6TFRrPR7nKj28
Hm9qGiItKBvURC+DNbfalDCqnU0LH8wRBonTx2A6ccSEyRPtJFUvVaMGDra0Y31u
D5hw8MDjcd3AcJg+2FhXtLjtb2ZMgfj4tjvJqAoegTIaQT92r1p1HMAh5OJ9IIX1
76vZyVZXFKXyf9Nid68tQFKPWOdIM04+Uxj5h7hayK6y83CjJpOu2XDiGQzLDwsP
CCxcaHKIDqV4jx8R/Dsl30I6WWOP1pd4KgIFAEE8F/lz28d/V0KXb9C1gsT5OcZl
me6ZfwIDAQABo2MwYTAOBgNVHQ8BAf8EBAMCAQYwDwYDVR0TAQH/BAUwAwEB/zAd
BgNVHQ4EFgQU//spD/KF1rVpfKua5VXE1vNwY1EwHwYDVR0jBBgwFoAU//spD/KF
1rVpfKua5VXE1vNwY1EwDQYJKoZIhvcNAQELBQADggEBABy7iA4NQwRH0TQApQxO
di7aJEz/6H+7m+yiImL/B6Hig/HYk9r/0W5BNiEjEfAUnkH3ctkO9XGVC/JeDsJc
gzKC5bZ0I0Yr1PIb1HZaBWWlrFnH1K+oa26j79Ou34uHKu3IoCaw7TU1jlbjUVhN
IGh++h3snP4ox0qDSPiy1YppfU77Nob/aT0xFfSMBEGrOHCgQVCeb7OY9O7GY/5s
ODXgdz74unYTpHR4/tGIo4jVTPo8iR9RRbujVauaKJ6pc9krzhpjyQESavP7ea2Q
xxiA8PuGDJ2+Nqgq713//zDoOLHVmGEGHJXss80pX2xqAnHu5NcQRmWaANnJC1yi
RlQ=
-----END CERTIFICATE-----
Certificate:
    Data:
        Version: 3 (0x2)
        Serial Number: 2 (0x2)
        Signature Algorithm: sha256WithRSAEncryption
        Issuer: DC=ca, DC=lab5, O=Lab5 DevOps Inc., OU=www.lab5.ca, CN=Root CA G1
        Validity
            Not Before: May  8 12:16:46 2022 GMT
            Not After : May  7 12:16:46 2032 GMT
        Subject: DC=ca, DC=lab5, O=Lab5 DevOps Inc., OU=www.lab5.ca, CN=Issuing CA G1
        Subject Public Key Info:
            Public Key Algorithm: rsaEncryption
                RSA Public-Key: (2048 bit)
                Modulus:
                    00:c5:4e:9c:be:7e:bf:5a:77:ce:cd:a8:5a:76:28:
                    6f:c4:19:41:ab:35:11:18:8a:e1:d0:28:f0:d4:50:
                    0a:4f:5c:9b:ac:59:45:7b:65:74:ce:be:b2:e0:c7:
                    20:45:46:a8:e2:db:8a:5a:bd:45:db:77:57:0c:80:
                    98:46:8a:27:d5:63:cc:4e:11:37:1e:df:66:42:8c:
                    e6:9e:31:27:8f:d7:44:1d:63:a2:bc:c3:0e:ba:53:
                    6b:9d:a9:4b:f0:6a:b3:25:6f:f4:c5:de:1f:a2:aa:
                    ec:ae:5d:d0:04:00:47:9c:ca:93:79:6f:fd:19:72:
                    96:cf:d8:29:d0:b4:93:e2:df:a3:3e:96:f7:cf:ac:
                    14:c1:f9:2f:d6:cd:4c:bb:57:a8:ba:7a:ae:4f:7a:
                    fe:c0:16:1a:60:39:e6:7b:62:8c:48:74:82:1b:68:
                    21:93:78:f7:21:ab:2b:5f:6c:83:40:09:f7:bc:53:
                    9d:83:33:4f:3e:40:e3:7b:3b:cc:78:66:77:6c:2b:
                    a0:62:b0:bc:6b:cd:3d:dd:c4:9e:4c:32:cc:7d:9a:
                    29:d3:9c:ef:7f:e4:73:b2:de:cf:b0:ec:f8:5b:50:
                    bf:f6:68:65:b5:04:ec:10:8b:2d:9d:fe:f4:97:f3:
                    7a:ad:a8:c1:c4:d3:af:0a:68:ca:dd:5c:61:ed:1e:
                    84:2f
                Exponent: 65537 (0x10001)
        X509v3 extensions:
            X509v3 Key Usage: critical
                Certificate Sign, CRL Sign
            X509v3 Basic Constraints: critical
                CA:TRUE, pathlen:0
            X509v3 Subject Key Identifier: 
                E4:AD:2E:FB:7A:34:78:C0:E2:EA:0B:91:77:18:CE:78:91:74:1B:E3
            X509v3 Authority Key Identifier: 
                keyid:FF:FB:29:0F:F2:85:D6:B5:69:7C:AB:9A:E5:55:C4:D6:F3:70:63:51

    Signature Algorithm: sha256WithRSAEncryption
         73:51:09:27:e3:58:c4:b0:d9:de:ce:81:8d:87:9a:f2:28:cc:
         21:45:9e:88:0a:fd:c3:77:cc:3f:15:af:fc:78:0e:da:52:0e:
         e9:72:dd:b1:bb:3e:e2:5d:dd:ed:e5:73:e4:14:77:5a:fb:26:
         23:1b:19:0d:f2:8c:71:7f:4d:ff:59:b8:64:1f:56:61:63:c5:
         ed:79:b4:75:9a:59:3b:20:79:78:58:1f:52:49:ed:39:75:8b:
         46:03:8c:1a:a9:f7:e4:ac:e6:ca:bd:1d:0c:c9:b8:58:de:e5:
         b3:a5:7e:5b:22:2e:8e:8c:a1:f9:14:2d:87:a3:64:51:a3:a0:
         b2:59:de:5b:cf:c7:02:30:64:da:e9:6e:5d:c8:f1:33:61:2c:
         8e:c3:40:1f:6e:d4:5f:77:c3:33:7c:6c:b6:fd:be:27:22:3c:
         ec:d2:65:4d:99:b5:0f:d4:a2:cd:09:97:4f:67:cd:ad:1e:c9:
         b3:7b:58:cb:98:83:7b:2d:08:43:ba:f6:32:26:93:e0:01:c6:
         9b:6c:24:90:71:15:fe:61:fa:b6:d5:d9:76:34:1f:4e:05:3c:
         fd:85:dd:8f:80:3d:b1:06:2c:ee:a6:39:42:8d:c7:90:da:b2:
         83:1d:1e:cc:c3:5a:86:e3:08:32:80:b7:33:f2:69:e0:8c:2e:
         ad:43:82:fc
-----BEGIN CERTIFICATE-----
MIIDxDCCAqygAwIBAgIBAjANBgkqhkiG9w0BAQsFADBwMRIwEAYKCZImiZPyLGQB
GRYCY2ExFDASBgoJkiaJk/IsZAEZFgRsYWI1MRkwFwYDVQQKDBBMYWI1IERldk9w
cyBJbmMuMRQwEgYDVQQLDAt3d3cubGFiNS5jYTETMBEGA1UEAwwKUm9vdCBDQSBH
MTAeFw0yMjA1MDgxMjE2NDZaFw0zMjA1MDcxMjE2NDZaMHMxEjAQBgoJkiaJk/Is
ZAEZFgJjYTEUMBIGCgmSJomT8ixkARkWBGxhYjUxGTAXBgNVBAoMEExhYjUgRGV2
T3BzIEluYy4xFDASBgNVBAsMC3d3dy5sYWI1LmNhMRYwFAYDVQQDDA1Jc3N1aW5n
IENBIEcxMIIBIjANBgkqhkiG9w0BAQEFAAOCAQ8AMIIBCgKCAQEAxU6cvn6/WnfO
zahadihvxBlBqzURGIrh0Cjw1FAKT1ybrFlFe2V0zr6y4McgRUao4tuKWr1F23dX
DICYRoon1WPMThE3Ht9mQozmnjEnj9dEHWOivMMOulNrnalL8GqzJW/0xd4foqrs
rl3QBABHnMqTeW/9GXKWz9gp0LST4t+jPpb3z6wUwfkv1s1Mu1eounquT3r+wBYa
YDnme2KMSHSCG2ghk3j3IasrX2yDQAn3vFOdgzNPPkDjezvMeGZ3bCugYrC8a809
3cSeTDLMfZop05zvf+Rzst7PsOz4W1C/9mhltQTsEIstnf70l/N6rajBxNOvCmjK
3Vxh7R6ELwIDAQABo2YwZDAOBgNVHQ8BAf8EBAMCAQYwEgYDVR0TAQH/BAgwBgEB
/wIBADAdBgNVHQ4EFgQU5K0u+3o0eMDi6guRdxjOeJF0G+MwHwYDVR0jBBgwFoAU
//spD/KF1rVpfKua5VXE1vNwY1EwDQYJKoZIhvcNAQELBQADggEBAHNRCSfjWMSw
2d7OgY2HmvIozCFFnogK/cN3zD8Vr/x4DtpSDuly3bG7PuJd3e3lc+QUd1r7JiMb
GQ3yjHF/Tf9ZuGQfVmFjxe15tHWaWTsgeXhYH1JJ7Tl1i0YDjBqp9+Ss5sq9HQzJ
uFje5bOlflsiLo6MofkULYejZFGjoLJZ3lvPxwIwZNrpbl3I8TNhLI7DQB9u1F93
wzN8bLb9viciPOzSZU2ZtQ/Uos0Jl09nza0eybN7WMuYg3stCEO69jImk+ABxpts
JJBxFf5h+rbV2XY0H04FPP2F3Y+APbEGLO6mOUKNx5DasoMdHszDWobjCDKAtzPy
aeCMLq1Dgvw=
-----END CERTIFICATE-----
