Certificate:
    Data:
        Version: 3 (0x2)
        Serial Number: 1 (0x1)
        Signature Algorithm: ED25519
        Issuer: DC=ca, DC=lab5, O=Lab5 DevOps Inc., OU=www.lab5.ca, CN=Lab5 DevOps Inc. Root CA
        Validity
            Not Before: Jun 12 11:39:39 2023 GMT
            Not After : Jun 11 11:39:39 2033 GMT
        Subject: DC=ca, DC=lab5, O=Lab5 DevOps Inc., OU=www.lab5.ca, CN=Lab5 DevOps Inc. Root CA
        Subject Public Key Info:
            Public Key Algorithm: ED25519
                ED25519 Public-Key:
                pub:
                    a1:5f:c2:68:e3:0c:f1:76:be:11:a9:46:fe:83:21:
                    80:08:9b:ff:99:d6:99:8c:b4:0d:73:ef:7e:ce:cf:
                    e8:c0
        X509v3 extensions:
            X509v3 Key Usage: critical
                Certificate Sign, CRL Sign
            X509v3 Basic Constraints: critical
                CA:TRUE
            X509v3 Subject Key Identifier: 
                27:8F:75:E7:AF:E8:2E:EA:39:4C:38:55:67:76:BE:BE:22:32:B5:A8
            X509v3 Authority Key Identifier: 
                27:8F:75:E7:AF:E8:2E:EA:39:4C:38:55:67:76:BE:BE:22:32:B5:A8
    Signature Algorithm: ED25519
    Signature Value:
        7c:57:96:40:ee:41:89:a6:98:f8:59:39:9f:9e:70:e6:02:3d:
        b9:5a:32:f6:77:4b:88:f3:91:01:72:42:b3:4c:e1:41:39:d9:
        dc:16:08:6d:9a:c8:04:93:ab:b1:cd:ae:a7:18:e9:06:04:1d:
        58:24:e1:34:a0:71:18:10:c8:0b
-----BEGIN CERTIFICATE-----
MIICDjCCAcCgAwIBAgIBATAFBgMrZXAwfjESMBAGCgmSJomT8ixkARkWAmNhMRQw
EgYKCZImiZPyLGQBGRYEbGFiNTEZMBcGA1UECgwQTGFiNSBEZXZPcHMgSW5jLjEU
MBIGA1UECwwLd3d3LmxhYjUuY2ExITAfBgNVBAMMGExhYjUgRGV2T3BzIEluYy4g
Um9vdCBDQTAeFw0yMzA2MTIxMTM5MzlaFw0zMzA2MTExMTM5MzlaMH4xEjAQBgoJ
kiaJk/IsZAEZFgJjYTEUMBIGCgmSJomT8ixkARkWBGxhYjUxGTAXBgNVBAoMEExh
YjUgRGV2T3BzIEluYy4xFDASBgNVBAsMC3d3dy5sYWI1LmNhMSEwHwYDVQQDDBhM
YWI1IERldk9wcyBJbmMuIFJvb3QgQ0EwKjAFBgMrZXADIQChX8Jo4wzxdr4RqUb+
gyGACJv/mdaZjLQNc+9+zs/owKNjMGEwDgYDVR0PAQH/BAQDAgEGMA8GA1UdEwEB
/wQFMAMBAf8wHQYDVR0OBBYEFCePdeev6C7qOUw4VWd2vr4iMrWoMB8GA1UdIwQY
MBaAFCePdeev6C7qOUw4VWd2vr4iMrWoMAUGAytlcANBAHxXlkDuQYmmmPhZOZ+e
cOYCPblaMvZ3S4jzkQFyQrNM4UE52dwWCG2ayASTq7HNrqcY6QYEHVgk4TSgcRgQ
yAs=
-----END CERTIFICATE-----
Certificate:
    Data:
        Version: 3 (0x2)
        Serial Number: 2 (0x2)
        Signature Algorithm: ED25519
        Issuer: DC=ca, DC=lab5, O=Lab5 DevOps Inc., OU=www.lab5.ca, CN=Lab5 DevOps Inc. Root CA
        Validity
            Not Before: Jun 12 11:39:41 2023 GMT
            Not After : Jun 11 11:39:41 2033 GMT
        Subject: DC=ca, DC=lab5, O=Lab5 DevOps Inc., OU=www.lab5.ca, CN=Lab5 DevOps Inc. Issuing CA
        Subject Public Key Info:
            Public Key Algorithm: ED25519
                ED25519 Public-Key:
                pub:
                    0f:67:79:d4:ae:a5:a4:4c:6b:52:6c:63:50:5d:0c:
                    a8:16:1e:10:cd:55:57:9e:5b:c4:07:c0:b3:22:b5:
                    a0:80
        X509v3 extensions:
            X509v3 Key Usage: critical
                Certificate Sign, CRL Sign
            X509v3 Basic Constraints: critical
                CA:TRUE, pathlen:0
            X509v3 Subject Key Identifier: 
                DD:B9:17:4D:CE:8A:E1:4F:85:A4:5B:B1:48:D2:1C:E1:AA:C8:1E:1E
            X509v3 Authority Key Identifier: 
                27:8F:75:E7:AF:E8:2E:EA:39:4C:38:55:67:76:BE:BE:22:32:B5:A8
    Signature Algorithm: ED25519
    Signature Value:
        eb:9c:3a:ab:ef:14:d5:c3:91:17:c3:c3:ad:53:56:ae:3a:d3:
        46:6f:30:ba:0b:a6:a1:42:6d:3d:30:0a:13:a3:c2:69:b2:2a:
        02:e1:f1:74:a5:57:54:29:29:b9:e4:f4:85:53:3b:6b:92:1c:
        43:6f:de:d9:ba:ac:ba:c4:90:0e
-----BEGIN CERTIFICATE-----
MIICFTCCAcegAwIBAgIBAjAFBgMrZXAwfjESMBAGCgmSJomT8ixkARkWAmNhMRQw
EgYKCZImiZPyLGQBGRYEbGFiNTEZMBcGA1UECgwQTGFiNSBEZXZPcHMgSW5jLjEU
MBIGA1UECwwLd3d3LmxhYjUuY2ExITAfBgNVBAMMGExhYjUgRGV2T3BzIEluYy4g
Um9vdCBDQTAeFw0yMzA2MTIxMTM5NDFaFw0zMzA2MTExMTM5NDFaMIGBMRIwEAYK
CZImiZPyLGQBGRYCY2ExFDASBgoJkiaJk/IsZAEZFgRsYWI1MRkwFwYDVQQKDBBM
YWI1IERldk9wcyBJbmMuMRQwEgYDVQQLDAt3d3cubGFiNS5jYTEkMCIGA1UEAwwb
TGFiNSBEZXZPcHMgSW5jLiBJc3N1aW5nIENBMCowBQYDK2VwAyEAD2d51K6lpExr
UmxjUF0MqBYeEM1VV55bxAfAsyK1oICjZjBkMA4GA1UdDwEB/wQEAwIBBjASBgNV
HRMBAf8ECDAGAQH/AgEAMB0GA1UdDgQWBBTduRdNzorhT4WkW7FI0hzhqsgeHjAf
BgNVHSMEGDAWgBQnj3Xnr+gu6jlMOFVndr6+IjK1qDAFBgMrZXADQQDrnDqr7xTV
w5EXw8OtU1auOtNGbzC6C6ahQm09MAoTo8JpsioC4fF0pVdUKSm55PSFUztrkhxD
b97Zuqy6xJAO
-----END CERTIFICATE-----
