Certificate:
    Data:
        Version: 3 (0x2)
        Serial Number: 1 (0x1)
        Signature Algorithm: sha256WithRSAEncryption
        Issuer: DC=ca, DC=lab5, O=Lab5 DevOps Inc., OU=www.lab5.ca, CN=Lab5 DevOps Inc. Root CA
        Validity
            Not Before: Dec  5 15:22:58 2022 GMT
            Not After : Dec  4 15:22:58 2032 GMT
        Subject: DC=ca, DC=lab5, O=Lab5 DevOps Inc., OU=www.lab5.ca, CN=Lab5 DevOps Inc. Root CA
        Subject Public Key Info:
            Public Key Algorithm: rsaEncryption
                Public-Key: (2048 bit)
                Modulus:
                    00:bb:e0:57:0a:92:65:ca:0a:34:33:bb:46:e8:88:
                    87:23:ba:18:5f:2c:ca:5b:f9:a4:21:8e:e8:df:af:
                    9d:c6:5f:51:25:23:af:b2:71:a3:08:1f:5b:59:29:
                    00:93:12:4f:6e:9f:ff:c8:92:dc:2c:06:93:65:b9:
                    05:f2:f0:c1:3a:42:c8:48:d9:d5:23:dd:06:10:fb:
                    2f:49:d2:72:c6:5c:af:a5:ad:a3:f6:ad:d6:cf:e0:
                    ad:1a:a5:33:1e:41:7e:67:f2:f2:81:78:98:5c:25:
                    18:ec:0d:c5:e2:d4:47:f4:ce:13:03:a3:a5:84:89:
                    d9:28:42:b8:38:0f:31:9d:5d:17:1b:5c:09:4b:8e:
                    2e:8c:bc:3c:96:9e:fd:26:92:16:af:17:f1:7f:7c:
                    41:4b:2b:77:00:48:d2:4d:bd:be:94:25:9e:ce:ac:
                    09:1a:e8:9d:02:e8:e5:bd:05:cd:88:64:47:b5:4f:
                    65:c7:25:f3:c6:a6:9c:cf:fc:80:0c:1e:1e:e3:9b:
                    fd:68:8f:d9:df:01:1a:be:9f:7a:ec:7f:e7:f3:e0:
                    96:89:78:2c:08:96:50:34:8e:69:32:9e:ab:d1:6b:
                    06:bc:e7:ac:dc:79:7e:58:fb:a1:15:23:bf:55:ca:
                    ba:ec:6d:9c:50:3d:1d:6a:ad:62:62:75:97:e4:bd:
                    33:df
                Exponent: 65537 (0x10001)
        X509v3 extensions:
            X509v3 Key Usage: critical
                Certificate Sign, CRL Sign
            X509v3 Basic Constraints: critical
                CA:TRUE
            X509v3 Subject Key Identifier: 
                A0:8F:B1:EF:AC:D6:FA:8D:15:1D:C2:7E:AC:4B:04:1A:7E:D2:B7:1A
            X509v3 Authority Key Identifier: 
                A0:8F:B1:EF:AC:D6:FA:8D:15:1D:C2:7E:AC:4B:04:1A:7E:D2:B7:1A
    Signature Algorithm: sha256WithRSAEncryption
    Signature Value:
        71:e1:36:7b:f2:92:36:5f:f1:bc:fe:14:ff:d2:dc:3b:08:4d:
        86:d0:92:83:4e:e0:18:e7:55:6e:f9:58:d2:54:f9:ee:6a:4d:
        da:1b:29:e1:3a:a2:02:8f:19:d9:e9:fe:92:52:39:06:0b:01:
        2b:8a:a0:0f:5b:3e:3e:7a:33:ee:67:f2:29:e2:23:89:69:37:
        49:38:36:4c:f4:9f:fe:c8:d1:b1:36:51:00:53:84:d7:e0:e8:
        84:b6:57:bc:92:27:34:1d:6f:14:ae:5b:22:95:3e:11:5f:a6:
        04:0d:b2:ae:64:43:52:8b:f3:e9:7c:7f:b4:13:e1:11:48:02:
        eb:8e:e8:1e:2f:b5:86:19:76:fe:cc:21:ff:11:e2:cd:e0:2a:
        dd:c6:d7:c3:31:06:31:ed:12:e2:ab:0f:0a:88:27:1a:cf:f8:
        f7:22:d4:d7:0e:cb:3f:4b:a4:60:bc:23:18:92:1d:01:f6:4c:
        15:e1:b6:8f:36:c9:0c:8d:92:e3:9e:aa:39:1e:2a:92:65:4e:
        1c:8a:3a:a2:e7:50:16:3d:ea:59:17:db:4d:6b:63:d2:75:d9:
        8a:ea:31:22:31:e1:50:ac:17:e8:23:8e:aa:bd:c5:9a:fc:43:
        aa:b6:ec:3b:4f:5f:28:8c:be:d7:82:2c:db:db:28:ef:59:7c:
        06:f3:c1:7f
-----BEGIN CERTIFICATE-----
MIID2jCCAsKgAwIBAgIBATANBgkqhkiG9w0BAQsFADB+MRIwEAYKCZImiZPyLGQB
GRYCY2ExFDASBgoJkiaJk/IsZAEZFgRsYWI1MRkwFwYDVQQKDBBMYWI1IERldk9w
cyBJbmMuMRQwEgYDVQQLDAt3d3cubGFiNS5jYTEhMB8GA1UEAwwYTGFiNSBEZXZP
cHMgSW5jLiBSb290IENBMB4XDTIyMTIwNTE1MjI1OFoXDTMyMTIwNDE1MjI1OFow
fjESMBAGCgmSJomT8ixkARkWAmNhMRQwEgYKCZImiZPyLGQBGRYEbGFiNTEZMBcG
A1UECgwQTGFiNSBEZXZPcHMgSW5jLjEUMBIGA1UECwwLd3d3LmxhYjUuY2ExITAf
BgNVBAMMGExhYjUgRGV2T3BzIEluYy4gUm9vdCBDQTCCASIwDQYJKoZIhvcNAQEB
BQADggEPADCCAQoCggEBALvgVwqSZcoKNDO7RuiIhyO6GF8sylv5pCGO6N+vncZf
USUjr7JxowgfW1kpAJMST26f/8iS3CwGk2W5BfLwwTpCyEjZ1SPdBhD7L0nScsZc
r6Wto/at1s/grRqlMx5Bfmfy8oF4mFwlGOwNxeLUR/TOEwOjpYSJ2ShCuDgPMZ1d
FxtcCUuOLoy8PJae/SaSFq8X8X98QUsrdwBI0k29vpQlns6sCRronQLo5b0FzYhk
R7VPZccl88amnM/8gAweHuOb/WiP2d8BGr6feux/5/Pglol4LAiWUDSOaTKeq9Fr
BrznrNx5flj7oRUjv1XKuuxtnFA9HWqtYmJ1l+S9M98CAwEAAaNjMGEwDgYDVR0P
AQH/BAQDAgEGMA8GA1UdEwEB/wQFMAMBAf8wHQYDVR0OBBYEFKCPse+s1vqNFR3C
fqxLBBp+0rcaMB8GA1UdIwQYMBaAFKCPse+s1vqNFR3CfqxLBBp+0rcaMA0GCSqG
SIb3DQEBCwUAA4IBAQBx4TZ78pI2X/G8/hT/0tw7CE2G0JKDTuAY51Vu+VjSVPnu
ak3aGynhOqICjxnZ6f6SUjkGCwEriqAPWz4+ejPuZ/Ip4iOJaTdJODZM9J/+yNGx
NlEAU4TX4OiEtle8kic0HW8UrlsilT4RX6YEDbKuZENSi/PpfH+0E+ERSALrjuge
L7WGGXb+zCH/EeLN4CrdxtfDMQYx7RLiqw8KiCcaz/j3ItTXDss/S6RgvCMYkh0B
9kwV4baPNskMjZLjnqo5HiqSZU4cijqi51AWPepZF9tNa2PSddmK6jEiMeFQrBfo
I46qvcWa/EOqtuw7T18ojL7Xgizb2yjvWXwG88F/
-----END CERTIFICATE-----
Certificate:
    Data:
        Version: 3 (0x2)
        Serial Number: 2 (0x2)
        Signature Algorithm: sha256WithRSAEncryption
        Issuer: DC=ca, DC=lab5, O=Lab5 DevOps Inc., OU=www.lab5.ca, CN=Lab5 DevOps Inc. Root CA
        Validity
            Not Before: Dec  5 15:23:00 2022 GMT
            Not After : Dec  4 15:23:00 2032 GMT
        Subject: DC=ca, DC=lab5, O=Lab5 DevOps Inc., OU=www.lab5.ca, CN=Lab5 DevOps Inc. Issuing CA
        Subject Public Key Info:
            Public Key Algorithm: rsaEncryption
                Public-Key: (2048 bit)
                Modulus:
                    00:a4:46:1f:d9:e6:c8:d6:29:72:77:aa:0a:2c:20:
                    12:df:a5:da:7e:df:a9:1b:c9:77:25:1d:07:91:09:
                    33:69:da:ff:ae:d6:9e:41:81:f7:f1:53:e2:ea:89:
                    a0:06:66:67:ec:4a:9a:bd:3e:49:0d:43:08:8d:b8:
                    81:01:6b:ca:bd:a6:39:57:dc:e9:b9:2c:59:51:79:
                    48:ee:10:46:8b:40:df:1c:45:42:1d:21:a9:33:b7:
                    9e:7a:e5:4a:cb:bc:83:49:c6:d6:27:f3:ab:7e:b5:
                    43:44:d1:14:22:ac:35:b3:41:fe:31:ba:db:1d:c4:
                    2b:23:96:66:94:a8:6c:be:1e:78:fd:b4:8a:f4:81:
                    76:28:e6:6e:9b:9f:bf:f0:58:c1:49:ee:e0:6d:ea:
                    57:79:07:eb:19:d5:3c:34:d3:58:39:4b:96:9a:27:
                    a3:34:0f:06:8f:e2:52:a1:4b:ed:b9:13:53:ee:07:
                    90:b8:31:78:17:bd:df:e6:9e:2d:08:9b:42:80:ec:
                    54:a9:d9:5a:7e:97:c4:31:b6:48:64:75:4b:02:e9:
                    77:df:3c:57:48:1e:b7:34:6d:dd:a5:4e:97:af:cd:
                    0a:c6:83:54:cc:4a:60:34:a7:58:13:3a:4b:dd:c1:
                    64:db:21:60:55:12:2f:9f:cb:7a:28:1e:e6:03:74:
                    8b:31
                Exponent: 65537 (0x10001)
        X509v3 extensions:
            X509v3 Key Usage: critical
                Certificate Sign, CRL Sign
            X509v3 Basic Constraints: critical
                CA:TRUE, pathlen:0
            X509v3 Subject Key Identifier: 
                A3:C8:E8:A2:31:60:6D:24:8B:DD:5E:2C:0B:2B:69:12:3C:83:70:50
            X509v3 Authority Key Identifier: 
                A0:8F:B1:EF:AC:D6:FA:8D:15:1D:C2:7E:AC:4B:04:1A:7E:D2:B7:1A
    Signature Algorithm: sha256WithRSAEncryption
    Signature Value:
        39:13:6c:4c:7c:09:d2:27:28:47:27:23:04:f9:11:93:c0:97:
        33:12:81:75:64:99:a5:6c:eb:26:8b:4c:dd:13:82:a0:29:1b:
        46:91:31:14:39:7f:32:e4:03:b4:4d:4d:70:f1:b6:22:2f:68:
        96:85:c2:9c:ac:a9:e4:70:4e:34:df:76:5c:0b:63:43:05:74:
        0d:95:1a:3e:5d:33:ad:4a:a9:67:a9:73:98:0b:13:20:5e:26:
        7e:c4:df:68:fb:6c:58:f0:f4:cc:71:29:99:45:66:38:f3:a7:
        3a:2e:bd:ff:bd:a0:82:e3:b5:3c:24:b8:f6:7f:6f:2d:fc:63:
        ec:45:64:b4:bd:d5:7d:59:67:36:a6:74:b9:1d:09:73:a8:f9:
        bf:ee:73:66:21:17:d3:a9:51:93:cb:a2:5b:95:0b:dd:30:82:
        fe:9f:d3:3b:d6:e2:4b:ed:66:83:d5:cf:d5:7e:8f:0a:9a:c4:
        99:46:3a:40:d0:05:6a:6d:e3:7a:14:99:ce:a7:c3:2b:37:ab:
        fd:ae:b6:e4:2c:53:63:ec:52:05:19:3b:a9:33:0e:57:ae:68:
        92:22:d6:ac:0e:c3:c6:66:76:eb:c7:ab:95:97:1d:1b:a1:67:
        86:dd:87:74:e3:cc:a1:4d:17:36:41:66:f1:c3:4f:82:19:8d:
        aa:8a:30:f9
-----BEGIN CERTIFICATE-----
MIID4TCCAsmgAwIBAgIBAjANBgkqhkiG9w0BAQsFADB+MRIwEAYKCZImiZPyLGQB
GRYCY2ExFDASBgoJkiaJk/IsZAEZFgRsYWI1MRkwFwYDVQQKDBBMYWI1IERldk9w
cyBJbmMuMRQwEgYDVQQLDAt3d3cubGFiNS5jYTEhMB8GA1UEAwwYTGFiNSBEZXZP
cHMgSW5jLiBSb290IENBMB4XDTIyMTIwNTE1MjMwMFoXDTMyMTIwNDE1MjMwMFow
gYExEjAQBgoJkiaJk/IsZAEZFgJjYTEUMBIGCgmSJomT8ixkARkWBGxhYjUxGTAX
BgNVBAoMEExhYjUgRGV2T3BzIEluYy4xFDASBgNVBAsMC3d3dy5sYWI1LmNhMSQw
IgYDVQQDDBtMYWI1IERldk9wcyBJbmMuIElzc3VpbmcgQ0EwggEiMA0GCSqGSIb3
DQEBAQUAA4IBDwAwggEKAoIBAQCkRh/Z5sjWKXJ3qgosIBLfpdp+36kbyXclHQeR
CTNp2v+u1p5BgffxU+LqiaAGZmfsSpq9PkkNQwiNuIEBa8q9pjlX3Om5LFlReUju
EEaLQN8cRUIdIakzt5565UrLvINJxtYn86t+tUNE0RQirDWzQf4xutsdxCsjlmaU
qGy+Hnj9tIr0gXYo5m6bn7/wWMFJ7uBt6ld5B+sZ1Tw001g5S5aaJ6M0DwaP4lKh
S+25E1PuB5C4MXgXvd/mni0Im0KA7FSp2Vp+l8QxtkhkdUsC6XffPFdIHrc0bd2l
TpevzQrGg1TMSmA0p1gTOkvdwWTbIWBVEi+fy3ooHuYDdIsxAgMBAAGjZjBkMA4G
A1UdDwEB/wQEAwIBBjASBgNVHRMBAf8ECDAGAQH/AgEAMB0GA1UdDgQWBBSjyOii
MWBtJIvdXiwLK2kSPINwUDAfBgNVHSMEGDAWgBSgj7HvrNb6jRUdwn6sSwQaftK3
GjANBgkqhkiG9w0BAQsFAAOCAQEAORNsTHwJ0icoRycjBPkRk8CXMxKBdWSZpWzr
JotM3ROCoCkbRpExFDl/MuQDtE1NcPG2Ii9oloXCnKyp5HBONN92XAtjQwV0DZUa
Pl0zrUqpZ6lzmAsTIF4mfsTfaPtsWPD0zHEpmUVmOPOnOi69/72gguO1PCS49n9v
Lfxj7EVktL3VfVlnNqZ0uR0Jc6j5v+5zZiEX06lRk8uiW5UL3TCC/p/TO9biS+1m
g9XP1X6PCprEmUY6QNAFam3jehSZzqfDKzer/a625CxTY+xSBRk7qTMOV65okiLW
rA7DxmZ268erlZcdG6Fnht2HdOPMoU0XNkFm8cNPghmNqoow+Q==
-----END CERTIFICATE-----
