Certificate:
    Data:
        Version: 3 (0x2)
        Serial Number: 1 (0x1)
        Signature Algorithm: sha256WithRSAEncryption
        Issuer: DC=ca, DC=lab5, O=Lab5 DevOps Inc., OU=www.lab5.ca, CN=Root CA G1
        Validity
            Not Before: Sep  2 14:10:00 2022 GMT
            Not After : Sep  1 14:10:00 2032 GMT
        Subject: DC=ca, DC=lab5, O=Lab5 DevOps Inc., OU=www.lab5.ca, CN=Root CA G1
        Subject Public Key Info:
            Public Key Algorithm: rsaEncryption
                RSA Public-Key: (2048 bit)
                Modulus:
                    00:bc:9f:68:bc:16:e7:11:2a:96:ed:99:fd:b3:f7:
                    e8:6c:b4:a2:b5:21:60:7b:21:22:87:b2:53:6d:61:
                    1d:7e:90:e5:36:47:8f:e0:93:2d:66:0b:df:4c:b0:
                    c1:c7:ac:5d:0c:6d:87:13:37:0c:4f:12:d7:b6:0a:
                    11:54:c8:0d:b4:1b:77:5a:2e:af:5d:f2:d0:a9:c3:
                    a8:ef:42:8d:1e:34:47:82:7f:0a:81:51:1b:4b:ba:
                    b4:98:a8:df:18:2f:65:3b:e4:aa:17:e8:d0:53:ea:
                    e6:44:4c:0e:7f:25:cb:02:3a:44:01:ea:61:70:55:
                    64:05:33:b1:ed:3a:43:e2:f0:2b:7d:80:96:96:79:
                    0c:62:43:93:54:b5:b7:40:22:99:d7:a5:73:94:53:
                    21:96:95:41:bd:9b:6b:64:07:18:a5:8a:50:59:80:
                    99:0c:2a:d9:ce:34:03:50:e7:7c:62:7c:7f:e2:ca:
                    13:5b:7c:93:30:03:a1:c7:b4:f4:cf:fb:12:c7:04:
                    a1:78:89:01:98:f0:f6:2e:34:ac:06:55:44:d5:d7:
                    45:e0:86:5d:ed:52:22:f3:c0:c1:25:90:2b:f7:ff:
                    ec:eb:9d:b1:41:6d:b3:b8:42:15:e9:e4:20:b3:66:
                    d5:b7:7a:cc:8e:e5:d2:48:c6:3e:b2:3c:fb:d6:52:
                    7e:0d
                Exponent: 65537 (0x10001)
        X509v3 extensions:
            X509v3 Key Usage: critical
                Certificate Sign, CRL Sign
            X509v3 Basic Constraints: critical
                CA:TRUE
            X509v3 Subject Key Identifier: 
                A9:0A:77:BC:3C:65:89:27:37:38:63:5B:BA:B8:FC:EB:65:47:A2:67
            X509v3 Authority Key Identifier: 
                keyid:A9:0A:77:BC:3C:65:89:27:37:38:63:5B:BA:B8:FC:EB:65:47:A2:67

    Signature Algorithm: sha256WithRSAEncryption
         aa:a0:ed:d2:ef:aa:6a:37:2d:72:e2:84:4a:2c:9e:06:0a:8b:
         b8:31:2a:4e:fa:e7:09:a0:16:b9:fc:0f:4e:d4:dc:fa:8d:06:
         85:c6:c8:13:d5:e4:8e:26:81:7c:75:72:d0:52:fc:49:29:be:
         d3:1b:ef:43:24:88:55:67:3b:f4:2e:ed:5b:1e:25:94:21:18:
         11:67:28:0e:e1:8a:6e:1a:6a:fd:47:4c:21:65:65:a1:c1:89:
         4e:d3:21:a9:9c:a7:c0:84:7b:80:01:3e:27:0b:76:a3:99:4d:
         07:4a:8f:8c:3d:e8:7d:0b:81:18:47:ed:48:11:17:70:ea:4b:
         3a:07:4e:f8:bd:f8:8d:4b:0e:f8:dc:e8:2b:81:3d:fc:d8:76:
         41:dc:cb:56:1d:4f:1a:70:bb:dc:52:5d:bf:58:e1:77:8d:57:
         92:eb:27:bd:4e:26:81:84:07:16:87:a0:4b:05:70:10:ed:4a:
         a2:10:75:60:cd:f5:99:c3:25:24:40:f6:13:d6:99:a4:48:51:
         65:15:41:90:c5:fa:35:82:9c:eb:cb:8d:aa:3d:ef:b8:e3:fc:
         9f:25:93:ca:f9:77:14:f4:04:2c:e5:c6:ae:ad:49:c7:ce:2a:
         53:89:20:73:9a:48:cc:05:44:6d:a9:9d:89:72:58:64:16:b1:
         fc:51:82:95
-----BEGIN CERTIFICATE-----
MIIDvjCCAqagAwIBAgIBATANBgkqhkiG9w0BAQsFADBwMRIwEAYKCZImiZPyLGQB
GRYCY2ExFDASBgoJkiaJk/IsZAEZFgRsYWI1MRkwFwYDVQQKDBBMYWI1IERldk9w
cyBJbmMuMRQwEgYDVQQLDAt3d3cubGFiNS5jYTETMBEGA1UEAwwKUm9vdCBDQSBH
MTAeFw0yMjA5MDIxNDEwMDBaFw0zMjA5MDExNDEwMDBaMHAxEjAQBgoJkiaJk/Is
ZAEZFgJjYTEUMBIGCgmSJomT8ixkARkWBGxhYjUxGTAXBgNVBAoMEExhYjUgRGV2
T3BzIEluYy4xFDASBgNVBAsMC3d3dy5sYWI1LmNhMRMwEQYDVQQDDApSb290IENB
IEcxMIIBIjANBgkqhkiG9w0BAQEFAAOCAQ8AMIIBCgKCAQEAvJ9ovBbnESqW7Zn9
s/fobLSitSFgeyEih7JTbWEdfpDlNkeP4JMtZgvfTLDBx6xdDG2HEzcMTxLXtgoR
VMgNtBt3Wi6vXfLQqcOo70KNHjRHgn8KgVEbS7q0mKjfGC9lO+SqF+jQU+rmREwO
fyXLAjpEAephcFVkBTOx7TpD4vArfYCWlnkMYkOTVLW3QCKZ16VzlFMhlpVBvZtr
ZAcYpYpQWYCZDCrZzjQDUOd8Ynx/4soTW3yTMAOhx7T0z/sSxwSheIkBmPD2LjSs
BlVE1ddF4IZd7VIi88DBJZAr9//s652xQW2zuEIV6eQgs2bVt3rMjuXSSMY+sjz7
1lJ+DQIDAQABo2MwYTAOBgNVHQ8BAf8EBAMCAQYwDwYDVR0TAQH/BAUwAwEB/zAd
BgNVHQ4EFgQUqQp3vDxliSc3OGNburj862VHomcwHwYDVR0jBBgwFoAUqQp3vDxl
iSc3OGNburj862VHomcwDQYJKoZIhvcNAQELBQADggEBAKqg7dLvqmo3LXLihEos
ngYKi7gxKk765wmgFrn8D07U3PqNBoXGyBPV5I4mgXx1ctBS/EkpvtMb70MkiFVn
O/Qu7VseJZQhGBFnKA7him4aav1HTCFlZaHBiU7TIamcp8CEe4ABPicLdqOZTQdK
j4w96H0LgRhH7UgRF3DqSzoHTvi9+I1LDvjc6CuBPfzYdkHcy1YdTxpwu9xSXb9Y
4XeNV5LrJ71OJoGEBxaHoEsFcBDtSqIQdWDN9ZnDJSRA9hPWmaRIUWUVQZDF+jWC
nOvLjao977jj/J8lk8r5dxT0BCzlxq6tScfOKlOJIHOaSMwFRG2pnYlyWGQWsfxR
gpU=
-----END CERTIFICATE-----
Certificate:
    Data:
        Version: 3 (0x2)
        Serial Number: 2 (0x2)
        Signature Algorithm: sha256WithRSAEncryption
        Issuer: DC=ca, DC=lab5, O=Lab5 DevOps Inc., OU=www.lab5.ca, CN=Root CA G1
        Validity
            Not Before: Sep  2 14:10:03 2022 GMT
            Not After : Sep  1 14:10:03 2032 GMT
        Subject: DC=ca, DC=lab5, O=Lab5 DevOps Inc., OU=www.lab5.ca, CN=Issuing CA G1
        Subject Public Key Info:
            Public Key Algorithm: rsaEncryption
                RSA Public-Key: (2048 bit)
                Modulus:
                    00:b7:e7:ea:dc:b5:04:49:9f:9f:bd:c6:51:ae:43:
                    17:74:85:d0:e3:34:e7:de:0c:55:05:6c:3d:43:88:
                    5e:e6:78:1d:b5:ab:32:16:2b:ed:78:a2:93:7c:96:
                    01:ee:78:42:c1:b3:96:2d:f1:4d:91:28:a8:1b:b9:
                    b7:db:8d:d9:0b:4f:e9:ea:e0:45:35:ee:37:28:21:
                    01:86:94:4d:2f:53:7a:ea:1b:37:7f:97:12:b7:3c:
                    e4:d9:05:5b:ad:a3:9d:6a:a7:b5:e9:aa:21:f0:50:
                    96:ba:67:62:6e:bc:a4:86:79:d9:9d:6e:52:95:d7:
                    64:90:8e:70:a4:f7:c3:7c:70:fc:b6:b1:20:ec:dc:
                    e2:8e:ba:a1:4e:1e:bf:27:45:cb:c8:1a:0b:4b:da:
                    92:28:82:1b:96:25:d8:5f:35:2c:ea:d4:3b:42:80:
                    74:45:ba:4c:39:1a:b5:d8:21:54:f0:82:1a:23:e6:
                    84:9c:82:12:ea:a8:ba:a5:ff:ce:a8:12:f1:6f:2a:
                    e7:04:84:26:28:cf:cb:09:e1:8f:77:0e:ea:6b:36:
                    14:9c:13:6d:74:bc:38:2c:ec:e2:11:c4:78:f7:26:
                    12:bc:82:56:df:c3:07:f2:88:1d:f8:79:c2:72:c1:
                    ce:8b:ba:c7:ea:c0:c2:ba:31:a5:4e:2f:a6:ed:e6:
                    eb:75
                Exponent: 65537 (0x10001)
        X509v3 extensions:
            X509v3 Key Usage: critical
                Certificate Sign, CRL Sign
            X509v3 Basic Constraints: critical
                CA:TRUE, pathlen:0
            X509v3 Subject Key Identifier: 
                C5:24:22:6D:5D:E3:A4:E4:29:E3:E6:15:97:50:96:71:B2:99:0D:0C
            X509v3 Authority Key Identifier: 
                keyid:A9:0A:77:BC:3C:65:89:27:37:38:63:5B:BA:B8:FC:EB:65:47:A2:67

    Signature Algorithm: sha256WithRSAEncryption
         1e:df:3c:0d:c5:31:3d:a8:b5:46:b8:35:84:70:b5:0c:8c:b1:
         54:18:1a:7d:94:5f:a9:f8:76:fd:95:08:62:25:c3:93:5e:2c:
         84:78:3b:05:ce:60:73:e6:a2:30:0d:95:32:5f:d9:f1:81:5c:
         24:e6:52:4f:05:ac:18:19:df:b5:50:87:9e:2e:57:6c:24:55:
         5b:a7:37:4a:e1:77:64:03:19:d8:99:3e:13:d2:56:5a:87:1d:
         65:15:82:79:2d:7a:1d:1f:2f:61:1f:d7:f3:77:cb:74:9b:89:
         51:78:b6:77:8d:be:f8:04:a5:fd:43:27:7d:71:a1:7d:eb:2b:
         0d:e4:a7:7c:32:af:d2:42:73:f3:a1:9a:a7:cb:52:73:36:ca:
         9b:47:26:65:c7:7f:8a:63:52:c8:e5:1e:1b:4c:92:3d:95:d9:
         dc:d2:39:b5:26:ee:23:b6:e5:f2:90:ba:5f:53:0e:34:57:2b:
         4c:1c:b5:bb:18:44:6c:03:99:c7:df:08:c3:84:18:b9:c1:3f:
         e0:ee:c8:7d:8a:09:f2:3f:23:93:9c:4b:6f:2a:01:57:8e:a8:
         1c:a1:f5:e3:a8:7f:38:dc:48:ab:c6:05:67:c2:4b:43:d8:b5:
         2f:ca:83:78:e4:1a:00:0c:62:90:e6:c4:83:bf:2e:a8:0c:57:
         f1:f1:4a:c5
-----BEGIN CERTIFICATE-----
MIIDxDCCAqygAwIBAgIBAjANBgkqhkiG9w0BAQsFADBwMRIwEAYKCZImiZPyLGQB
GRYCY2ExFDASBgoJkiaJk/IsZAEZFgRsYWI1MRkwFwYDVQQKDBBMYWI1IERldk9w
cyBJbmMuMRQwEgYDVQQLDAt3d3cubGFiNS5jYTETMBEGA1UEAwwKUm9vdCBDQSBH
MTAeFw0yMjA5MDIxNDEwMDNaFw0zMjA5MDExNDEwMDNaMHMxEjAQBgoJkiaJk/Is
ZAEZFgJjYTEUMBIGCgmSJomT8ixkARkWBGxhYjUxGTAXBgNVBAoMEExhYjUgRGV2
T3BzIEluYy4xFDASBgNVBAsMC3d3dy5sYWI1LmNhMRYwFAYDVQQDDA1Jc3N1aW5n
IENBIEcxMIIBIjANBgkqhkiG9w0BAQEFAAOCAQ8AMIIBCgKCAQEAt+fq3LUESZ+f
vcZRrkMXdIXQ4zTn3gxVBWw9Q4he5ngdtasyFivteKKTfJYB7nhCwbOWLfFNkSio
G7m3243ZC0/p6uBFNe43KCEBhpRNL1N66hs3f5cStzzk2QVbraOdaqe16aoh8FCW
umdibrykhnnZnW5SlddkkI5wpPfDfHD8trEg7NzijrqhTh6/J0XLyBoLS9qSKIIb
liXYXzUs6tQ7QoB0RbpMORq12CFU8IIaI+aEnIIS6qi6pf/OqBLxbyrnBIQmKM/L
CeGPdw7qazYUnBNtdLw4LOziEcR49yYSvIJW38MH8ogd+HnCcsHOi7rH6sDCujGl
Ti+m7ebrdQIDAQABo2YwZDAOBgNVHQ8BAf8EBAMCAQYwEgYDVR0TAQH/BAgwBgEB
/wIBADAdBgNVHQ4EFgQUxSQibV3jpOQp4+YVl1CWcbKZDQwwHwYDVR0jBBgwFoAU
qQp3vDxliSc3OGNburj862VHomcwDQYJKoZIhvcNAQELBQADggEBAB7fPA3FMT2o
tUa4NYRwtQyMsVQYGn2UX6n4dv2VCGIlw5NeLIR4OwXOYHPmojANlTJf2fGBXCTm
Uk8FrBgZ37VQh54uV2wkVVunN0rhd2QDGdiZPhPSVlqHHWUVgnkteh0fL2Ef1/N3
y3SbiVF4tneNvvgEpf1DJ31xoX3rKw3kp3wyr9JCc/OhmqfLUnM2yptHJmXHf4pj
UsjlHhtMkj2V2dzSObUm7iO25fKQul9TDjRXK0wctbsYRGwDmcffCMOEGLnBP+Du
yH2KCfI/I5OcS28qAVeOqByh9eOofzjcSKvGBWfCS0PYtS/Kg3jkGgAMYpDmxIO/
LqgMV/HxSsU=
-----END CERTIFICATE-----
