Certificate:
    Data:
        Version: 3 (0x2)
        Serial Number: 1 (0x1)
        Signature Algorithm: sha256WithRSAEncryption
        Issuer: DC=ca, DC=lab5, O=Lab5 DevOps Inc., OU=www.lab5.ca, CN=Lab5 DevOps Inc. Root CA
        Validity
            Not Before: Sep  6 19:25:24 2022 GMT
            Not After : Sep  5 19:25:24 2032 GMT
        Subject: DC=ca, DC=lab5, O=Lab5 DevOps Inc., OU=www.lab5.ca, CN=Lab5 DevOps Inc. Root CA
        Subject Public Key Info:
            Public Key Algorithm: rsaEncryption
                RSA Public-Key: (2048 bit)
                Modulus:
                    00:e3:b3:7c:f1:b0:91:ce:92:1f:17:57:56:c4:12:
                    80:1e:68:8f:d6:db:f1:72:41:9c:65:2a:08:57:41:
                    c8:84:07:ea:20:9c:c8:bd:b8:5b:1e:75:2d:6d:b1:
                    4f:69:f6:ca:94:69:e7:d5:d8:40:ad:e8:72:88:39:
                    f2:0c:b5:c0:61:77:7e:b1:d2:cc:e2:a9:63:0b:57:
                    49:1c:75:2b:99:aa:9f:c3:9c:56:6a:bf:14:b3:96:
                    e1:11:5e:c1:4c:29:b5:e4:50:d2:78:e0:42:c0:47:
                    44:89:ce:10:bd:f3:ac:b3:83:32:a6:e9:e8:d6:28:
                    0f:7b:b7:5c:0b:5d:b3:fd:92:39:8b:8d:f2:01:4e:
                    78:ec:26:4e:58:68:a8:63:7f:19:0a:ed:16:76:f4:
                    68:8e:8f:7b:9b:2d:e7:d2:d8:2b:cd:99:76:fa:f7:
                    6a:56:6d:62:84:ea:b3:30:e0:49:d4:11:a8:1e:b8:
                    80:0b:c4:09:ef:fb:95:77:17:d3:15:66:3e:be:a1:
                    9b:51:70:86:0d:37:1b:db:6e:94:13:6f:56:e1:c7:
                    2b:77:73:3a:9b:97:53:f5:05:6b:3d:ce:10:72:d1:
                    ce:22:89:1f:3b:12:58:66:51:19:9c:2f:2c:22:c4:
                    b6:ab:5a:ff:fc:6a:6b:2f:85:a8:37:b2:03:36:8c:
                    dd:29
                Exponent: 65537 (0x10001)
        X509v3 extensions:
            X509v3 Key Usage: critical
                Certificate Sign, CRL Sign
            X509v3 Basic Constraints: critical
                CA:TRUE
            X509v3 Subject Key Identifier: 
                95:1E:4C:DF:49:1F:09:01:34:AD:F6:46:C9:3E:EA:67:90:C3:69:93
            X509v3 Authority Key Identifier: 
                keyid:95:1E:4C:DF:49:1F:09:01:34:AD:F6:46:C9:3E:EA:67:90:C3:69:93

    Signature Algorithm: sha256WithRSAEncryption
         95:9a:e0:bf:10:00:88:1d:e7:63:d1:1e:57:ea:5b:57:4e:a3:
         44:b7:83:c8:cd:ac:f7:3f:55:5d:68:d9:58:b7:69:a1:d6:1e:
         ba:9f:ed:4a:d6:80:33:81:6f:45:d7:76:1c:d0:11:46:83:6f:
         f4:96:d0:e9:44:6e:f1:d1:e0:ce:f6:de:33:c4:3f:c4:df:3f:
         90:ee:6e:fb:d4:88:b7:ff:bb:91:f4:20:85:fd:9c:01:cc:3e:
         55:37:3a:57:db:59:1e:14:c6:fb:96:9b:7a:a8:6f:19:42:09:
         9e:bc:52:b9:54:9b:d4:62:4f:53:88:d6:26:fe:3a:e0:be:7d:
         fd:47:5d:8c:4b:01:3b:a4:c5:69:5c:8d:e0:bc:32:11:6e:95:
         86:ee:77:f3:6c:f8:71:b8:f6:07:88:ce:b8:55:ee:1d:79:b9:
         6c:80:09:88:eb:b0:85:0f:4c:e8:8e:73:15:39:e2:a1:a1:f5:
         a3:1e:3e:31:1c:b0:b5:df:0f:e2:f6:1b:a6:c6:67:3f:09:32:
         39:8c:28:e8:5c:c8:6f:8a:a1:22:b1:bf:6f:55:e6:a5:0b:8d:
         d6:8c:c3:d1:66:12:39:61:08:a1:96:49:88:04:10:20:d7:97:
         55:b5:4a:71:ba:98:fe:21:df:a9:93:41:58:6e:8f:31:ac:cd:
         f4:52:f4:7e
-----BEGIN CERTIFICATE-----
MIID2jCCAsKgAwIBAgIBATANBgkqhkiG9w0BAQsFADB+MRIwEAYKCZImiZPyLGQB
GRYCY2ExFDASBgoJkiaJk/IsZAEZFgRsYWI1MRkwFwYDVQQKDBBMYWI1IERldk9w
cyBJbmMuMRQwEgYDVQQLDAt3d3cubGFiNS5jYTEhMB8GA1UEAwwYTGFiNSBEZXZP
cHMgSW5jLiBSb290IENBMB4XDTIyMDkwNjE5MjUyNFoXDTMyMDkwNTE5MjUyNFow
fjESMBAGCgmSJomT8ixkARkWAmNhMRQwEgYKCZImiZPyLGQBGRYEbGFiNTEZMBcG
A1UECgwQTGFiNSBEZXZPcHMgSW5jLjEUMBIGA1UECwwLd3d3LmxhYjUuY2ExITAf
BgNVBAMMGExhYjUgRGV2T3BzIEluYy4gUm9vdCBDQTCCASIwDQYJKoZIhvcNAQEB
BQADggEPADCCAQoCggEBAOOzfPGwkc6SHxdXVsQSgB5oj9bb8XJBnGUqCFdByIQH
6iCcyL24Wx51LW2xT2n2ypRp59XYQK3ocog58gy1wGF3frHSzOKpYwtXSRx1K5mq
n8OcVmq/FLOW4RFewUwpteRQ0njgQsBHRInOEL3zrLODMqbp6NYoD3u3XAtds/2S
OYuN8gFOeOwmTlhoqGN/GQrtFnb0aI6Pe5st59LYK82Zdvr3alZtYoTqszDgSdQR
qB64gAvECe/7lXcX0xVmPr6hm1Fwhg03G9tulBNvVuHHK3dzOpuXU/UFaz3OEHLR
ziKJHzsSWGZRGZwvLCLEtqta//xqay+FqDeyAzaM3SkCAwEAAaNjMGEwDgYDVR0P
AQH/BAQDAgEGMA8GA1UdEwEB/wQFMAMBAf8wHQYDVR0OBBYEFJUeTN9JHwkBNK32
Rsk+6meQw2mTMB8GA1UdIwQYMBaAFJUeTN9JHwkBNK32Rsk+6meQw2mTMA0GCSqG
SIb3DQEBCwUAA4IBAQCVmuC/EACIHedj0R5X6ltXTqNEt4PIzaz3P1VdaNlYt2mh
1h66n+1K1oAzgW9F13Yc0BFGg2/0ltDpRG7x0eDO9t4zxD/E3z+Q7m771Ii3/7uR
9CCF/ZwBzD5VNzpX21keFMb7lpt6qG8ZQgmevFK5VJvUYk9TiNYm/jrgvn39R12M
SwE7pMVpXI3gvDIRbpWG7nfzbPhxuPYHiM64Ve4deblsgAmI67CFD0zojnMVOeKh
ofWjHj4xHLC13w/i9humxmc/CTI5jCjoXMhviqEisb9vVealC43WjMPRZhI5YQih
lkmIBBAg15dVtUpxupj+Id+pk0FYbo8xrM30UvR+
-----END CERTIFICATE-----
Certificate:
    Data:
        Version: 3 (0x2)
        Serial Number: 2 (0x2)
        Signature Algorithm: sha256WithRSAEncryption
        Issuer: DC=ca, DC=lab5, O=Lab5 DevOps Inc., OU=www.lab5.ca, CN=Lab5 DevOps Inc. Root CA
        Validity
            Not Before: Sep  6 19:25:32 2022 GMT
            Not After : Sep  5 19:25:32 2032 GMT
        Subject: DC=ca, DC=lab5, O=Lab5 DevOps Inc., OU=www.lab5.ca, CN=Lab5 DevOps Inc. Issuing CA
        Subject Public Key Info:
            Public Key Algorithm: rsaEncryption
                RSA Public-Key: (2048 bit)
                Modulus:
                    00:b8:e9:f9:1d:ae:cb:14:53:f1:a7:af:b8:d7:0b:
                    97:28:bf:32:03:f2:9c:76:4d:8b:29:1e:f7:7a:e0:
                    5f:d5:1b:9d:20:26:0e:17:8a:6f:ad:47:ee:e8:f2:
                    3b:db:ce:e0:31:22:ac:9d:f7:0e:f4:53:2a:8a:8a:
                    10:df:8a:c9:62:7a:ac:05:da:b8:75:0e:19:1b:4d:
                    c7:e3:c3:66:d3:3e:e3:bc:0e:a6:d5:8f:3b:f8:7c:
                    52:b3:da:e7:98:54:5c:09:ba:1c:2c:25:74:2e:7c:
                    34:2a:a8:26:fb:90:d3:f0:e0:c2:e2:41:48:67:79:
                    d0:b2:a2:25:1a:c1:e4:fb:94:4e:db:ef:42:15:91:
                    58:cc:88:d7:fb:bb:96:c1:4b:4a:a1:61:e6:11:2d:
                    e4:73:3e:8d:30:dc:84:42:8b:3d:95:23:a2:ce:c5:
                    f8:5e:33:88:1e:bf:cd:ee:4b:fd:f0:a1:3c:83:cd:
                    3a:64:e5:89:fd:52:62:65:9c:b7:76:48:7a:53:ef:
                    ad:6f:91:64:b8:96:89:f3:2c:97:fb:fd:de:be:52:
                    cc:98:9c:3e:3a:6b:5b:7c:fa:13:bc:63:55:ab:b4:
                    b8:a7:ea:2a:7e:94:f9:02:fa:7a:36:fd:ed:4b:7d:
                    92:74:b1:79:a8:58:6a:f6:4e:06:4d:a3:a7:be:ef:
                    ea:97
                Exponent: 65537 (0x10001)
        X509v3 extensions:
            X509v3 Key Usage: critical
                Certificate Sign, CRL Sign
            X509v3 Basic Constraints: critical
                CA:TRUE, pathlen:0
            X509v3 Subject Key Identifier: 
                B7:E8:B7:33:43:2B:8D:AB:CB:4D:77:3B:42:E0:2F:F5:22:7C:BB:14
            X509v3 Authority Key Identifier: 
                keyid:95:1E:4C:DF:49:1F:09:01:34:AD:F6:46:C9:3E:EA:67:90:C3:69:93

    Signature Algorithm: sha256WithRSAEncryption
         91:67:d8:8a:2d:94:f5:76:5d:5d:56:c5:4a:af:59:ec:55:c0:
         ea:b3:27:c7:9f:3b:49:ea:fe:42:8b:11:bc:bb:18:17:bc:1f:
         f0:ca:ac:8a:12:22:75:9a:1d:46:19:fb:e2:0c:82:ad:31:57:
         0f:14:75:8f:49:67:84:f4:73:eb:e3:72:38:cd:8a:2c:3b:ce:
         15:f9:ea:4e:f9:99:6d:5e:80:d2:de:dd:6d:3a:85:ec:c1:b4:
         f6:51:f3:62:24:3b:27:39:1e:59:7c:d9:e5:fd:96:8b:03:20:
         84:8c:16:f1:e8:c2:9e:00:82:a7:55:c6:9a:46:2a:e6:24:87:
         26:86:0e:07:dc:5a:36:27:69:df:ad:41:b3:d7:bf:86:f3:59:
         7a:eb:fa:e6:09:e3:a3:da:48:f4:c7:db:ae:e7:43:6c:2e:be:
         73:01:4b:19:62:66:79:4f:bb:4a:66:06:6d:45:78:72:dd:76:
         e1:79:d6:86:e9:3e:82:73:46:90:02:ed:fb:19:0f:4f:c1:7a:
         ce:86:ee:d0:64:2b:4f:8f:66:f5:69:01:bb:51:bb:13:53:3c:
         18:1e:cc:94:5f:48:98:dd:61:e0:96:be:98:d1:74:11:82:5a:
         0d:1e:11:67:29:bc:02:d8:1e:31:9f:eb:c3:6e:34:e0:d9:83:
         a4:a8:19:ae
-----BEGIN CERTIFICATE-----
MIID4TCCAsmgAwIBAgIBAjANBgkqhkiG9w0BAQsFADB+MRIwEAYKCZImiZPyLGQB
GRYCY2ExFDASBgoJkiaJk/IsZAEZFgRsYWI1MRkwFwYDVQQKDBBMYWI1IERldk9w
cyBJbmMuMRQwEgYDVQQLDAt3d3cubGFiNS5jYTEhMB8GA1UEAwwYTGFiNSBEZXZP
cHMgSW5jLiBSb290IENBMB4XDTIyMDkwNjE5MjUzMloXDTMyMDkwNTE5MjUzMlow
gYExEjAQBgoJkiaJk/IsZAEZFgJjYTEUMBIGCgmSJomT8ixkARkWBGxhYjUxGTAX
BgNVBAoMEExhYjUgRGV2T3BzIEluYy4xFDASBgNVBAsMC3d3dy5sYWI1LmNhMSQw
IgYDVQQDDBtMYWI1IERldk9wcyBJbmMuIElzc3VpbmcgQ0EwggEiMA0GCSqGSIb3
DQEBAQUAA4IBDwAwggEKAoIBAQC46fkdrssUU/Gnr7jXC5covzID8px2TYspHvd6
4F/VG50gJg4Xim+tR+7o8jvbzuAxIqyd9w70UyqKihDfislieqwF2rh1DhkbTcfj
w2bTPuO8DqbVjzv4fFKz2ueYVFwJuhwsJXQufDQqqCb7kNPw4MLiQUhnedCyoiUa
weT7lE7b70IVkVjMiNf7u5bBS0qhYeYRLeRzPo0w3IRCiz2VI6LOxfheM4gev83u
S/3woTyDzTpk5Yn9UmJlnLd2SHpT761vkWS4lonzLJf7/d6+UsyYnD46a1t8+hO8
Y1WrtLin6ip+lPkC+no2/e1LfZJ0sXmoWGr2TgZNo6e+7+qXAgMBAAGjZjBkMA4G
A1UdDwEB/wQEAwIBBjASBgNVHRMBAf8ECDAGAQH/AgEAMB0GA1UdDgQWBBS36Lcz
QyuNq8tNdztC4C/1Iny7FDAfBgNVHSMEGDAWgBSVHkzfSR8JATSt9kbJPupnkMNp
kzANBgkqhkiG9w0BAQsFAAOCAQEAkWfYii2U9XZdXVbFSq9Z7FXA6rMnx587Ser+
QosRvLsYF7wf8MqsihIidZodRhn74gyCrTFXDxR1j0lnhPRz6+NyOM2KLDvOFfnq
TvmZbV6A0t7dbTqF7MG09lHzYiQ7JzkeWXzZ5f2WiwMghIwW8ejCngCCp1XGmkYq
5iSHJoYOB9xaNidp361Bs9e/hvNZeuv65gnjo9pI9MfbrudDbC6+cwFLGWJmeU+7
SmYGbUV4ct124XnWhuk+gnNGkALt+xkPT8F6zobu0GQrT49m9WkBu1G7E1M8GB7M
lF9ImN1h4Ja+mNF0EYJaDR4RZym8AtgeMZ/rw2404NmDpKgZrg==
-----END CERTIFICATE-----
