Certificate:
    Data:
        Version: 3 (0x2)
        Serial Number: 1 (0x1)
        Signature Algorithm: sha256WithRSAEncryption
        Issuer: DC=ca, DC=lab5, O=Lab5 DevOps Inc., OU=www.lab5.ca, CN=Lab5 DevOps Inc. Root CA
        Validity
            Not Before: Oct  2 17:22:44 2022 GMT
            Not After : Oct  1 17:22:44 2032 GMT
        Subject: DC=ca, DC=lab5, O=Lab5 DevOps Inc., OU=www.lab5.ca, CN=Lab5 DevOps Inc. Root CA
        Subject Public Key Info:
            Public Key Algorithm: rsaEncryption
                Public-Key: (2048 bit)
                Modulus:
                    00:c1:60:4f:28:2c:02:1b:c6:66:1c:59:50:5b:3b:
                    53:c3:37:05:eb:3d:d9:ab:a6:30:8a:41:d5:8b:29:
                    a3:3a:f1:0a:70:51:7b:6a:42:5d:d7:6e:51:a9:ba:
                    25:4a:61:3e:0f:06:37:dd:5d:65:13:c0:7e:94:9b:
                    87:cc:7d:57:4d:3d:af:a6:81:40:f8:2f:65:8d:e0:
                    7c:4b:d2:d0:d2:08:1c:61:55:7c:25:db:45:aa:ef:
                    0c:5e:c0:02:86:b3:38:2d:8c:77:3b:a4:47:8c:88:
                    b5:4c:bf:00:82:d2:5a:a8:81:e0:5b:fe:20:fb:37:
                    36:e0:11:3a:4b:d5:48:62:a4:6d:52:83:ee:d1:a0:
                    5f:98:7f:69:d8:d1:1b:f7:fe:a1:6f:eb:d3:0f:77:
                    7e:fc:87:64:1b:74:7c:01:ab:14:b8:00:c1:fe:ad:
                    73:3d:43:11:82:d9:23:a3:c8:b6:d1:7b:01:4e:2f:
                    6f:69:a3:b6:1f:67:69:82:7d:4c:5a:82:0a:bb:df:
                    a5:8c:80:28:46:7c:fd:60:b3:ed:41:10:5b:24:fc:
                    2e:6d:2b:e7:35:d9:a1:77:a2:fc:b0:5f:5f:2b:24:
                    79:80:bf:a5:5b:71:cb:3b:b6:bc:50:33:ed:72:a6:
                    f9:0f:0b:46:9e:ec:6c:42:2a:a1:a0:ee:0b:c3:ce:
                    aa:b3
                Exponent: 65537 (0x10001)
        X509v3 extensions:
            X509v3 Key Usage: critical
                Certificate Sign, CRL Sign
            X509v3 Basic Constraints: critical
                CA:TRUE
            X509v3 Subject Key Identifier: 
                7D:C2:C7:34:13:4F:0B:56:7B:F2:10:8D:92:49:EA:A4:45:A2:4E:8B
            X509v3 Authority Key Identifier: 
                7D:C2:C7:34:13:4F:0B:56:7B:F2:10:8D:92:49:EA:A4:45:A2:4E:8B
    Signature Algorithm: sha256WithRSAEncryption
    Signature Value:
        67:d1:2e:90:7b:59:6b:15:56:4b:99:8d:39:15:65:1d:15:0e:
        21:a0:e8:b4:1f:5a:c6:f4:2f:da:ff:21:b5:20:dc:ae:24:98:
        a6:34:92:a2:6a:3d:97:76:e7:07:4f:78:2d:7f:4d:01:d4:b0:
        5f:bc:76:af:05:19:de:18:8c:65:3a:b0:03:95:eb:0d:42:c7:
        79:d3:c2:bd:37:4f:37:ed:88:22:66:03:c0:f2:8e:49:f5:80:
        94:08:6b:89:fb:5e:62:0b:fc:ac:60:11:3c:71:3c:22:79:c5:
        c2:36:a6:11:17:1b:2c:9a:fe:60:7d:cb:60:99:28:10:ce:35:
        44:6b:f6:d3:6d:f0:2e:aa:84:4d:13:7b:a9:b8:cc:92:3c:4d:
        52:44:ff:db:08:a6:6f:47:3b:ff:4c:f1:f1:06:0b:2e:e8:7a:
        b1:29:80:52:a7:0d:c9:f7:61:9f:67:3a:28:c7:eb:43:b0:50:
        27:30:58:6a:b9:e2:7c:c3:23:e0:77:a0:a1:06:2b:55:9f:31:
        1b:7c:11:c7:d3:a6:50:8b:31:28:b1:e3:af:5c:2e:ab:85:20:
        00:d6:db:24:06:26:86:e0:c3:1f:b6:22:e3:fd:ed:25:72:62:
        02:13:f6:0c:4d:12:32:43:a7:c7:55:d7:22:c0:88:78:d3:34:
        bb:f1:db:55
-----BEGIN CERTIFICATE-----
MIID2jCCAsKgAwIBAgIBATANBgkqhkiG9w0BAQsFADB+MRIwEAYKCZImiZPyLGQB
GRYCY2ExFDASBgoJkiaJk/IsZAEZFgRsYWI1MRkwFwYDVQQKDBBMYWI1IERldk9w
cyBJbmMuMRQwEgYDVQQLDAt3d3cubGFiNS5jYTEhMB8GA1UEAwwYTGFiNSBEZXZP
cHMgSW5jLiBSb290IENBMB4XDTIyMTAwMjE3MjI0NFoXDTMyMTAwMTE3MjI0NFow
fjESMBAGCgmSJomT8ixkARkWAmNhMRQwEgYKCZImiZPyLGQBGRYEbGFiNTEZMBcG
A1UECgwQTGFiNSBEZXZPcHMgSW5jLjEUMBIGA1UECwwLd3d3LmxhYjUuY2ExITAf
BgNVBAMMGExhYjUgRGV2T3BzIEluYy4gUm9vdCBDQTCCASIwDQYJKoZIhvcNAQEB
BQADggEPADCCAQoCggEBAMFgTygsAhvGZhxZUFs7U8M3Bes92aumMIpB1Yspozrx
CnBRe2pCXdduUam6JUphPg8GN91dZRPAfpSbh8x9V009r6aBQPgvZY3gfEvS0NII
HGFVfCXbRarvDF7AAoazOC2MdzukR4yItUy/AILSWqiB4Fv+IPs3NuAROkvVSGKk
bVKD7tGgX5h/adjRG/f+oW/r0w93fvyHZBt0fAGrFLgAwf6tcz1DEYLZI6PIttF7
AU4vb2mjth9naYJ9TFqCCrvfpYyAKEZ8/WCz7UEQWyT8Lm0r5zXZoXei/LBfXysk
eYC/pVtxyzu2vFAz7XKm+Q8LRp7sbEIqoaDuC8POqrMCAwEAAaNjMGEwDgYDVR0P
AQH/BAQDAgEGMA8GA1UdEwEB/wQFMAMBAf8wHQYDVR0OBBYEFH3CxzQTTwtWe/IQ
jZJJ6qRFok6LMB8GA1UdIwQYMBaAFH3CxzQTTwtWe/IQjZJJ6qRFok6LMA0GCSqG
SIb3DQEBCwUAA4IBAQBn0S6Qe1lrFVZLmY05FWUdFQ4hoOi0H1rG9C/a/yG1INyu
JJimNJKiaj2XducHT3gtf00B1LBfvHavBRneGIxlOrADlesNQsd508K9N0837Ygi
ZgPA8o5J9YCUCGuJ+15iC/ysYBE8cTwiecXCNqYRFxssmv5gfctgmSgQzjVEa/bT
bfAuqoRNE3upuMySPE1SRP/bCKZvRzv/TPHxBgsu6HqxKYBSpw3J92GfZzoox+tD
sFAnMFhqueJ8wyPgd6ChBitVnzEbfBHH06ZQizEoseOvXC6rhSAA1tskBiaG4MMf
tiLj/e0lcmICE/YMTRIyQ6fHVdciwIh40zS78dtV
-----END CERTIFICATE-----
Certificate:
    Data:
        Version: 3 (0x2)
        Serial Number: 2 (0x2)
        Signature Algorithm: sha256WithRSAEncryption
        Issuer: DC=ca, DC=lab5, O=Lab5 DevOps Inc., OU=www.lab5.ca, CN=Lab5 DevOps Inc. Root CA
        Validity
            Not Before: Oct  2 17:22:51 2022 GMT
            Not After : Oct  1 17:22:51 2032 GMT
        Subject: DC=ca, DC=lab5, O=Lab5 DevOps Inc., OU=www.lab5.ca, CN=Lab5 DevOps Inc. Issuing CA
        Subject Public Key Info:
            Public Key Algorithm: rsaEncryption
                Public-Key: (2048 bit)
                Modulus:
                    00:a7:44:3b:5d:b5:81:ab:44:3c:56:5f:2b:f1:20:
                    37:b9:f6:b6:c2:f0:bd:1d:32:ed:f0:e2:29:ed:0d:
                    49:e0:1a:5c:cf:58:59:27:92:fb:87:1a:24:d3:47:
                    0a:76:76:45:eb:a1:37:9f:75:bc:2a:d2:92:df:8a:
                    23:7d:43:a4:be:ca:2a:08:b3:29:f6:a1:4d:fe:0b:
                    74:4e:6a:5b:a2:de:f1:fc:00:86:c0:88:ff:4a:91:
                    c9:fe:da:00:1f:0b:b8:8d:92:c4:75:12:48:ed:8d:
                    10:bd:2c:36:28:2b:65:81:11:37:b8:2e:2e:75:60:
                    9f:c6:d6:bf:4d:74:53:3b:f9:0d:4e:73:8e:12:ab:
                    bd:86:0f:43:f0:50:61:f0:e4:ed:99:4f:c4:db:d6:
                    58:48:11:94:18:92:6e:35:61:13:54:f0:85:46:be:
                    e4:87:28:28:65:c1:b3:a0:d1:10:72:d0:fa:c5:06:
                    78:f4:0b:e6:5b:0a:8d:8d:fd:ec:0b:e9:d7:ec:5d:
                    42:a1:16:24:e2:a1:24:ff:af:cf:95:1a:71:52:b1:
                    01:66:81:ec:b9:2e:dd:05:fc:b6:cb:57:3a:a6:d6:
                    a8:5b:f4:fc:73:60:06:dd:e6:25:56:45:54:95:4c:
                    8c:eb:c7:b8:e9:f7:4f:52:0e:24:e0:3e:41:ec:71:
                    6b:1d
                Exponent: 65537 (0x10001)
        X509v3 extensions:
            X509v3 Key Usage: critical
                Certificate Sign, CRL Sign
            X509v3 Basic Constraints: critical
                CA:TRUE, pathlen:0
            X509v3 Subject Key Identifier: 
                30:81:05:C9:07:09:3A:DB:F6:A0:B9:1B:C6:C5:8D:FC:D2:23:D2:B6
            X509v3 Authority Key Identifier: 
                7D:C2:C7:34:13:4F:0B:56:7B:F2:10:8D:92:49:EA:A4:45:A2:4E:8B
    Signature Algorithm: sha256WithRSAEncryption
    Signature Value:
        63:01:c3:b5:25:86:00:70:40:1a:17:e1:3f:b9:ea:9e:8c:bb:
        c1:5f:4e:f8:ff:2b:76:bd:d7:e4:30:cd:5f:ef:9a:80:ea:f7:
        ed:77:28:43:25:77:73:27:61:53:1d:fd:50:16:c4:15:33:db:
        a0:85:31:ed:36:aa:f2:fb:cf:8a:0f:17:d2:e9:3a:5c:83:3a:
        51:4b:44:c5:a5:10:a3:7b:c0:19:3c:e0:4f:ed:c4:1b:49:83:
        ce:91:22:5d:4b:2e:fa:49:92:72:e3:c3:02:28:2f:7c:4d:62:
        a5:4e:bc:3d:4c:26:88:ce:8d:2f:c9:cc:25:7a:0f:26:bc:2f:
        44:48:32:74:3c:b7:31:ca:2b:51:85:b6:45:c5:aa:0b:94:3d:
        c2:f9:95:2f:1e:de:1f:43:f5:7e:be:17:2a:91:e4:d1:96:b4:
        92:b6:58:07:93:49:e8:3e:fa:bb:f2:5e:18:36:d4:e6:da:94:
        f1:db:4b:dc:c0:8b:ed:20:5e:90:93:33:e4:ba:92:fb:03:a6:
        1d:5b:cc:19:61:48:19:80:5e:2a:f4:66:31:ac:2a:a9:2f:a3:
        cb:de:7a:02:ee:62:60:6d:9a:e5:b2:15:b3:d3:5a:35:e1:df:
        d1:18:d8:a5:5e:56:a9:71:41:62:c5:da:0c:6e:77:b0:dd:08:
        a9:f8:4e:83
-----BEGIN CERTIFICATE-----
MIID4TCCAsmgAwIBAgIBAjANBgkqhkiG9w0BAQsFADB+MRIwEAYKCZImiZPyLGQB
GRYCY2ExFDASBgoJkiaJk/IsZAEZFgRsYWI1MRkwFwYDVQQKDBBMYWI1IERldk9w
cyBJbmMuMRQwEgYDVQQLDAt3d3cubGFiNS5jYTEhMB8GA1UEAwwYTGFiNSBEZXZP
cHMgSW5jLiBSb290IENBMB4XDTIyMTAwMjE3MjI1MVoXDTMyMTAwMTE3MjI1MVow
gYExEjAQBgoJkiaJk/IsZAEZFgJjYTEUMBIGCgmSJomT8ixkARkWBGxhYjUxGTAX
BgNVBAoMEExhYjUgRGV2T3BzIEluYy4xFDASBgNVBAsMC3d3dy5sYWI1LmNhMSQw
IgYDVQQDDBtMYWI1IERldk9wcyBJbmMuIElzc3VpbmcgQ0EwggEiMA0GCSqGSIb3
DQEBAQUAA4IBDwAwggEKAoIBAQCnRDtdtYGrRDxWXyvxIDe59rbC8L0dMu3w4int
DUngGlzPWFknkvuHGiTTRwp2dkXroTefdbwq0pLfiiN9Q6S+yioIsyn2oU3+C3RO
alui3vH8AIbAiP9Kkcn+2gAfC7iNksR1EkjtjRC9LDYoK2WBETe4Li51YJ/G1r9N
dFM7+Q1Oc44Sq72GD0PwUGHw5O2ZT8Tb1lhIEZQYkm41YRNU8IVGvuSHKChlwbOg
0RBy0PrFBnj0C+ZbCo2N/ewL6dfsXUKhFiTioST/r8+VGnFSsQFmgey5Lt0F/LbL
Vzqm1qhb9PxzYAbd5iVWRVSVTIzrx7jp909SDiTgPkHscWsdAgMBAAGjZjBkMA4G
A1UdDwEB/wQEAwIBBjASBgNVHRMBAf8ECDAGAQH/AgEAMB0GA1UdDgQWBBQwgQXJ
Bwk62/aguRvGxY380iPStjAfBgNVHSMEGDAWgBR9wsc0E08LVnvyEI2SSeqkRaJO
izANBgkqhkiG9w0BAQsFAAOCAQEAYwHDtSWGAHBAGhfhP7nqnoy7wV9O+P8rdr3X
5DDNX++agOr37XcoQyV3cydhUx39UBbEFTPboIUx7Taq8vvPig8X0uk6XIM6UUtE
xaUQo3vAGTzgT+3EG0mDzpEiXUsu+kmScuPDAigvfE1ipU68PUwmiM6NL8nMJXoP
JrwvREgydDy3McorUYW2RcWqC5Q9wvmVLx7eH0P1fr4XKpHk0Za0krZYB5NJ6D76
u/JeGDbU5tqU8dtL3MCL7SBekJMz5LqS+wOmHVvMGWFIGYBeKvRmMawqqS+jy956
Au5iYG2a5bIVs9NaNeHf0RjYpV5WqXFBYsXaDG53sN0IqfhOgw==
-----END CERTIFICATE-----
