Certificate:
    Data:
        Version: 3 (0x2)
        Serial Number: 1 (0x1)
        Signature Algorithm: sha256WithRSAEncryption
        Issuer: DC=ca, DC=lab5, O=Lab5 DevOps Inc., OU=www.lab5.ca, CN=Lab5 DevOps Inc. Root CA
        Validity
            Not Before: Dec  9 16:16:34 2022 GMT
            Not After : Dec  8 16:16:34 2032 GMT
        Subject: DC=ca, DC=lab5, O=Lab5 DevOps Inc., OU=www.lab5.ca, CN=Lab5 DevOps Inc. Root CA
        Subject Public Key Info:
            Public Key Algorithm: rsaEncryption
                Public-Key: (2048 bit)
                Modulus:
                    00:dd:96:bd:53:26:78:79:ae:fa:82:37:b3:22:b7:
                    bc:ca:53:51:ce:55:0e:14:89:5d:15:be:20:fc:8f:
                    31:0d:a1:39:e0:49:71:1c:2f:13:27:cf:8f:bd:55:
                    6b:c4:a5:ed:c7:59:66:4f:64:3c:52:c0:98:a5:d6:
                    d0:06:8c:67:63:19:e7:59:40:ce:b2:a6:58:e0:f4:
                    b9:17:90:37:68:4a:b0:94:52:d3:6b:b9:c8:46:fb:
                    58:66:85:36:d1:9c:c2:8b:22:b6:53:05:24:e8:af:
                    81:29:31:06:7b:c6:40:f4:1e:0f:53:43:46:cf:02:
                    be:dc:91:63:9c:7e:ad:79:49:2a:06:cc:2c:65:ae:
                    c4:f4:89:41:1e:d7:42:fc:52:af:c4:d9:f1:c5:21:
                    67:77:fa:96:4a:40:86:4c:4b:13:23:ea:bf:82:3c:
                    8e:97:c4:4e:ad:eb:fc:9d:17:53:cc:f2:14:2f:61:
                    af:70:10:b8:c2:f8:68:e3:50:73:12:5b:fc:d2:8d:
                    27:c2:a8:11:a6:89:8f:90:33:65:7a:48:ae:1f:1e:
                    b6:23:cd:43:74:70:d5:23:99:ca:ed:de:fb:f8:12:
                    1a:33:18:80:26:dc:33:38:54:e7:48:f3:f7:9b:9e:
                    28:42:5c:13:fa:4e:ee:2d:b6:64:10:28:cf:f1:7a:
                    2b:17
                Exponent: 65537 (0x10001)
        X509v3 extensions:
            X509v3 Key Usage: critical
                Certificate Sign, CRL Sign
            X509v3 Basic Constraints: critical
                CA:TRUE
            X509v3 Subject Key Identifier: 
                9E:B6:3B:A6:7C:F0:C9:B6:8C:86:2F:4C:52:F1:2E:B5:9F:26:50:27
            X509v3 Authority Key Identifier: 
                9E:B6:3B:A6:7C:F0:C9:B6:8C:86:2F:4C:52:F1:2E:B5:9F:26:50:27
    Signature Algorithm: sha256WithRSAEncryption
    Signature Value:
        0d:78:6f:61:61:dc:b7:14:87:a1:15:b7:f8:1e:61:6e:92:a5:
        69:2b:2b:65:fa:03:4d:72:55:ca:ed:6c:82:51:f0:18:ae:d3:
        98:e8:cf:29:98:2d:3e:26:1b:a3:09:d6:44:af:62:77:9d:9b:
        7b:78:01:8f:f0:b0:15:05:89:eb:e9:1a:76:e8:9e:6b:82:2c:
        ee:8d:4e:1a:0f:01:93:f8:88:68:ce:b9:0d:55:5e:26:12:de:
        4c:0a:e6:f5:ee:3b:af:b7:ba:bb:5e:0f:23:c9:0f:66:11:19:
        15:6a:0e:6d:e0:db:74:9a:36:a5:2c:3e:30:7e:2c:9b:c0:34:
        57:84:db:e7:7a:c8:b3:48:09:28:dc:0f:a9:19:f7:16:df:ef:
        c5:06:0a:98:32:62:8c:75:44:2f:34:6c:8e:bf:f0:38:5c:41:
        16:2f:5e:71:b0:4a:1a:e6:aa:e1:85:98:08:5d:27:88:a8:0e:
        5c:96:8c:18:c8:e1:ce:dc:08:35:87:10:eb:52:ce:39:ae:f1:
        ed:88:21:45:bc:eb:2b:af:8a:ec:19:c9:f6:9e:74:c2:72:b5:
        43:79:8d:01:1b:c4:f0:0a:9e:0d:b2:df:75:9c:24:0d:05:54:
        1f:e6:76:78:e7:06:ee:56:b4:0d:ae:55:2a:d8:c9:dc:07:0a:
        12:2a:d7:b8
-----BEGIN CERTIFICATE-----
MIID2jCCAsKgAwIBAgIBATANBgkqhkiG9w0BAQsFADB+MRIwEAYKCZImiZPyLGQB
GRYCY2ExFDASBgoJkiaJk/IsZAEZFgRsYWI1MRkwFwYDVQQKDBBMYWI1IERldk9w
cyBJbmMuMRQwEgYDVQQLDAt3d3cubGFiNS5jYTEhMB8GA1UEAwwYTGFiNSBEZXZP
cHMgSW5jLiBSb290IENBMB4XDTIyMTIwOTE2MTYzNFoXDTMyMTIwODE2MTYzNFow
fjESMBAGCgmSJomT8ixkARkWAmNhMRQwEgYKCZImiZPyLGQBGRYEbGFiNTEZMBcG
A1UECgwQTGFiNSBEZXZPcHMgSW5jLjEUMBIGA1UECwwLd3d3LmxhYjUuY2ExITAf
BgNVBAMMGExhYjUgRGV2T3BzIEluYy4gUm9vdCBDQTCCASIwDQYJKoZIhvcNAQEB
BQADggEPADCCAQoCggEBAN2WvVMmeHmu+oI3syK3vMpTUc5VDhSJXRW+IPyPMQ2h
OeBJcRwvEyfPj71Va8Sl7cdZZk9kPFLAmKXW0AaMZ2MZ51lAzrKmWOD0uReQN2hK
sJRS02u5yEb7WGaFNtGcwositlMFJOivgSkxBnvGQPQeD1NDRs8CvtyRY5x+rXlJ
KgbMLGWuxPSJQR7XQvxSr8TZ8cUhZ3f6lkpAhkxLEyPqv4I8jpfETq3r/J0XU8zy
FC9hr3AQuML4aONQcxJb/NKNJ8KoEaaJj5AzZXpIrh8etiPNQ3Rw1SOZyu3e+/gS
GjMYgCbcMzhU50jz95ueKEJcE/pO7i22ZBAoz/F6KxcCAwEAAaNjMGEwDgYDVR0P
AQH/BAQDAgEGMA8GA1UdEwEB/wQFMAMBAf8wHQYDVR0OBBYEFJ62O6Z88Mm2jIYv
TFLxLrWfJlAnMB8GA1UdIwQYMBaAFJ62O6Z88Mm2jIYvTFLxLrWfJlAnMA0GCSqG
SIb3DQEBCwUAA4IBAQANeG9hYdy3FIehFbf4HmFukqVpKytl+gNNclXK7WyCUfAY
rtOY6M8pmC0+JhujCdZEr2J3nZt7eAGP8LAVBYnr6Rp26J5rgizujU4aDwGT+Iho
zrkNVV4mEt5MCub17juvt7q7Xg8jyQ9mERkVag5t4Nt0mjalLD4wfiybwDRXhNvn
esizSAko3A+pGfcW3+/FBgqYMmKMdUQvNGyOv/A4XEEWL15xsEoa5qrhhZgIXSeI
qA5clowYyOHO3Ag1hxDrUs45rvHtiCFFvOsrr4rsGcn2nnTCcrVDeY0BG8TwCp4N
st91nCQNBVQf5nZ45wbuVrQNrlUq2MncBwoSKte4
-----END CERTIFICATE-----
Certificate:
    Data:
        Version: 3 (0x2)
        Serial Number: 2 (0x2)
        Signature Algorithm: sha256WithRSAEncryption
        Issuer: DC=ca, DC=lab5, O=Lab5 DevOps Inc., OU=www.lab5.ca, CN=Lab5 DevOps Inc. Root CA
        Validity
            Not Before: Dec  9 16:16:36 2022 GMT
            Not After : Dec  8 16:16:36 2032 GMT
        Subject: DC=ca, DC=lab5, O=Lab5 DevOps Inc., OU=www.lab5.ca, CN=Lab5 DevOps Inc. Issuing CA
        Subject Public Key Info:
            Public Key Algorithm: rsaEncryption
                Public-Key: (2048 bit)
                Modulus:
                    00:ea:64:48:b3:9d:f7:5f:35:8e:d6:49:d1:cf:57:
                    a9:93:8f:64:cb:4b:b0:37:b9:dc:d3:2f:b4:db:d9:
                    83:fd:18:5a:78:b0:3c:e5:14:08:57:03:9b:d1:33:
                    f4:76:6a:e3:a8:36:d6:7c:cb:5a:ba:b9:d1:59:89:
                    f8:d3:52:43:4d:c0:8a:3e:9a:45:1f:2b:ac:2f:7c:
                    cd:23:c7:3a:12:e7:21:56:6e:35:5e:f0:3d:ca:ad:
                    6c:c9:16:47:d0:b7:50:52:d2:57:2b:4e:e9:bb:44:
                    b0:2f:b1:fd:b4:20:58:f2:ea:48:55:f2:f9:fa:41:
                    17:15:df:9c:f7:81:f7:ed:1d:5f:6f:9e:41:48:da:
                    45:75:77:00:31:be:a8:f1:c4:87:d2:06:94:89:af:
                    1c:f5:6e:74:28:56:2b:1f:63:22:33:15:69:87:1b:
                    52:6c:03:df:57:94:34:a1:82:7d:76:a6:f6:e0:ba:
                    c6:e7:ee:56:49:de:a8:da:c4:1f:7d:44:7f:b5:7b:
                    b9:e4:f6:0f:d3:8c:16:39:ee:ed:03:e8:b3:c0:41:
                    6a:ba:34:f7:bb:11:52:75:8e:a4:86:83:15:e0:22:
                    33:2b:0b:d6:1e:4a:cc:39:77:94:71:aa:29:a2:5c:
                    5b:e4:2e:7f:4e:72:e2:e4:9d:3d:1d:67:2a:6f:ea:
                    4c:cb
                Exponent: 65537 (0x10001)
        X509v3 extensions:
            X509v3 Key Usage: critical
                Certificate Sign, CRL Sign
            X509v3 Basic Constraints: critical
                CA:TRUE, pathlen:0
            X509v3 Subject Key Identifier: 
                72:8D:C3:15:FA:A1:A8:FD:14:5B:BB:5C:1A:05:FB:57:A6:2C:6D:74
            X509v3 Authority Key Identifier: 
                9E:B6:3B:A6:7C:F0:C9:B6:8C:86:2F:4C:52:F1:2E:B5:9F:26:50:27
    Signature Algorithm: sha256WithRSAEncryption
    Signature Value:
        a3:14:0c:6a:86:f2:cd:74:a4:51:d1:93:b9:4c:88:55:83:ef:
        84:26:98:fb:06:b0:01:4b:2e:a4:9d:a2:f7:66:95:27:62:e3:
        8b:13:cd:61:07:41:62:ff:f7:7f:78:78:bc:93:2f:d3:ff:ff:
        ea:8f:23:44:ba:bf:6e:6b:a3:44:87:b8:4d:af:1d:f1:d3:13:
        95:15:76:de:c7:69:e1:2c:4c:bc:8f:fa:0a:a0:e4:06:7f:53:
        97:a0:22:7b:7c:b7:05:9d:95:9c:eb:dd:db:81:21:d7:8d:48:
        ce:da:33:b8:aa:78:23:9d:45:78:9c:26:af:85:a3:a0:e6:a2:
        bf:70:f3:9b:04:32:aa:44:82:16:34:00:4a:04:39:aa:f7:a6:
        f9:72:82:16:29:7a:6e:d6:92:cd:b4:31:2b:85:78:37:f2:8e:
        5d:94:31:b5:96:f4:77:44:06:f0:e9:73:41:eb:53:8b:5f:27:
        a1:f2:7b:4f:0e:c9:cf:b9:55:b5:eb:79:3e:03:33:6e:be:36:
        a3:36:83:c8:67:71:74:c3:91:c1:0a:ea:b9:ab:72:23:37:ae:
        a2:4d:e6:4f:e4:1d:cf:c1:a1:86:60:13:aa:59:f3:df:3f:e2:
        61:04:29:ac:c1:a5:29:63:d8:fe:37:74:4a:9b:c0:34:5d:5e:
        02:fe:67:86
-----BEGIN CERTIFICATE-----
MIID4TCCAsmgAwIBAgIBAjANBgkqhkiG9w0BAQsFADB+MRIwEAYKCZImiZPyLGQB
GRYCY2ExFDASBgoJkiaJk/IsZAEZFgRsYWI1MRkwFwYDVQQKDBBMYWI1IERldk9w
cyBJbmMuMRQwEgYDVQQLDAt3d3cubGFiNS5jYTEhMB8GA1UEAwwYTGFiNSBEZXZP
cHMgSW5jLiBSb290IENBMB4XDTIyMTIwOTE2MTYzNloXDTMyMTIwODE2MTYzNlow
gYExEjAQBgoJkiaJk/IsZAEZFgJjYTEUMBIGCgmSJomT8ixkARkWBGxhYjUxGTAX
BgNVBAoMEExhYjUgRGV2T3BzIEluYy4xFDASBgNVBAsMC3d3dy5sYWI1LmNhMSQw
IgYDVQQDDBtMYWI1IERldk9wcyBJbmMuIElzc3VpbmcgQ0EwggEiMA0GCSqGSIb3
DQEBAQUAA4IBDwAwggEKAoIBAQDqZEiznfdfNY7WSdHPV6mTj2TLS7A3udzTL7Tb
2YP9GFp4sDzlFAhXA5vRM/R2auOoNtZ8y1q6udFZifjTUkNNwIo+mkUfK6wvfM0j
xzoS5yFWbjVe8D3KrWzJFkfQt1BS0lcrTum7RLAvsf20IFjy6khV8vn6QRcV35z3
gfftHV9vnkFI2kV1dwAxvqjxxIfSBpSJrxz1bnQoVisfYyIzFWmHG1JsA99XlDSh
gn12pvbgusbn7lZJ3qjaxB99RH+1e7nk9g/TjBY57u0D6LPAQWq6NPe7EVJ1jqSG
gxXgIjMrC9YeSsw5d5RxqimiXFvkLn9OcuLknT0dZypv6kzLAgMBAAGjZjBkMA4G
A1UdDwEB/wQEAwIBBjASBgNVHRMBAf8ECDAGAQH/AgEAMB0GA1UdDgQWBBRyjcMV
+qGo/RRbu1waBftXpixtdDAfBgNVHSMEGDAWgBSetjumfPDJtoyGL0xS8S61nyZQ
JzANBgkqhkiG9w0BAQsFAAOCAQEAoxQMaobyzXSkUdGTuUyIVYPvhCaY+wawAUsu
pJ2i92aVJ2LjixPNYQdBYv/3f3h4vJMv0///6o8jRLq/bmujRIe4Ta8d8dMTlRV2
3sdp4SxMvI/6CqDkBn9Tl6Aie3y3BZ2VnOvd24Eh141IztozuKp4I51FeJwmr4Wj
oOaiv3DzmwQyqkSCFjQASgQ5qvem+XKCFil6btaSzbQxK4V4N/KOXZQxtZb0d0QG
8OlzQetTi18nofJ7Tw7Jz7lVtet5PgMzbr42ozaDyGdxdMORwQrquatyIzeuok3m
T+Qdz8GhhmATqlnz3z/iYQQprMGlKWPY/jd0SpvANF1eAv5nhg==
-----END CERTIFICATE-----
