Certificate:
    Data:
        Version: 3 (0x2)
        Serial Number: 1 (0x1)
        Signature Algorithm: ED25519
        Issuer: DC=ca, DC=lab5, O=Lab5 DevOps Inc., OU=www.lab5.ca, CN=Lab5 DevOps Inc. Root CA
        Validity
            Not Before: Jun  2 14:22:25 2023 GMT
            Not After : Jun  1 14:22:25 2033 GMT
        Subject: DC=ca, DC=lab5, O=Lab5 DevOps Inc., OU=www.lab5.ca, CN=Lab5 DevOps Inc. Root CA
        Subject Public Key Info:
            Public Key Algorithm: ED25519
                ED25519 Public-Key:
                pub:
                    8d:11:e0:e9:2a:b1:af:52:1c:85:9c:74:82:b9:f1:
                    cf:2f:aa:c2:c0:fa:a3:07:e7:d1:a8:1d:eb:96:9e:
                    80:77
        X509v3 extensions:
            X509v3 Key Usage: critical
                Certificate Sign, CRL Sign
            X509v3 Basic Constraints: critical
                CA:TRUE
            X509v3 Subject Key Identifier: 
                FD:87:07:FE:3D:0F:DF:86:4B:74:86:C1:C7:B7:9B:F1:25:8C:D9:54
            X509v3 Authority Key Identifier: 
                FD:87:07:FE:3D:0F:DF:86:4B:74:86:C1:C7:B7:9B:F1:25:8C:D9:54
    Signature Algorithm: ED25519
    Signature Value:
        f0:2a:57:50:56:0f:32:af:b2:b0:6f:63:1d:e8:27:bf:e6:11:
        59:05:d1:b8:0d:5d:79:29:30:61:00:21:15:c2:e7:8c:56:e3:
        e4:00:83:14:df:c3:ba:ea:71:15:1e:21:0d:92:99:8d:d8:5a:
        e1:14:c1:dd:e8:ae:a6:2c:31:02
-----BEGIN CERTIFICATE-----
MIICDjCCAcCgAwIBAgIBATAFBgMrZXAwfjESMBAGCgmSJomT8ixkARkWAmNhMRQw
EgYKCZImiZPyLGQBGRYEbGFiNTEZMBcGA1UECgwQTGFiNSBEZXZPcHMgSW5jLjEU
MBIGA1UECwwLd3d3LmxhYjUuY2ExITAfBgNVBAMMGExhYjUgRGV2T3BzIEluYy4g
Um9vdCBDQTAeFw0yMzA2MDIxNDIyMjVaFw0zMzA2MDExNDIyMjVaMH4xEjAQBgoJ
kiaJk/IsZAEZFgJjYTEUMBIGCgmSJomT8ixkARkWBGxhYjUxGTAXBgNVBAoMEExh
YjUgRGV2T3BzIEluYy4xFDASBgNVBAsMC3d3dy5sYWI1LmNhMSEwHwYDVQQDDBhM
YWI1IERldk9wcyBJbmMuIFJvb3QgQ0EwKjAFBgMrZXADIQCNEeDpKrGvUhyFnHSC
ufHPL6rCwPqjB+fRqB3rlp6Ad6NjMGEwDgYDVR0PAQH/BAQDAgEGMA8GA1UdEwEB
/wQFMAMBAf8wHQYDVR0OBBYEFP2HB/49D9+GS3SGwce3m/EljNlUMB8GA1UdIwQY
MBaAFP2HB/49D9+GS3SGwce3m/EljNlUMAUGAytlcANBAPAqV1BWDzKvsrBvYx3o
J7/mEVkF0bgNXXkpMGEAIRXC54xW4+QAgxTfw7rqcRUeIQ2SmY3YWuEUwd3orqYs
MQI=
-----END CERTIFICATE-----
Certificate:
    Data:
        Version: 3 (0x2)
        Serial Number: 2 (0x2)
        Signature Algorithm: ED25519
        Issuer: DC=ca, DC=lab5, O=Lab5 DevOps Inc., OU=www.lab5.ca, CN=Lab5 DevOps Inc. Root CA
        Validity
            Not Before: Jun  2 14:22:28 2023 GMT
            Not After : Jun  1 14:22:28 2033 GMT
        Subject: DC=ca, DC=lab5, O=Lab5 DevOps Inc., OU=www.lab5.ca, CN=Lab5 DevOps Inc. Issuing CA
        Subject Public Key Info:
            Public Key Algorithm: ED25519
                ED25519 Public-Key:
                pub:
                    23:e8:21:e0:49:04:e7:68:b8:ad:e0:7b:3d:ae:17:
                    dd:8c:a1:38:f4:22:80:3f:74:16:76:39:f5:c7:f7:
                    05:b3
        X509v3 extensions:
            X509v3 Key Usage: critical
                Certificate Sign, CRL Sign
            X509v3 Basic Constraints: critical
                CA:TRUE, pathlen:0
            X509v3 Subject Key Identifier: 
                FB:41:9A:28:A5:CC:B5:02:F0:E0:07:F7:1C:67:13:80:D8:63:3B:60
            X509v3 Authority Key Identifier: 
                FD:87:07:FE:3D:0F:DF:86:4B:74:86:C1:C7:B7:9B:F1:25:8C:D9:54
    Signature Algorithm: ED25519
    Signature Value:
        ec:2c:7c:35:10:9f:18:a0:62:67:44:db:20:d9:52:c3:d4:0b:
        85:1e:9c:e2:b5:c5:eb:02:b6:05:f8:5d:8e:bd:b0:89:4b:dc:
        99:24:48:f0:d5:90:71:55:35:7c:90:ab:8f:89:f9:61:fd:92:
        e9:cc:22:78:25:ad:3a:b6:77:06
-----BEGIN CERTIFICATE-----
MIICFTCCAcegAwIBAgIBAjAFBgMrZXAwfjESMBAGCgmSJomT8ixkARkWAmNhMRQw
EgYKCZImiZPyLGQBGRYEbGFiNTEZMBcGA1UECgwQTGFiNSBEZXZPcHMgSW5jLjEU
MBIGA1UECwwLd3d3LmxhYjUuY2ExITAfBgNVBAMMGExhYjUgRGV2T3BzIEluYy4g
Um9vdCBDQTAeFw0yMzA2MDIxNDIyMjhaFw0zMzA2MDExNDIyMjhaMIGBMRIwEAYK
CZImiZPyLGQBGRYCY2ExFDASBgoJkiaJk/IsZAEZFgRsYWI1MRkwFwYDVQQKDBBM
YWI1IERldk9wcyBJbmMuMRQwEgYDVQQLDAt3d3cubGFiNS5jYTEkMCIGA1UEAwwb
TGFiNSBEZXZPcHMgSW5jLiBJc3N1aW5nIENBMCowBQYDK2VwAyEAI+gh4EkE52i4
reB7Pa4X3YyhOPQigD90FnY59cf3BbOjZjBkMA4GA1UdDwEB/wQEAwIBBjASBgNV
HRMBAf8ECDAGAQH/AgEAMB0GA1UdDgQWBBT7QZoopcy1AvDgB/ccZxOA2GM7YDAf
BgNVHSMEGDAWgBT9hwf+PQ/fhkt0hsHHt5vxJYzZVDAFBgMrZXADQQDsLHw1EJ8Y
oGJnRNsg2VLD1AuFHpzitcXrArYF+F2OvbCJS9yZJEjw1ZBxVTV8kKuPiflh/ZLp
zCJ4Ja06tncG
-----END CERTIFICATE-----
