Certificate:
    Data:
        Version: 3 (0x2)
        Serial Number: 1 (0x1)
        Signature Algorithm: sha256WithRSAEncryption
        Issuer: DC=ca, DC=lab5, O=Lab5 DevOps Inc., OU=www.lab5.ca, CN=Root CA G1
        Validity
            Not Before: May 29 13:52:37 2022 GMT
            Not After : May 28 13:52:37 2032 GMT
        Subject: DC=ca, DC=lab5, O=Lab5 DevOps Inc., OU=www.lab5.ca, CN=Root CA G1
        Subject Public Key Info:
            Public Key Algorithm: rsaEncryption
                RSA Public-Key: (2048 bit)
                Modulus:
                    00:a5:b6:41:d0:8a:33:29:65:22:58:00:00:96:04:
                    46:40:e2:3f:71:bb:e8:fa:7f:bc:fa:97:4b:85:66:
                    e3:9f:33:39:e7:34:22:3a:90:63:e4:4c:86:20:74:
                    d5:bb:fb:c6:bb:2c:bf:97:70:20:f5:91:3e:49:3d:
                    52:ff:30:83:72:e1:2b:b1:92:d0:a1:cf:fa:87:c6:
                    c9:38:79:32:b3:9d:37:b7:ff:18:34:b4:94:72:71:
                    47:87:55:b2:a7:9a:8a:7a:8e:60:1c:75:3e:67:44:
                    a5:8d:b0:77:ea:6f:ce:47:33:3e:e3:b3:57:ef:e0:
                    f8:26:1a:dd:23:87:e5:8a:d8:58:8d:78:ba:e6:3c:
                    26:fd:22:83:ea:e9:fe:af:d0:d4:8d:8d:45:77:fb:
                    91:9e:8c:42:1d:1d:8a:07:cc:3d:86:c1:9b:03:71:
                    70:9d:0c:85:f4:d2:42:91:c1:24:be:b7:02:e0:d1:
                    98:56:74:ac:e3:97:77:86:79:27:f6:66:c9:5d:ec:
                    15:51:37:32:50:20:56:84:9b:e7:d3:b5:80:2f:7a:
                    0f:8a:12:70:49:2a:d5:74:ba:73:1a:19:38:82:5c:
                    40:0b:00:1c:b7:44:9e:12:f8:c4:66:d2:ce:cc:3c:
                    22:94:22:85:b6:0b:3e:8f:b5:e2:b6:d3:b6:44:a8:
                    83:15
                Exponent: 65537 (0x10001)
        X509v3 extensions:
            X509v3 Key Usage: critical
                Certificate Sign, CRL Sign
            X509v3 Basic Constraints: critical
                CA:TRUE
            X509v3 Subject Key Identifier: 
                3F:35:67:A3:12:2D:7B:A3:F6:9F:94:4D:26:D7:D4:F2:57:2B:24:58
            X509v3 Authority Key Identifier: 
                keyid:3F:35:67:A3:12:2D:7B:A3:F6:9F:94:4D:26:D7:D4:F2:57:2B:24:58

    Signature Algorithm: sha256WithRSAEncryption
         86:3b:76:da:30:ae:1f:eb:2f:98:c9:12:de:9d:09:7e:5b:55:
         67:29:31:03:d2:2a:39:0c:44:80:10:3b:95:1a:81:9d:6c:b3:
         aa:2c:36:2e:51:5f:22:a2:62:99:30:10:7c:cf:3b:66:b4:bc:
         dc:be:39:6c:b5:23:f8:a8:c9:e8:23:80:9c:a2:36:1d:67:35:
         c3:ef:74:0f:17:ce:bc:d4:cd:a1:d4:be:e0:8b:b8:47:0b:87:
         71:30:b2:96:c0:45:a1:73:9a:27:c7:65:7e:96:80:e1:74:f6:
         21:29:ed:a6:9b:eb:6b:0c:57:e6:90:6b:d7:f8:25:5b:c6:98:
         d3:53:20:c0:e9:35:b6:38:00:53:4b:9c:f6:28:55:20:b6:f3:
         e4:ab:f9:d4:bf:1c:c2:df:0f:5b:50:05:87:80:03:91:6c:6f:
         36:d0:c4:2c:85:89:fc:9d:c5:c4:5c:26:6a:3a:fe:30:28:8f:
         3f:cd:67:df:c4:f2:f1:78:af:e1:76:10:2f:40:49:e6:7c:b7:
         50:8b:b8:60:68:37:23:a4:34:bc:ae:24:29:4c:f2:75:e6:d4:
         da:34:d6:4e:10:c0:4e:c6:a9:a0:31:1a:e7:ab:aa:27:71:c4:
         f5:67:3d:b8:69:ca:b5:cb:ba:83:f1:5c:3e:2d:60:29:87:d2:
         b3:67:d0:6c
-----BEGIN CERTIFICATE-----
MIIDvjCCAqagAwIBAgIBATANBgkqhkiG9w0BAQsFADBwMRIwEAYKCZImiZPyLGQB
GRYCY2ExFDASBgoJkiaJk/IsZAEZFgRsYWI1MRkwFwYDVQQKDBBMYWI1IERldk9w
cyBJbmMuMRQwEgYDVQQLDAt3d3cubGFiNS5jYTETMBEGA1UEAwwKUm9vdCBDQSBH
MTAeFw0yMjA1MjkxMzUyMzdaFw0zMjA1MjgxMzUyMzdaMHAxEjAQBgoJkiaJk/Is
ZAEZFgJjYTEUMBIGCgmSJomT8ixkARkWBGxhYjUxGTAXBgNVBAoMEExhYjUgRGV2
T3BzIEluYy4xFDASBgNVBAsMC3d3dy5sYWI1LmNhMRMwEQYDVQQDDApSb290IENB
IEcxMIIBIjANBgkqhkiG9w0BAQEFAAOCAQ8AMIIBCgKCAQEApbZB0IozKWUiWAAA
lgRGQOI/cbvo+n+8+pdLhWbjnzM55zQiOpBj5EyGIHTVu/vGuyy/l3Ag9ZE+ST1S
/zCDcuErsZLQoc/6h8bJOHkys503t/8YNLSUcnFHh1Wyp5qKeo5gHHU+Z0SljbB3
6m/ORzM+47NX7+D4JhrdI4flithYjXi65jwm/SKD6un+r9DUjY1Fd/uRnoxCHR2K
B8w9hsGbA3FwnQyF9NJCkcEkvrcC4NGYVnSs45d3hnkn9mbJXewVUTcyUCBWhJvn
07WAL3oPihJwSSrVdLpzGhk4glxACwAct0SeEvjEZtLOzDwilCKFtgs+j7XittO2
RKiDFQIDAQABo2MwYTAOBgNVHQ8BAf8EBAMCAQYwDwYDVR0TAQH/BAUwAwEB/zAd
BgNVHQ4EFgQUPzVnoxIte6P2n5RNJtfU8lcrJFgwHwYDVR0jBBgwFoAUPzVnoxIt
e6P2n5RNJtfU8lcrJFgwDQYJKoZIhvcNAQELBQADggEBAIY7dtowrh/rL5jJEt6d
CX5bVWcpMQPSKjkMRIAQO5UagZ1ss6osNi5RXyKiYpkwEHzPO2a0vNy+OWy1I/io
yegjgJyiNh1nNcPvdA8XzrzUzaHUvuCLuEcLh3EwspbARaFzmifHZX6WgOF09iEp
7aab62sMV+aQa9f4JVvGmNNTIMDpNbY4AFNLnPYoVSC28+Sr+dS/HMLfD1tQBYeA
A5FsbzbQxCyFifydxcRcJmo6/jAojz/NZ9/E8vF4r+F2EC9ASeZ8t1CLuGBoNyOk
NLyuJClM8nXm1No01k4QwE7GqaAxGuerqidxxPVnPbhpyrXLuoPxXD4tYCmH0rNn
0Gw=
-----END CERTIFICATE-----
Certificate:
    Data:
        Version: 3 (0x2)
        Serial Number: 2 (0x2)
        Signature Algorithm: sha256WithRSAEncryption
        Issuer: DC=ca, DC=lab5, O=Lab5 DevOps Inc., OU=www.lab5.ca, CN=Root CA G1
        Validity
            Not Before: May 29 13:52:42 2022 GMT
            Not After : May 28 13:52:42 2032 GMT
        Subject: DC=ca, DC=lab5, O=Lab5 DevOps Inc., OU=www.lab5.ca, CN=Issuing CA G1
        Subject Public Key Info:
            Public Key Algorithm: rsaEncryption
                RSA Public-Key: (2048 bit)
                Modulus:
                    00:ac:36:8d:95:6c:79:d2:a2:cc:14:c2:c7:3b:1d:
                    61:6b:f4:40:d6:d4:42:7e:cf:bd:af:d7:75:2b:5a:
                    4c:20:de:f5:81:9b:8d:ba:ef:f1:2e:53:61:98:9d:
                    99:cf:d4:18:07:52:cd:40:02:c5:95:0e:c3:03:98:
                    1a:5a:08:e1:94:44:95:48:de:ac:75:b8:21:bc:66:
                    6d:52:79:31:24:33:2f:0c:e8:a5:67:b2:1d:77:ac:
                    f3:63:be:0c:d0:fc:3c:40:b1:83:b0:19:4d:f0:04:
                    d4:f4:03:24:c2:5f:02:9e:1c:73:1a:6c:fa:73:1f:
                    1e:16:9c:c0:c7:b0:a6:46:3e:57:63:30:48:cf:00:
                    20:97:a6:bf:06:61:8c:d6:b8:d3:e6:88:af:b1:8b:
                    77:95:6a:dc:e5:d9:28:0f:92:72:8a:9a:e9:02:7c:
                    68:72:a9:2f:0c:50:66:5e:01:95:36:74:f0:15:f3:
                    00:91:74:4c:c8:93:0e:07:c6:7d:3a:03:05:35:f0:
                    28:c5:66:ab:a7:68:05:e4:9f:68:ba:03:ea:a2:57:
                    8c:c3:b9:de:2d:2a:ae:09:9c:cf:57:ed:54:90:36:
                    ba:cf:28:89:fb:c0:8f:95:86:c6:f4:2b:c1:2f:90:
                    9b:fc:9a:a4:8b:99:bb:fb:97:9e:3d:78:b4:58:06:
                    97:cb
                Exponent: 65537 (0x10001)
        X509v3 extensions:
            X509v3 Key Usage: critical
                Certificate Sign, CRL Sign
            X509v3 Basic Constraints: critical
                CA:TRUE, pathlen:0
            X509v3 Subject Key Identifier: 
                FE:35:81:B6:F5:90:C2:B0:C2:03:C0:85:05:5D:1C:A1:EF:98:98:76
            X509v3 Authority Key Identifier: 
                keyid:3F:35:67:A3:12:2D:7B:A3:F6:9F:94:4D:26:D7:D4:F2:57:2B:24:58

    Signature Algorithm: sha256WithRSAEncryption
         2b:43:db:c1:79:de:84:8f:5e:cb:33:50:42:d2:4a:35:09:87:
         25:18:6f:7d:ed:7d:78:c0:fa:7f:29:e6:20:8b:e1:ff:b5:9f:
         a4:a5:21:fe:13:18:5e:df:19:bb:15:e1:11:81:8a:d3:67:7c:
         09:5e:f1:88:fa:42:38:88:91:2d:af:1d:43:b0:84:e7:4f:21:
         f4:b1:5d:03:a6:ca:71:2c:03:87:da:cf:25:81:02:74:69:14:
         f9:66:ca:0a:77:5c:c9:63:20:54:b9:fa:cf:4a:92:70:25:ec:
         5e:a5:b1:16:3e:de:55:b0:a2:47:9e:0c:84:ed:63:5a:5b:4f:
         60:2c:7b:c3:e6:ad:e4:49:07:cc:94:9c:ea:a4:01:61:93:5a:
         06:7c:8e:85:bc:32:39:54:93:d0:2e:5a:a5:e4:7c:10:a4:bd:
         84:a8:7c:3e:04:3c:f8:a8:09:c1:ab:45:07:cd:81:57:60:5d:
         6b:66:89:ed:c4:85:f5:55:3f:77:23:b5:02:f3:0a:af:97:14:
         0e:b0:3d:48:47:cd:e0:36:03:ca:58:a0:89:52:d4:ae:7b:4c:
         a8:af:81:1f:c1:f3:0a:f8:f9:43:62:8e:97:c9:50:a8:e6:e9:
         bc:95:ad:25:bd:9e:8a:77:dc:f9:f9:3f:b0:64:5d:21:4c:2c:
         d6:6c:b1:d8
-----BEGIN CERTIFICATE-----
MIIDxDCCAqygAwIBAgIBAjANBgkqhkiG9w0BAQsFADBwMRIwEAYKCZImiZPyLGQB
GRYCY2ExFDASBgoJkiaJk/IsZAEZFgRsYWI1MRkwFwYDVQQKDBBMYWI1IERldk9w
cyBJbmMuMRQwEgYDVQQLDAt3d3cubGFiNS5jYTETMBEGA1UEAwwKUm9vdCBDQSBH
MTAeFw0yMjA1MjkxMzUyNDJaFw0zMjA1MjgxMzUyNDJaMHMxEjAQBgoJkiaJk/Is
ZAEZFgJjYTEUMBIGCgmSJomT8ixkARkWBGxhYjUxGTAXBgNVBAoMEExhYjUgRGV2
T3BzIEluYy4xFDASBgNVBAsMC3d3dy5sYWI1LmNhMRYwFAYDVQQDDA1Jc3N1aW5n
IENBIEcxMIIBIjANBgkqhkiG9w0BAQEFAAOCAQ8AMIIBCgKCAQEArDaNlWx50qLM
FMLHOx1ha/RA1tRCfs+9r9d1K1pMIN71gZuNuu/xLlNhmJ2Zz9QYB1LNQALFlQ7D
A5gaWgjhlESVSN6sdbghvGZtUnkxJDMvDOilZ7Idd6zzY74M0Pw8QLGDsBlN8ATU
9AMkwl8CnhxzGmz6cx8eFpzAx7CmRj5XYzBIzwAgl6a/BmGM1rjT5oivsYt3lWrc
5dkoD5JyiprpAnxocqkvDFBmXgGVNnTwFfMAkXRMyJMOB8Z9OgMFNfAoxWarp2gF
5J9ougPqoleMw7neLSquCZzPV+1UkDa6zyiJ+8CPlYbG9CvBL5Cb/Jqki5m7+5ee
PXi0WAaXywIDAQABo2YwZDAOBgNVHQ8BAf8EBAMCAQYwEgYDVR0TAQH/BAgwBgEB
/wIBADAdBgNVHQ4EFgQU/jWBtvWQwrDCA8CFBV0coe+YmHYwHwYDVR0jBBgwFoAU
PzVnoxIte6P2n5RNJtfU8lcrJFgwDQYJKoZIhvcNAQELBQADggEBACtD28F53oSP
XsszUELSSjUJhyUYb33tfXjA+n8p5iCL4f+1n6SlIf4TGF7fGbsV4RGBitNnfAle
8Yj6QjiIkS2vHUOwhOdPIfSxXQOmynEsA4fazyWBAnRpFPlmygp3XMljIFS5+s9K
knAl7F6lsRY+3lWwokeeDITtY1pbT2Ase8PmreRJB8yUnOqkAWGTWgZ8joW8MjlU
k9AuWqXkfBCkvYSofD4EPPioCcGrRQfNgVdgXWtmie3EhfVVP3cjtQLzCq+XFA6w
PUhHzeA2A8pYoIlS1K57TKivgR/B8wr4+UNijpfJUKjm6byVrSW9nop33Pn5P7Bk
XSFMLNZssdg=
-----END CERTIFICATE-----
