Certificate:
    Data:
        Version: 3 (0x2)
        Serial Number: 1 (0x1)
        Signature Algorithm: sha256WithRSAEncryption
        Issuer: DC=ca, DC=lab5, O=Lab5 DevOps Inc., OU=www.lab5.ca, CN=Lab5 DevOps Inc. Root CA
        Validity
            Not Before: Dec  4 14:58:02 2022 GMT
            Not After : Dec  3 14:58:02 2032 GMT
        Subject: DC=ca, DC=lab5, O=Lab5 DevOps Inc., OU=www.lab5.ca, CN=Lab5 DevOps Inc. Root CA
        Subject Public Key Info:
            Public Key Algorithm: rsaEncryption
                Public-Key: (2048 bit)
                Modulus:
                    00:cd:b9:ee:fa:55:bf:80:e5:09:10:b1:6f:f7:c0:
                    0b:03:c1:ad:93:f3:56:33:ca:85:e2:60:4b:52:9f:
                    6c:da:1b:8a:32:81:9a:0f:92:c7:75:9e:df:c4:69:
                    fc:41:92:04:47:8b:66:05:a3:0f:8a:ab:78:f4:4e:
                    5d:bf:cf:9d:9f:2f:3e:80:5c:33:0a:3c:7b:a6:8a:
                    9f:aa:81:26:67:3d:34:ef:28:ae:33:dd:b8:bd:44:
                    6f:15:26:ea:1e:6c:42:ed:17:e5:ce:1f:65:90:0b:
                    8b:33:3e:60:dd:6b:fb:a4:2a:87:3a:94:2d:5f:f6:
                    85:b4:da:6e:5b:93:d8:d8:dc:6a:21:a7:03:d7:38:
                    4f:f8:45:18:dc:ac:25:03:16:3d:26:d3:1c:72:50:
                    df:ce:e5:e3:80:b2:fa:c6:2a:13:08:13:3d:10:e9:
                    8c:2c:c7:07:a4:bd:58:a3:b3:2c:1f:fe:cf:9e:6f:
                    35:b7:ba:07:bf:e1:1e:0c:c1:35:82:6c:6b:41:ba:
                    ae:9d:34:eb:2d:b1:9a:91:ed:b1:64:1e:8d:89:3e:
                    01:25:f1:50:fc:48:24:48:66:d5:1a:55:37:e4:bf:
                    f9:6e:d8:8c:9f:ec:ae:51:5b:79:c9:05:f8:e1:9c:
                    26:09:45:2d:9e:b7:c1:26:dc:64:70:6a:2d:27:71:
                    d7:f7
                Exponent: 65537 (0x10001)
        X509v3 extensions:
            X509v3 Key Usage: critical
                Certificate Sign, CRL Sign
            X509v3 Basic Constraints: critical
                CA:TRUE
            X509v3 Subject Key Identifier: 
                25:EC:D6:5E:F3:68:47:5B:7C:61:0B:CB:8D:6C:C3:AC:EA:F0:EA:01
            X509v3 Authority Key Identifier: 
                25:EC:D6:5E:F3:68:47:5B:7C:61:0B:CB:8D:6C:C3:AC:EA:F0:EA:01
    Signature Algorithm: sha256WithRSAEncryption
    Signature Value:
        94:91:6c:bf:c6:a8:21:bb:a8:bb:da:a0:f0:54:ad:e9:89:e3:
        f2:e7:1f:65:0c:18:0a:05:4e:fb:4f:04:7b:84:b4:bb:45:86:
        59:93:c2:c6:80:3c:8a:f5:4d:c0:b8:4f:c7:df:c1:2e:96:0f:
        b9:14:fc:4d:82:03:e2:ca:f5:2c:f3:1e:78:2b:cb:d0:51:27:
        01:fb:35:43:65:63:0d:59:a1:6b:30:56:cf:0d:c8:f8:f6:c3:
        48:9e:90:b9:d6:7a:61:68:40:bf:5f:a3:1c:11:9a:cd:a0:85:
        8c:a5:63:e7:fc:27:85:bd:d7:be:3f:fc:50:9f:89:09:77:a0:
        ea:48:0f:ce:b2:10:ea:ba:74:e0:7f:c4:11:37:f0:50:18:56:
        e2:1a:51:7b:dd:29:d5:7a:a9:13:7d:84:c1:6f:11:b2:9b:9a:
        98:2d:90:f4:e0:a0:b7:a1:5d:6c:31:e5:99:04:0d:cc:13:5b:
        a4:fb:4a:a9:0b:b8:39:d6:cf:91:9f:a8:f7:2d:18:c0:65:2a:
        21:69:4c:20:4e:6a:3a:7c:43:6f:01:7b:84:51:60:67:87:6f:
        f1:aa:07:93:dd:bd:ea:a4:05:01:7a:27:b4:a9:2e:91:50:bf:
        8e:85:0b:63:00:cf:5a:fb:ac:42:e3:fa:b9:a2:08:a8:d7:70:
        92:ae:4e:29
-----BEGIN CERTIFICATE-----
MIID2jCCAsKgAwIBAgIBATANBgkqhkiG9w0BAQsFADB+MRIwEAYKCZImiZPyLGQB
GRYCY2ExFDASBgoJkiaJk/IsZAEZFgRsYWI1MRkwFwYDVQQKDBBMYWI1IERldk9w
cyBJbmMuMRQwEgYDVQQLDAt3d3cubGFiNS5jYTEhMB8GA1UEAwwYTGFiNSBEZXZP
cHMgSW5jLiBSb290IENBMB4XDTIyMTIwNDE0NTgwMloXDTMyMTIwMzE0NTgwMlow
fjESMBAGCgmSJomT8ixkARkWAmNhMRQwEgYKCZImiZPyLGQBGRYEbGFiNTEZMBcG
A1UECgwQTGFiNSBEZXZPcHMgSW5jLjEUMBIGA1UECwwLd3d3LmxhYjUuY2ExITAf
BgNVBAMMGExhYjUgRGV2T3BzIEluYy4gUm9vdCBDQTCCASIwDQYJKoZIhvcNAQEB
BQADggEPADCCAQoCggEBAM257vpVv4DlCRCxb/fACwPBrZPzVjPKheJgS1KfbNob
ijKBmg+Sx3We38Rp/EGSBEeLZgWjD4qrePROXb/PnZ8vPoBcMwo8e6aKn6qBJmc9
NO8orjPduL1EbxUm6h5sQu0X5c4fZZALizM+YN1r+6QqhzqULV/2hbTabluT2Njc
aiGnA9c4T/hFGNysJQMWPSbTHHJQ387l44Cy+sYqEwgTPRDpjCzHB6S9WKOzLB/+
z55vNbe6B7/hHgzBNYJsa0G6rp006y2xmpHtsWQejYk+ASXxUPxIJEhm1RpVN+S/
+W7YjJ/srlFbeckF+OGcJglFLZ63wSbcZHBqLSdx1/cCAwEAAaNjMGEwDgYDVR0P
AQH/BAQDAgEGMA8GA1UdEwEB/wQFMAMBAf8wHQYDVR0OBBYEFCXs1l7zaEdbfGEL
y41sw6zq8OoBMB8GA1UdIwQYMBaAFCXs1l7zaEdbfGELy41sw6zq8OoBMA0GCSqG
SIb3DQEBCwUAA4IBAQCUkWy/xqghu6i72qDwVK3piePy5x9lDBgKBU77TwR7hLS7
RYZZk8LGgDyK9U3AuE/H38Eulg+5FPxNggPiyvUs8x54K8vQUScB+zVDZWMNWaFr
MFbPDcj49sNInpC51nphaEC/X6McEZrNoIWMpWPn/CeFvde+P/xQn4kJd6DqSA/O
shDqunTgf8QRN/BQGFbiGlF73SnVeqkTfYTBbxGym5qYLZD04KC3oV1sMeWZBA3M
E1uk+0qpC7g51s+Rn6j3LRjAZSohaUwgTmo6fENvAXuEUWBnh2/xqgeT3b3qpAUB
eie0qS6RUL+OhQtjAM9a+6xC4/q5ogio13CSrk4p
-----END CERTIFICATE-----
Certificate:
    Data:
        Version: 3 (0x2)
        Serial Number: 2 (0x2)
        Signature Algorithm: sha256WithRSAEncryption
        Issuer: DC=ca, DC=lab5, O=Lab5 DevOps Inc., OU=www.lab5.ca, CN=Lab5 DevOps Inc. Root CA
        Validity
            Not Before: Dec  4 14:58:16 2022 GMT
            Not After : Dec  3 14:58:16 2032 GMT
        Subject: DC=ca, DC=lab5, O=Lab5 DevOps Inc., OU=www.lab5.ca, CN=Lab5 DevOps Inc. Issuing CA
        Subject Public Key Info:
            Public Key Algorithm: rsaEncryption
                Public-Key: (2048 bit)
                Modulus:
                    00:c9:81:5a:87:47:fd:ae:c3:0a:8a:93:e5:a9:c6:
                    db:c6:b9:ce:e8:c3:46:61:16:62:d6:58:44:d1:d4:
                    41:ca:97:5f:f7:8b:e2:22:d4:73:4f:3b:fd:c7:d9:
                    7b:a5:3e:3a:b0:94:6f:97:2d:ca:b3:6c:cf:33:2f:
                    6e:b4:1f:6c:85:4d:81:08:6b:06:1e:2a:b5:62:cb:
                    9e:1b:ff:28:3a:3a:f8:5c:3e:df:0a:48:4d:c1:5e:
                    35:5f:fc:47:b6:c6:46:65:f9:b2:b7:31:d3:7e:6c:
                    3b:b5:76:55:81:fc:1b:66:9e:24:cf:ed:9a:0b:09:
                    db:ae:4c:f3:de:dd:42:34:1b:ca:e2:82:71:68:7a:
                    51:1c:78:8b:15:15:4c:be:1e:87:f6:e1:f3:cd:2e:
                    d8:db:9b:9b:ef:44:9f:e6:16:12:72:a4:3f:b1:48:
                    c4:3b:cc:62:22:57:63:8a:80:01:e2:ff:34:56:c8:
                    1b:7f:a5:d6:ff:14:2f:fc:b6:53:56:f5:bb:dc:d3:
                    ec:22:12:04:9c:b0:db:f0:d2:98:79:6d:06:96:24:
                    9c:74:c1:1d:50:7a:67:b5:c0:a8:88:55:13:ba:1c:
                    08:e6:60:c3:d0:76:3d:aa:55:c3:38:94:73:8e:a4:
                    f4:4e:01:ad:e7:4e:a9:6d:de:87:f8:97:33:d8:76:
                    80:df
                Exponent: 65537 (0x10001)
        X509v3 extensions:
            X509v3 Key Usage: critical
                Certificate Sign, CRL Sign
            X509v3 Basic Constraints: critical
                CA:TRUE, pathlen:0
            X509v3 Subject Key Identifier: 
                F4:DB:CC:42:BA:D7:79:E3:35:86:9E:7F:8A:8F:8E:4E:19:A5:A5:C7
            X509v3 Authority Key Identifier: 
                25:EC:D6:5E:F3:68:47:5B:7C:61:0B:CB:8D:6C:C3:AC:EA:F0:EA:01
    Signature Algorithm: sha256WithRSAEncryption
    Signature Value:
        2e:bc:f6:5c:d8:97:c6:d5:09:36:e4:3b:96:16:f2:55:9f:12:
        df:89:d6:57:d8:54:18:ae:a0:1e:4a:80:6b:63:ea:86:1e:d0:
        52:d6:18:a8:c6:3f:e0:db:6c:2e:12:76:67:3f:1c:a0:25:79:
        5d:b7:ea:31:31:3e:ba:80:12:3b:77:a4:4e:d3:29:16:99:aa:
        ca:7d:9c:57:bc:b9:c6:e0:d8:f4:bf:bb:1a:55:a6:48:13:94:
        7b:52:34:6c:50:ae:d0:bf:49:7d:23:b5:c3:58:50:44:20:0b:
        6a:7f:69:b6:cf:a7:4a:32:e5:9c:b4:c5:ba:d5:a7:84:a7:d2:
        7e:51:3f:31:a3:be:ec:30:ec:5c:c5:86:e0:f7:43:6a:9f:bc:
        93:68:61:fd:7c:9d:d5:c3:71:40:eb:67:b2:4c:04:c0:f4:9b:
        3e:33:72:d4:d0:4b:33:30:ce:a5:27:1d:95:71:82:3f:27:bf:
        cc:69:17:1a:f4:0d:89:a1:8f:a8:21:f0:db:d0:c6:ec:61:40:
        30:ca:f9:66:06:17:d3:f1:4c:bb:13:57:4c:14:e6:70:5e:4b:
        db:76:94:63:04:01:28:55:8b:04:54:54:0e:80:bf:30:17:21:
        db:5c:3b:f9:48:56:97:9e:33:f5:01:98:4d:1b:3a:b9:d0:26:
        74:fd:7c:d2
-----BEGIN CERTIFICATE-----
MIID4TCCAsmgAwIBAgIBAjANBgkqhkiG9w0BAQsFADB+MRIwEAYKCZImiZPyLGQB
GRYCY2ExFDASBgoJkiaJk/IsZAEZFgRsYWI1MRkwFwYDVQQKDBBMYWI1IERldk9w
cyBJbmMuMRQwEgYDVQQLDAt3d3cubGFiNS5jYTEhMB8GA1UEAwwYTGFiNSBEZXZP
cHMgSW5jLiBSb290IENBMB4XDTIyMTIwNDE0NTgxNloXDTMyMTIwMzE0NTgxNlow
gYExEjAQBgoJkiaJk/IsZAEZFgJjYTEUMBIGCgmSJomT8ixkARkWBGxhYjUxGTAX
BgNVBAoMEExhYjUgRGV2T3BzIEluYy4xFDASBgNVBAsMC3d3dy5sYWI1LmNhMSQw
IgYDVQQDDBtMYWI1IERldk9wcyBJbmMuIElzc3VpbmcgQ0EwggEiMA0GCSqGSIb3
DQEBAQUAA4IBDwAwggEKAoIBAQDJgVqHR/2uwwqKk+WpxtvGuc7ow0ZhFmLWWETR
1EHKl1/3i+Ii1HNPO/3H2XulPjqwlG+XLcqzbM8zL260H2yFTYEIawYeKrViy54b
/yg6OvhcPt8KSE3BXjVf/Ee2xkZl+bK3MdN+bDu1dlWB/BtmniTP7ZoLCduuTPPe
3UI0G8rignFoelEceIsVFUy+Hof24fPNLtjbm5vvRJ/mFhJypD+xSMQ7zGIiV2OK
gAHi/zRWyBt/pdb/FC/8tlNW9bvc0+wiEgScsNvw0ph5bQaWJJx0wR1Qeme1wKiI
VRO6HAjmYMPQdj2qVcM4lHOOpPROAa3nTqlt3of4lzPYdoDfAgMBAAGjZjBkMA4G
A1UdDwEB/wQEAwIBBjASBgNVHRMBAf8ECDAGAQH/AgEAMB0GA1UdDgQWBBT028xC
utd54zWGnn+Kj45OGaWlxzAfBgNVHSMEGDAWgBQl7NZe82hHW3xhC8uNbMOs6vDq
ATANBgkqhkiG9w0BAQsFAAOCAQEALrz2XNiXxtUJNuQ7lhbyVZ8S34nWV9hUGK6g
HkqAa2Pqhh7QUtYYqMY/4NtsLhJ2Zz8coCV5XbfqMTE+uoASO3ekTtMpFpmqyn2c
V7y5xuDY9L+7GlWmSBOUe1I0bFCu0L9JfSO1w1hQRCALan9pts+nSjLlnLTFutWn
hKfSflE/MaO+7DDsXMWG4PdDap+8k2hh/Xyd1cNxQOtnskwEwPSbPjNy1NBLMzDO
pScdlXGCPye/zGkXGvQNiaGPqCHw29DG7GFAMMr5ZgYX0/FMuxNXTBTmcF5L23aU
YwQBKFWLBFRUDoC/MBch21w7+UhWl54z9QGYTRs6udAmdP180g==
-----END CERTIFICATE-----
