Certificate:
    Data:
        Version: 3 (0x2)
        Serial Number: 1 (0x1)
        Signature Algorithm: sha256WithRSAEncryption
        Issuer: DC=ca, DC=lab5, O=Lab5 DevOps Inc., OU=www.lab5.ca, CN=RootCA G0 SelfSigned
        Validity
            Not Before: May  1 14:39:52 2022 GMT
            Not After : Apr 30 14:39:52 2032 GMT
        Subject: DC=ca, DC=lab5, O=Lab5 DevOps Inc., OU=www.lab5.ca, CN=RootCA G0 SelfSigned
        Subject Public Key Info:
            Public Key Algorithm: rsaEncryption
                RSA Public-Key: (2048 bit)
                Modulus:
                    00:f6:f7:e0:e9:6f:8e:56:ba:51:7c:cb:06:d8:97:
                    c7:e6:fa:ee:29:5e:62:a7:99:21:b5:52:26:d0:25:
                    4b:15:58:a1:72:50:4b:1a:99:6e:34:6f:1c:89:f3:
                    fd:2b:12:9f:10:bf:37:b8:6d:a5:1f:d6:7a:50:fe:
                    2b:70:9b:1f:ce:26:09:d4:ea:12:04:93:cf:55:c9:
                    cb:2f:3f:5b:40:5e:8d:43:39:60:4c:73:69:a7:31:
                    b7:e0:76:18:fa:6e:03:e8:18:d9:4a:74:81:5c:b1:
                    b4:23:97:be:00:98:8c:2b:75:c3:66:45:a8:cf:3c:
                    c2:96:96:b8:7b:b0:53:aa:64:a1:c7:03:46:19:75:
                    89:65:64:29:75:d9:a6:13:f4:09:81:d1:02:09:ce:
                    3f:1c:ce:c6:a9:11:6c:65:f3:13:50:37:29:8f:c5:
                    77:a6:e7:a7:9f:86:5b:d3:7b:13:3f:0b:d4:e1:1a:
                    5c:4b:e7:3b:24:28:8c:f8:13:50:85:85:44:40:fb:
                    e0:2b:15:dd:6f:d9:c2:56:3e:82:54:8d:99:34:e0:
                    97:f1:53:f3:48:d3:49:33:bf:fd:01:9b:20:2a:cf:
                    7b:b7:66:8a:b5:9e:c1:45:46:4f:12:3a:d8:38:07:
                    3a:e8:1a:d0:6d:52:0d:29:67:f4:5c:19:5c:cd:6d:
                    07:49
                Exponent: 65537 (0x10001)
        X509v3 extensions:
            X509v3 Key Usage: critical
                Certificate Sign, CRL Sign
            X509v3 Basic Constraints: critical
                CA:TRUE
            X509v3 Subject Key Identifier: 
                AF:96:23:86:8D:6A:B5:AC:B2:E6:ED:20:C6:20:78:72:99:15:B1:27
            X509v3 Authority Key Identifier: 
                keyid:AF:96:23:86:8D:6A:B5:AC:B2:E6:ED:20:C6:20:78:72:99:15:B1:27

    Signature Algorithm: sha256WithRSAEncryption
         80:ac:c6:06:5c:79:a1:dd:11:b9:9d:af:56:19:24:66:9f:2b:
         84:62:64:ae:1a:17:4c:c9:1d:28:d5:3c:e2:1d:ed:48:c2:1b:
         04:8b:a6:78:c8:d2:73:5c:63:fb:10:93:f5:98:57:a9:1b:e8:
         2e:49:54:90:9e:73:05:fd:3c:c6:76:42:05:3d:84:d4:aa:ef:
         09:99:6c:73:2b:11:32:2d:f8:7f:02:30:65:ef:19:14:25:9d:
         0f:b0:30:be:ad:30:bb:d6:65:c0:5d:b7:d7:8f:85:f9:f3:3c:
         61:ff:3f:00:22:f3:18:80:01:1c:ed:63:38:0b:8d:d9:8e:5a:
         84:bb:bd:d9:94:c7:2f:5c:fd:3b:b5:55:aa:be:61:c6:71:9f:
         61:cd:2d:b3:54:76:99:b8:a7:77:98:f9:fb:95:32:10:fa:88:
         0e:61:7d:79:d7:f7:e9:d1:7d:97:25:e1:9d:4e:43:da:5f:ef:
         85:dc:9e:70:f0:60:03:e9:25:8a:10:cc:4f:7a:6d:33:ac:34:
         87:ea:f4:b3:6e:8b:08:fa:de:43:ec:83:3e:20:ed:8f:d1:aa:
         9f:70:b0:2f:0c:e7:dc:f7:3f:40:6e:08:4e:b8:db:29:57:f9:
         62:bc:f8:ef:bd:35:29:0c:a4:00:01:b3:d2:ee:e5:12:b9:eb:
         b5:5e:ac:5d
-----BEGIN CERTIFICATE-----
MIID0jCCArqgAwIBAgIBATANBgkqhkiG9w0BAQsFADB6MRIwEAYKCZImiZPyLGQB
GRYCY2ExFDASBgoJkiaJk/IsZAEZFgRsYWI1MRkwFwYDVQQKDBBMYWI1IERldk9w
cyBJbmMuMRQwEgYDVQQLDAt3d3cubGFiNS5jYTEdMBsGA1UEAwwUUm9vdENBIEcw
IFNlbGZTaWduZWQwHhcNMjIwNTAxMTQzOTUyWhcNMzIwNDMwMTQzOTUyWjB6MRIw
EAYKCZImiZPyLGQBGRYCY2ExFDASBgoJkiaJk/IsZAEZFgRsYWI1MRkwFwYDVQQK
DBBMYWI1IERldk9wcyBJbmMuMRQwEgYDVQQLDAt3d3cubGFiNS5jYTEdMBsGA1UE
AwwUUm9vdENBIEcwIFNlbGZTaWduZWQwggEiMA0GCSqGSIb3DQEBAQUAA4IBDwAw
ggEKAoIBAQD29+Dpb45WulF8ywbYl8fm+u4pXmKnmSG1UibQJUsVWKFyUEsamW40
bxyJ8/0rEp8Qvze4baUf1npQ/itwmx/OJgnU6hIEk89VycsvP1tAXo1DOWBMc2mn
Mbfgdhj6bgPoGNlKdIFcsbQjl74AmIwrdcNmRajPPMKWlrh7sFOqZKHHA0YZdYll
ZCl12aYT9AmB0QIJzj8czsapEWxl8xNQNymPxXem56efhlvTexM/C9ThGlxL5zsk
KIz4E1CFhURA++ArFd1v2cJWPoJUjZk04JfxU/NI00kzv/0BmyAqz3u3Zoq1nsFF
Rk8SOtg4BzroGtBtUg0pZ/RcGVzNbQdJAgMBAAGjYzBhMA4GA1UdDwEB/wQEAwIB
BjAPBgNVHRMBAf8EBTADAQH/MB0GA1UdDgQWBBSvliOGjWq1rLLm7SDGIHhymRWx
JzAfBgNVHSMEGDAWgBSvliOGjWq1rLLm7SDGIHhymRWxJzANBgkqhkiG9w0BAQsF
AAOCAQEAgKzGBlx5od0RuZ2vVhkkZp8rhGJkrhoXTMkdKNU84h3tSMIbBIumeMjS
c1xj+xCT9ZhXqRvoLklUkJ5zBf08xnZCBT2E1KrvCZlscysRMi34fwIwZe8ZFCWd
D7Awvq0wu9ZlwF2314+F+fM8Yf8/ACLzGIABHO1jOAuN2Y5ahLu92ZTHL1z9O7VV
qr5hxnGfYc0ts1R2mbind5j5+5UyEPqIDmF9edf36dF9lyXhnU5D2l/vhdyecPBg
A+klihDMT3ptM6w0h+r0s26LCPreQ+yDPiDtj9Gqn3CwLwzn3Pc/QG4ITrjbKVf5
Yrz47701KQykAAGz0u7lErnrtV6sXQ==
-----END CERTIFICATE-----
Certificate:
    Data:
        Version: 3 (0x2)
        Serial Number: 2 (0x2)
        Signature Algorithm: sha256WithRSAEncryption
        Issuer: DC=ca, DC=lab5, O=Lab5 DevOps Inc., OU=www.lab5.ca, CN=RootCA G0 SelfSigned
        Validity
            Not Before: May  1 14:40:10 2022 GMT
            Not After : Apr 30 14:40:10 2032 GMT
        Subject: DC=ca, DC=lab5, O=Lab5 DevOps Inc., OU=www.lab5.ca, CN=SigningCA G1
        Subject Public Key Info:
            Public Key Algorithm: rsaEncryption
                RSA Public-Key: (2048 bit)
                Modulus:
                    00:c2:a4:3d:e5:a1:47:cc:25:73:61:be:b6:61:3a:
                    4e:e6:7c:32:84:de:c6:5f:8c:5f:4e:54:d7:32:69:
                    1f:d5:2d:4f:02:02:bb:c8:bc:39:b2:33:41:0c:05:
                    c4:19:8b:13:84:bf:c6:3c:8a:84:1b:81:dc:96:ca:
                    c0:25:4c:9b:dd:d6:94:48:f5:ac:eb:0b:03:ce:78:
                    51:9c:e4:7c:53:96:d0:0f:ef:c0:f6:30:83:39:41:
                    a7:f8:dc:2d:6c:16:0c:61:f6:4d:31:f5:9f:fd:2d:
                    c5:70:9d:8c:e1:12:67:69:20:bd:f6:2b:2b:c8:d9:
                    b3:97:c4:df:c8:7f:fb:6e:9f:7b:53:23:17:b9:f2:
                    da:a1:f7:ed:c6:ea:b1:b9:6d:5d:8b:5e:59:f2:61:
                    70:44:a4:27:cd:18:96:50:0c:ba:42:b0:8f:1f:82:
                    84:8b:a3:b3:17:40:c8:7b:68:a6:3f:1f:39:3a:c1:
                    5c:54:98:71:3e:6d:eb:a1:1a:ea:cd:f6:58:3d:50:
                    56:9e:c1:96:06:bc:78:df:b2:96:0f:50:c2:32:e4:
                    b3:ae:0d:cb:f0:1c:1b:b9:bc:ef:14:50:67:87:78:
                    dd:6a:44:e6:88:2f:a7:cb:0c:ca:12:4c:16:05:c0:
                    cc:16:11:92:93:01:fc:c3:79:65:82:2d:60:56:49:
                    4b:31
                Exponent: 65537 (0x10001)
        X509v3 extensions:
            X509v3 Key Usage: critical
                Certificate Sign, CRL Sign
            X509v3 Basic Constraints: critical
                CA:TRUE, pathlen:0
            X509v3 Subject Key Identifier: 
                8A:0D:DD:D6:86:43:56:1A:35:A5:F3:2D:34:B4:80:21:B7:FC:78:7D
            X509v3 Authority Key Identifier: 
                keyid:AF:96:23:86:8D:6A:B5:AC:B2:E6:ED:20:C6:20:78:72:99:15:B1:27

    Signature Algorithm: sha256WithRSAEncryption
         31:02:7c:7e:d6:df:d7:0b:cd:98:49:d6:a8:2d:38:b0:de:b4:
         42:d8:33:04:b7:cf:58:8d:45:a0:2b:57:05:66:8a:b1:e1:80:
         41:db:ee:8f:08:18:45:4f:1c:05:a0:98:a3:36:37:8e:b5:c1:
         58:16:b9:05:c7:43:c2:76:fc:da:10:f4:62:1c:1d:9c:8d:f1:
         4e:ff:46:b3:ae:44:7f:bc:af:af:53:83:f0:c3:3d:fd:56:2b:
         1e:cf:3e:bd:07:62:0f:5d:3a:a7:c6:c5:bd:72:16:7a:ea:ff:
         8d:68:8f:6e:a9:41:21:9a:77:fc:8d:f4:ea:d4:50:70:07:b9:
         6b:cc:75:32:cc:fd:15:65:64:87:ca:b6:c7:32:ba:e5:9f:4f:
         da:68:f6:34:56:d6:0e:b0:ee:29:df:3f:cc:08:39:04:5e:ee:
         16:5c:f2:b6:79:1d:a4:3b:40:41:b6:83:ba:92:e2:26:e6:8d:
         71:64:56:f3:11:83:56:a5:e2:36:f5:1f:31:77:8e:27:73:2c:
         6a:7b:45:14:c6:ab:cd:e4:e7:0c:83:e1:c3:27:9c:94:cb:e3:
         b8:e9:4d:7d:da:43:e6:b7:27:aa:e9:39:1b:ba:67:48:75:56:
         a5:24:18:a3:9e:7a:85:70:d4:25:56:6e:54:e7:49:3c:42:78:
         b6:3a:40:36
-----BEGIN CERTIFICATE-----
MIIDzTCCArWgAwIBAgIBAjANBgkqhkiG9w0BAQsFADB6MRIwEAYKCZImiZPyLGQB
GRYCY2ExFDASBgoJkiaJk/IsZAEZFgRsYWI1MRkwFwYDVQQKDBBMYWI1IERldk9w
cyBJbmMuMRQwEgYDVQQLDAt3d3cubGFiNS5jYTEdMBsGA1UEAwwUUm9vdENBIEcw
IFNlbGZTaWduZWQwHhcNMjIwNTAxMTQ0MDEwWhcNMzIwNDMwMTQ0MDEwWjByMRIw
EAYKCZImiZPyLGQBGRYCY2ExFDASBgoJkiaJk/IsZAEZFgRsYWI1MRkwFwYDVQQK
DBBMYWI1IERldk9wcyBJbmMuMRQwEgYDVQQLDAt3d3cubGFiNS5jYTEVMBMGA1UE
AwwMU2lnbmluZ0NBIEcxMIIBIjANBgkqhkiG9w0BAQEFAAOCAQ8AMIIBCgKCAQEA
wqQ95aFHzCVzYb62YTpO5nwyhN7GX4xfTlTXMmkf1S1PAgK7yLw5sjNBDAXEGYsT
hL/GPIqEG4HclsrAJUyb3daUSPWs6wsDznhRnOR8U5bQD+/A9jCDOUGn+NwtbBYM
YfZNMfWf/S3FcJ2M4RJnaSC99isryNmzl8TfyH/7bp97UyMXufLaofftxuqxuW1d
i15Z8mFwRKQnzRiWUAy6QrCPH4KEi6OzF0DIe2imPx85OsFcVJhxPm3roRrqzfZY
PVBWnsGWBrx437KWD1DCMuSzrg3L8BwbubzvFFBnh3jdakTmiC+nywzKEkwWBcDM
FhGSkwH8w3llgi1gVklLMQIDAQABo2YwZDAOBgNVHQ8BAf8EBAMCAQYwEgYDVR0T
AQH/BAgwBgEB/wIBADAdBgNVHQ4EFgQUig3d1oZDVho1pfMtNLSAIbf8eH0wHwYD
VR0jBBgwFoAUr5Yjho1qtayy5u0gxiB4cpkVsScwDQYJKoZIhvcNAQELBQADggEB
ADECfH7W39cLzZhJ1qgtOLDetELYMwS3z1iNRaArVwVmirHhgEHb7o8IGEVPHAWg
mKM2N461wVgWuQXHQ8J2/NoQ9GIcHZyN8U7/RrOuRH+8r69Tg/DDPf1WKx7PPr0H
Yg9dOqfGxb1yFnrq/41oj26pQSGad/yN9OrUUHAHuWvMdTLM/RVlZIfKtscyuuWf
T9po9jRW1g6w7infP8wIOQRe7hZc8rZ5HaQ7QEG2g7qS4ibmjXFkVvMRg1al4jb1
HzF3jidzLGp7RRTGq83k5wyD4cMnnJTL47jpTX3aQ+a3J6rpORu6Z0h1VqUkGKOe
eoVw1CVWblTnSTxCeLY6QDY=
-----END CERTIFICATE-----
