Certificate:
    Data:
        Version: 3 (0x2)
        Serial Number: 1 (0x1)
        Signature Algorithm: rsassaPss         
         Hash Algorithm: sha256
         Mask Algorithm: mgf1 with sha256
          Salt Length: 0xDE
         Trailer Field: 0xBC (default)
        Issuer: DC=ca, DC=lab5, O=Lab5 DevOps Inc., OU=DevOps, CN=RootCA G0 SelfSigned
        Validity
            Not Before: Apr 30 10:17:53 2022 GMT
            Not After : Apr 29 10:17:53 2032 GMT
        Subject: DC=ca, DC=lab5, O=Lab5 DevOps Inc., OU=DevOps, CN=RootCA G0 SelfSigned
        Subject Public Key Info:
            Public Key Algorithm: rsassaPss
                RSA-PSS Public-Key: (2048 bit)
                Modulus:
                    00:cc:ca:6f:6d:70:c6:d3:ad:0f:f4:ad:8b:fc:d6:
                    ca:fc:52:81:f5:f3:56:3c:0a:58:07:15:29:de:56:
                    f4:0b:58:d8:50:1e:8f:fa:0b:b9:cd:30:c8:cc:b4:
                    1e:1e:3f:a0:f2:30:0f:dd:4c:ac:ff:48:a3:09:63:
                    cb:6c:d3:a2:cf:4d:e2:bb:6e:6c:3d:b9:60:5c:89:
                    0a:a3:13:06:d7:75:c8:66:10:f4:bb:a0:22:35:4b:
                    28:53:7b:9b:26:a0:be:0a:c1:93:2f:e2:31:87:c7:
                    92:d1:eb:3c:5c:b6:8d:76:bd:09:f8:36:8f:f5:72:
                    01:b2:55:41:bd:84:66:f7:04:bc:79:4e:dd:2b:bb:
                    fe:03:85:a5:64:62:77:ee:19:8e:81:31:26:fd:f9:
                    e0:3d:ed:c4:49:64:00:1a:c7:7b:24:99:b5:fa:fe:
                    de:7d:fe:42:34:0c:8f:04:86:84:7a:d7:5b:45:f8:
                    e7:a3:4d:65:e7:f4:f3:bc:f3:e1:99:09:f4:5b:67:
                    11:6c:f0:48:6d:85:56:be:30:c4:ea:aa:d3:24:91:
                    df:19:21:95:88:2a:01:8b:6e:db:bc:7f:86:cf:7b:
                    47:b7:f0:4f:0e:d5:8e:2b:50:b3:5c:22:ce:53:e8:
                    49:46:86:06:20:77:41:92:27:c0:e3:da:01:c3:d6:
                    81:73
                Exponent: 65537 (0x10001)
                No PSS parameter restrictions
        X509v3 extensions:
            X509v3 Key Usage: critical
                Certificate Sign, CRL Sign
            X509v3 Basic Constraints: critical
                CA:TRUE
            X509v3 Subject Key Identifier: 
                76:48:6F:2E:8D:94:DF:2A:F4:25:5A:21:A1:27:05:61:15:A7:DD:DE
            X509v3 Authority Key Identifier: 
                keyid:76:48:6F:2E:8D:94:DF:2A:F4:25:5A:21:A1:27:05:61:15:A7:DD:DE

    Signature Algorithm: rsassaPss         
         Hash Algorithm: sha256
         Mask Algorithm: mgf1 with sha256
          Salt Length: 0xDE
         Trailer Field: 0xBC (default)

         04:02:7f:50:91:15:dd:e9:d7:48:40:bb:26:97:a5:cf:33:d5:
         b4:ab:8e:02:6f:15:9e:26:50:40:10:57:ca:47:ca:a1:91:9e:
         f4:b1:8f:c6:41:f8:33:a3:b6:09:66:62:86:9a:4d:b2:b7:cc:
         79:e3:5c:00:e7:0a:b5:f5:62:c0:db:1e:35:f5:66:64:f2:fa:
         4e:2a:67:c9:a7:39:af:a1:5e:c5:e8:4b:27:0c:80:76:39:56:
         0e:f1:48:87:72:55:e5:74:b7:bc:6f:e6:f8:54:5c:cb:7b:4e:
         0a:32:45:69:31:22:76:46:19:cd:40:27:52:9c:64:5d:1f:3b:
         07:df:3c:62:44:c4:42:0f:a5:36:0f:d9:dc:62:1d:cb:ca:9a:
         8d:c0:e2:76:8d:6e:e2:f9:74:20:a2:ca:20:bd:a7:9a:39:76:
         5f:b9:83:f6:47:45:de:8e:63:73:7c:06:6d:4a:67:59:c5:28:
         04:c6:01:72:8d:aa:19:cb:a5:87:84:2c:aa:ee:f4:56:b6:55:
         39:45:99:6f:d8:fd:df:8f:3c:68:25:b0:41:7f:2e:65:83:84:
         a1:c2:44:45:36:1c:34:ad:b6:61:ff:51:5e:13:a5:74:d1:2a:
         fb:d8:85:58:21:41:d1:06:a7:06:62:e8:27:00:1c:97:71:49:
         91:8e:f0:fd
-----BEGIN CERTIFICATE-----
MIIEKDCCAt+gAwIBAgIBATA+BgkqhkiG9w0BAQowMaANMAsGCWCGSAFlAwQCAaEa
MBgGCSqGSIb3DQEBCDALBglghkgBZQMEAgGiBAICAN4wdTESMBAGCgmSJomT8ixk
ARkWAmNhMRQwEgYKCZImiZPyLGQBGRYEbGFiNTEZMBcGA1UECgwQTGFiNSBEZXZP
cHMgSW5jLjEPMA0GA1UECwwGRGV2T3BzMR0wGwYDVQQDDBRSb290Q0EgRzAgU2Vs
ZlNpZ25lZDAeFw0yMjA0MzAxMDE3NTNaFw0zMjA0MjkxMDE3NTNaMHUxEjAQBgoJ
kiaJk/IsZAEZFgJjYTEUMBIGCgmSJomT8ixkARkWBGxhYjUxGTAXBgNVBAoMEExh
YjUgRGV2T3BzIEluYy4xDzANBgNVBAsMBkRldk9wczEdMBsGA1UEAwwUUm9vdENB
IEcwIFNlbGZTaWduZWQwggEgMAsGCSqGSIb3DQEBCgOCAQ8AMIIBCgKCAQEAzMpv
bXDG060P9K2L/NbK/FKB9fNWPApYBxUp3lb0C1jYUB6P+gu5zTDIzLQeHj+g8jAP
3Uys/0ijCWPLbNOiz03iu25sPblgXIkKoxMG13XIZhD0u6AiNUsoU3ubJqC+CsGT
L+Ixh8eS0es8XLaNdr0J+DaP9XIBslVBvYRm9wS8eU7dK7v+A4WlZGJ37hmOgTEm
/fngPe3ESWQAGsd7JJm1+v7eff5CNAyPBIaEetdbRfjno01l5/TzvPPhmQn0W2cR
bPBIbYVWvjDE6qrTJJHfGSGViCoBi27bvH+Gz3tHt/BPDtWOK1CzXCLOU+hJRoYG
IHdBkifA49oBw9aBcwIDAQABo2MwYTAOBgNVHQ8BAf8EBAMCAQYwDwYDVR0TAQH/
BAUwAwEB/zAdBgNVHQ4EFgQUdkhvLo2U3yr0JVohoScFYRWn3d4wHwYDVR0jBBgw
FoAUdkhvLo2U3yr0JVohoScFYRWn3d4wPgYJKoZIhvcNAQEKMDGgDTALBglghkgB
ZQMEAgGhGjAYBgkqhkiG9w0BAQgwCwYJYIZIAWUDBAIBogQCAgDeA4IBAQAEAn9Q
kRXd6ddIQLsml6XPM9W0q44CbxWeJlBAEFfKR8qhkZ70sY/GQfgzo7YJZmKGmk2y
t8x541wA5wq19WLA2x419WZk8vpOKmfJpzmvoV7F6EsnDIB2OVYO8UiHclXldLe8
b+b4VFzLe04KMkVpMSJ2RhnNQCdSnGRdHzsH3zxiRMRCD6U2D9ncYh3LypqNwOJ2
jW7i+XQgosogvaeaOXZfuYP2R0XejmNzfAZtSmdZxSgExgFyjaoZy6WHhCyq7vRW
tlU5RZlv2P3fjzxoJbBBfy5lg4ShwkRFNhw0rbZh/1FeE6V00Sr72IVYIUHRBqcG
YugnAByXcUmRjvD9
-----END CERTIFICATE-----
Certificate:
    Data:
        Version: 3 (0x2)
        Serial Number: 2 (0x2)
        Signature Algorithm: rsassaPss         
         Hash Algorithm: sha256
         Mask Algorithm: mgf1 with sha256
          Salt Length: 0xDE
         Trailer Field: 0xBC (default)
        Issuer: DC=ca, DC=lab5, O=Lab5 DevOps Inc., OU=DevOps, CN=RootCA G0 SelfSigned
        Validity
            Not Before: Apr 30 10:18:01 2022 GMT
            Not After : Apr 29 10:18:01 2032 GMT
        Subject: DC=ca, DC=lab5, O=Lab5 DevOps Inc., OU=DevOps, CN=SigningCA G1
        Subject Public Key Info:
            Public Key Algorithm: rsassaPss
                RSA-PSS Public-Key: (2048 bit)
                Modulus:
                    00:bd:ff:d9:50:45:3c:da:1e:e6:56:4a:72:4b:b0:
                    ef:e9:a9:08:9b:c8:37:87:09:ee:b6:6f:3d:a8:3a:
                    81:32:ec:44:14:c5:bc:d2:8b:0a:4d:2a:4b:a7:68:
                    6c:a0:ff:8b:29:7f:e8:31:11:82:ab:f3:7c:11:5f:
                    13:e3:8d:21:b7:c3:de:c6:a0:a3:7d:df:cb:16:f8:
                    15:d7:93:46:d3:91:72:fe:6b:b2:df:13:2a:50:0b:
                    03:f4:fc:d6:63:c6:45:81:1f:75:1e:16:43:67:77:
                    6e:5d:18:4a:b8:4b:e4:8c:86:e9:68:7d:3f:33:73:
                    00:e0:79:16:ed:7c:f7:c4:68:d8:6f:77:0e:bd:93:
                    ba:f8:fc:3b:d3:b7:1a:80:12:4b:02:9c:3d:ba:03:
                    37:8b:1e:d0:9e:cf:e5:f6:e8:0a:44:5c:55:d2:0f:
                    92:2a:66:19:6d:6a:af:b6:48:1e:b3:c4:55:68:63:
                    da:30:2b:26:d8:12:97:73:17:a3:8c:65:48:81:be:
                    e1:84:96:07:7f:53:bb:0b:4a:d7:ca:7d:d4:c1:97:
                    9b:cd:10:a6:bd:00:3b:d4:d2:e5:a1:94:71:97:06:
                    ac:3e:45:ad:06:66:45:9d:4f:db:13:ab:8a:1c:3c:
                    2e:8e:ad:59:94:92:6e:15:1f:d3:07:33:b9:29:15:
                    65:03
                Exponent: 65537 (0x10001)
                No PSS parameter restrictions
        X509v3 extensions:
            X509v3 Key Usage: critical
                Certificate Sign, CRL Sign
            X509v3 Basic Constraints: critical
                CA:TRUE, pathlen:0
            X509v3 Subject Key Identifier: 
                B4:19:64:0E:73:DC:30:06:E7:83:09:04:20:45:F2:DA:17:D4:B0:54
            X509v3 Authority Key Identifier: 
                keyid:76:48:6F:2E:8D:94:DF:2A:F4:25:5A:21:A1:27:05:61:15:A7:DD:DE

    Signature Algorithm: rsassaPss         
         Hash Algorithm: sha256
         Mask Algorithm: mgf1 with sha256
          Salt Length: 0xDE
         Trailer Field: 0xBC (default)

         5f:db:d6:cf:2a:28:de:65:df:c3:ff:43:b9:f3:a2:19:6a:90:
         e7:68:0c:4e:a4:d3:9e:0a:4d:16:7a:e4:0c:98:ad:18:52:9d:
         ca:35:1a:76:ed:4b:c0:df:1b:9d:10:bf:06:64:66:40:0b:9d:
         84:ef:59:7a:82:3a:61:8a:f9:a5:71:37:29:30:b7:99:a3:06:
         3b:e1:19:36:7a:97:8a:60:e9:a0:11:08:5a:f5:54:11:2f:be:
         1b:46:56:90:52:e1:42:4f:be:aa:64:19:51:40:8d:9c:c8:1a:
         13:ec:5e:12:78:29:cb:a6:28:ef:4c:b4:3a:dc:06:b1:c4:50:
         3c:a0:d2:cf:9d:fd:a7:66:d9:11:ea:df:5c:95:f3:52:f9:3a:
         ef:bd:f4:5e:b1:74:e8:21:cb:5c:46:2f:04:0d:48:49:ba:85:
         17:14:a9:40:ac:6d:60:59:38:95:53:8f:ce:50:fe:5f:7e:2b:
         fc:86:db:9e:56:b6:a8:c5:cd:91:e7:0f:b5:f0:c4:80:57:0a:
         85:e0:d3:e8:10:22:71:e2:1a:ea:e6:41:37:1a:11:58:85:d4:
         17:6e:79:2d:4e:83:0d:e0:b8:f9:b8:5b:49:06:9b:7f:09:3f:
         31:dd:e4:55:6e:83:76:63:1d:d3:24:e0:a6:64:33:fb:b0:3a:
         be:9a:27:15
-----BEGIN CERTIFICATE-----
MIIEIzCCAtqgAwIBAgIBAjA+BgkqhkiG9w0BAQowMaANMAsGCWCGSAFlAwQCAaEa
MBgGCSqGSIb3DQEBCDALBglghkgBZQMEAgGiBAICAN4wdTESMBAGCgmSJomT8ixk
ARkWAmNhMRQwEgYKCZImiZPyLGQBGRYEbGFiNTEZMBcGA1UECgwQTGFiNSBEZXZP
cHMgSW5jLjEPMA0GA1UECwwGRGV2T3BzMR0wGwYDVQQDDBRSb290Q0EgRzAgU2Vs
ZlNpZ25lZDAeFw0yMjA0MzAxMDE4MDFaFw0zMjA0MjkxMDE4MDFaMG0xEjAQBgoJ
kiaJk/IsZAEZFgJjYTEUMBIGCgmSJomT8ixkARkWBGxhYjUxGTAXBgNVBAoMEExh
YjUgRGV2T3BzIEluYy4xDzANBgNVBAsMBkRldk9wczEVMBMGA1UEAwwMU2lnbmlu
Z0NBIEcxMIIBIDALBgkqhkiG9w0BAQoDggEPADCCAQoCggEBAL3/2VBFPNoe5lZK
ckuw7+mpCJvIN4cJ7rZvPag6gTLsRBTFvNKLCk0qS6dobKD/iyl/6DERgqvzfBFf
E+ONIbfD3sago33fyxb4FdeTRtORcv5rst8TKlALA/T81mPGRYEfdR4WQ2d3bl0Y
SrhL5IyG6Wh9PzNzAOB5Fu1898Ro2G93Dr2Tuvj8O9O3GoASSwKcPboDN4se0J7P
5fboCkRcVdIPkipmGW1qr7ZIHrPEVWhj2jArJtgSl3MXo4xlSIG+4YSWB39TuwtK
18p91MGXm80Qpr0AO9TS5aGUcZcGrD5FrQZmRZ1P2xOrihw8Lo6tWZSSbhUf0wcz
uSkVZQMCAwEAAaNmMGQwDgYDVR0PAQH/BAQDAgEGMBIGA1UdEwEB/wQIMAYBAf8C
AQAwHQYDVR0OBBYEFLQZZA5z3DAG54MJBCBF8toX1LBUMB8GA1UdIwQYMBaAFHZI
by6NlN8q9CVaIaEnBWEVp93eMD4GCSqGSIb3DQEBCjAxoA0wCwYJYIZIAWUDBAIB
oRowGAYJKoZIhvcNAQEIMAsGCWCGSAFlAwQCAaIEAgIA3gOCAQEAX9vWzyoo3mXf
w/9DufOiGWqQ52gMTqTTngpNFnrkDJitGFKdyjUadu1LwN8bnRC/BmRmQAudhO9Z
eoI6YYr5pXE3KTC3maMGO+EZNnqXimDpoBEIWvVUES++G0ZWkFLhQk++qmQZUUCN
nMgaE+xeEngpy6Yo70y0OtwGscRQPKDSz539p2bZEerfXJXzUvk67730XrF06CHL
XEYvBA1ISbqFFxSpQKxtYFk4lVOPzlD+X34r/Ibbnla2qMXNkecPtfDEgFcKheDT
6BAiceIa6uZBNxoRWIXUF255LU6DDeC4+bhbSQabfwk/Md3kVW6DdmMd0yTgpmQz
+7A6vponFQ==
-----END CERTIFICATE-----
