-----BEGIN ENCRYPTED PRIVATE KEY-----
MIIFHDBOBgkqhkiG9w0BBQ0wQTApBgkqhkiG9w0BBQwwHAQIXN/xfa1Ge+YCAggA
MAwGCCqGSIb3DQIJBQAwFAYIKoZIhvcNAwcECOJMTM/XuL4eBIIEyJSxg5zMDV3r
mJzMTzCTKyYeSqAWoXttzAg9NGqlTpKfzV1/8sbSr/M1pi6BX+yquCRxFUkOSM0A
tnMOSTkGzK0yzd09iNRRoKZWrgSiTkij1ypWI/tqFTJavzayKLaWkaHqsVFDdb8o
y/G4XAOi52yCfxsOO/MVwyUZwrLy3bLBiv9LeXVEsqdNGiptClaWQJDz0LBgdvgV
zi7gshuF4dyh5JFlhgvG13UoqQfP+T++8au6b/JzHLrOKlOIvvb91hXtnE2HM9nh
fQt+iYofhVLa9urPUbvesk72/R68pHUnuqt8XE10eVBBsC53z1dIPSKmkARLbkLB
Znlo2X3Uhrv3kXtu+Z7S/jnVfG2iwVFOAQ8DkH0QNO/bBmRax86MRkM+6me7jSwZ
TV+lgJWat/NUAplAGM1f1G2Vs4uFFl8RiKLoNM9uU4x43gcdF4mAc+jA9TSV6YLL
szOkvlTIyo6ngwBX7dnJGcLWDlQ2NM0exGRcLxM2XC0AfulqMbRivo21RvS9Vzyi
vTJcX1pWZIhLhOxrnRAHMiwbQ12kfHla3Tl2VMxItAehiuQjYLqqeMjvoSYNTYTG
PNs/A6D6U6PqQPIquRX9E9YVHvPCYyknWfVdMw1xyfgL/dWNGqnFV6LYQv0hPeP0
1vppbCeksF2MGiR2qie81SwhdcYi6pkGRkWWIdjEB5lD7pI9HE3RUVd3+VFLuyHT
ip2BkQTfBRtqlGX73wMYX8i+cbXcIPbCnYm7DLo/U42omw3+vtSXNsHSrm7Ek3LU
95uLrnCNBlG4mgvC0IHS3dvRIF3Gt8YFesKdvR8zox/n7JuvhCAk240vC+7a6CYp
EM8DCMpyh55LJf9Fyne27zAbQKu8XprEByIe0zFmgDyP3KFnz3z2xLFBtE3EuKll
iAC8WOzcGQORr2AqXi3/svLLtIBm4KtE/s69EBX30Wtyn3v6TjMEauI1Cg6Qdaqp
0x8wvXyH+Iq9YHWdT0aP1XHV/1WnOGa9Zv96W2MNfR+aVDfY9NUKnoJCumnrykNS
oOFL4vODftCeD2Jbf4mP3p2mbfPQWZ+vURXFv+E32XEspIUXfk+uXXueaE9bm91o
k3VAY7SfUA2PN3JXbGV8KjzqAqlgoOFM8dm2s3H7NkS4T7GD7z+M19nRUqgs65ax
BBf8QB+HrFsSisFibFmlk/CDfI+Eg8Hf2R3a2yKcXwS+B7NUldvfLSq3wKJG2slg
Ywpn0+PufvIFL8cSE1ffSmFFLy9Aez3JOpftdBos+HgpqsK+v0GhzTTBStdJNLK8
lV19ANlJ5IZ1RMWVR2tfSfODZZapk6WJqm1UXli2VI6PwpQXJJ9GU0XIfQhuF4mm
STUCk3TpffrICLpz/gs8WiHCRk2rCkzAIZSvzeacs/Blu8QhODbmIjpyPmgt6fsM
/PWPxQwFKxjgtavxPR6Q4dEspfrzbZUZZe64pH866Bboj8t9aXAGUM8gEpwZ+Enu
459HFFm892yVBZkTpNeSuz8ePMTFE70i7SBiYhaMQLU1+bUqSFpjGU8geRuoKz43
BnlJyW1YuK2pDf6NHSxt8ZnsQDK2eXdk/JfLuLoDuzwWSYYR2ijrKQxRfIopyRwG
gKZz2urOgYWTILhxyboUbw==
-----END ENCRYPTED PRIVATE KEY-----
Certificate:
    Data:
        Version: 3 (0x2)
        Serial Number: 2 (0x2)
        Signature Algorithm: sha1WithRSAEncryption
        Issuer: DC=ca, DC=lab5, O=Lab5 DevOps Inc., OU=DevOps, CN=RootCA G1
        Validity
            Not Before: Apr 28 19:24:11 2022 GMT
            Not After : Apr 27 19:24:11 2024 GMT
        Subject: DC=ca, DC=lab5, O=Lab5 DevOps Inc., OU=DevOps, CN=vault.lab5.ca
        Subject Public Key Info:
            Public Key Algorithm: rsaEncryption
                RSA Public-Key: (2048 bit)
                Modulus:
                    00:9c:42:22:e7:39:50:d3:b4:d4:57:a5:2c:de:80:
                    c1:05:32:6f:01:b6:20:b7:bd:6a:a6:02:e4:62:53:
                    fc:6e:50:75:17:8a:87:26:0c:a5:c1:18:b1:ce:5f:
                    fa:a1:d5:c1:06:19:d6:c9:8a:83:d5:79:e8:99:ec:
                    70:67:cf:74:e0:7c:41:f5:d6:2e:e2:8b:b9:5f:66:
                    58:ff:0e:21:a6:18:0c:16:31:32:31:ed:46:c8:22:
                    a6:16:5a:9a:2e:ee:17:03:fd:75:e8:be:af:25:6b:
                    5e:51:53:d9:77:25:78:c4:43:75:e3:23:c4:a1:fe:
                    e4:0f:d8:54:7f:6d:87:9e:aa:6a:77:f5:55:fc:b5:
                    1b:ad:2b:94:23:e8:cb:18:64:3a:7b:67:5c:45:1d:
                    3b:fc:29:e3:45:a2:27:c7:04:6c:21:66:b1:2c:30:
                    86:3b:28:58:d8:10:38:d3:51:b3:27:95:f6:57:69:
                    33:4c:36:1e:9a:04:f6:2d:1d:24:0e:91:8c:87:d2:
                    3d:6b:9d:ed:d5:3d:15:3a:69:30:1e:38:52:a4:31:
                    a2:dd:0c:e0:83:89:f8:c2:e7:be:e2:35:c1:51:24:
                    70:bf:53:bd:8b:5e:23:fd:7d:55:75:01:a7:e5:7c:
                    4f:04:06:5b:b4:be:dc:fd:ae:ba:84:32:8e:7b:92:
                    87:1f
                Exponent: 65537 (0x10001)
        X509v3 extensions:
            X509v3 Key Usage: critical
                Digital Signature, Key Encipherment
            X509v3 Basic Constraints: 
                CA:FALSE
            X509v3 Extended Key Usage: 
                TLS Web Server Authentication, TLS Web Client Authentication
            X509v3 Subject Key Identifier: 
                82:0C:F5:F7:43:F8:A4:98:F2:36:F2:54:93:E7:9E:C6:DF:C9:F0:6E
            X509v3 Authority Key Identifier: 
                keyid:E1:F5:7B:EC:BE:93:10:F9:C7:89:8A:45:E7:DA:19:00:9E:47:AE:91

            X509v3 Subject Alternative Name: 
                DNS:vault.lab5.ca, IP Address:10.0.0.2
    Signature Algorithm: sha1WithRSAEncryption
         ba:f6:ea:4b:24:46:cf:ce:e3:31:50:cd:98:e6:6c:c0:f9:8c:
         07:af:f1:c6:41:af:3d:07:b4:26:8b:a7:fb:72:fc:ec:eb:a2:
         82:92:d4:c8:33:4b:7d:33:7d:61:ed:4f:30:88:f0:68:d9:fe:
         23:d0:3d:28:63:60:e3:d5:00:cc:d6:a7:a4:3d:f9:e2:01:b7:
         ac:d4:d4:c0:57:cf:57:8d:a0:db:c2:62:a2:17:3c:0b:d0:0d:
         b9:37:a5:bc:1b:df:cf:39:80:03:b3:0a:7c:3e:34:dd:61:6a:
         ca:c6:cd:2a:f4:1a:92:f5:d8:e5:eb:12:25:81:90:0c:25:8d:
         c5:da:34:fc:49:ff:b0:77:40:4f:58:30:ef:78:8e:0f:95:34:
         a2:6c:04:15:de:6e:a4:b4:19:dd:6a:aa:d1:7a:05:e9:f3:31:
         ab:3f:d1:df:5e:5a:e5:4f:7a:9f:02:e4:93:71:3a:9b:38:77:
         6e:6d:ca:3b:5f:50:69:6b:6b:3e:b4:10:cf:9c:be:4c:2a:05:
         ec:cf:50:e5:99:d3:a7:35:1c:22:2d:6c:b0:35:3f:03:1b:12:
         6a:a5:10:5d:0e:1e:4f:e3:0c:fa:6f:d5:16:b7:4b:21:02:27:
         60:e4:0e:80:e2:79:07:f5:96:61:6f:82:d7:a9:6d:c2:0d:d2:
         f5:7c:df:ce
-----BEGIN CERTIFICATE-----
MIID8TCCAtmgAwIBAgIBAjANBgkqhkiG9w0BAQUFADBqMRIwEAYKCZImiZPyLGQB
GRYCY2ExFDASBgoJkiaJk/IsZAEZFgRsYWI1MRkwFwYDVQQKDBBMYWI1IERldk9w
cyBJbmMuMQ8wDQYDVQQLDAZEZXZPcHMxEjAQBgNVBAMMCVJvb3RDQSBHMTAeFw0y
MjA0MjgxOTI0MTFaFw0yNDA0MjcxOTI0MTFaMG4xEjAQBgoJkiaJk/IsZAEZFgJj
YTEUMBIGCgmSJomT8ixkARkWBGxhYjUxGTAXBgNVBAoMEExhYjUgRGV2T3BzIElu
Yy4xDzANBgNVBAsMBkRldk9wczEWMBQGA1UEAwwNdmF1bHQubGFiNS5jYTCCASIw
DQYJKoZIhvcNAQEBBQADggEPADCCAQoCggEBAJxCIuc5UNO01FelLN6AwQUybwG2
ILe9aqYC5GJT/G5QdReKhyYMpcEYsc5f+qHVwQYZ1smKg9V56JnscGfPdOB8QfXW
LuKLuV9mWP8OIaYYDBYxMjHtRsgiphZami7uFwP9dei+ryVrXlFT2XcleMRDdeMj
xKH+5A/YVH9th56qanf1Vfy1G60rlCPoyxhkOntnXEUdO/wp40WiJ8cEbCFmsSww
hjsoWNgQONNRsyeV9ldpM0w2HpoE9i0dJA6RjIfSPWud7dU9FTppMB44UqQxot0M
4IOJ+MLnvuI1wVEkcL9TvYteI/19VXUBp+V8TwQGW7S+3P2uuoQyjnuShx8CAwEA
AaOBnTCBmjAOBgNVHQ8BAf8EBAMCBaAwCQYDVR0TBAIwADAdBgNVHSUEFjAUBggr
BgEFBQcDAQYIKwYBBQUHAwIwHQYDVR0OBBYEFIIM9fdD+KSY8jbyVJPnnsbfyfBu
MB8GA1UdIwQYMBaAFOH1e+y+kxD5x4mKRefaGQCeR66RMB4GA1UdEQQXMBWCDXZh
dWx0LmxhYjUuY2GHBAoAAAIwDQYJKoZIhvcNAQEFBQADggEBALr26kskRs/O4zFQ
zZjmbMD5jAev8cZBrz0HtCaLp/ty/OzrooKS1MgzS30zfWHtTzCI8GjZ/iPQPShj
YOPVAMzWp6Q9+eIBt6zU1MBXz1eNoNvCYqIXPAvQDbk3pbwb3885gAOzCnw+NN1h
asrGzSr0GpL12OXrEiWBkAwljcXaNPxJ/7B3QE9YMO94jg+VNKJsBBXebqS0Gd1q
qtF6BenzMas/0d9eWuVPep8C5JNxOps4d25tyjtfUGlraz60EM+cvkwqBezPUOWZ
06c1HCItbLA1PwMbEmqlEF0OHk/jDPpv1Ra3SyECJ2DkDoDieQf1lmFvgtepbcIN
0vV8384=
-----END CERTIFICATE-----
