Certificate:
    Data:
        Version: 3 (0x2)
        Serial Number: 1 (0x1)
        Signature Algorithm: sha1WithRSAEncryption
        Issuer: DC=ca, DC=lab5, O=Lab5 DevOps Inc., OU=DevOps, CN=RootCA G1
        Validity
            Not Before: Apr 28 19:35:48 2022 GMT
            Not After : Apr 27 19:35:48 2024 GMT
        Subject: DC=ca, DC=lab5, O=Lab5 DevOps Inc., OU=DevOps, CN=vault.lab5.ca
        Subject Public Key Info:
            Public Key Algorithm: rsaEncryption
                RSA Public-Key: (2048 bit)
                Modulus:
                    00:ab:ce:6b:1b:3b:45:0e:46:21:0e:2a:4c:fd:77:
                    2f:79:ee:14:54:bf:9e:17:cf:ed:8d:22:44:0a:92:
                    4f:0b:8f:77:a4:05:a5:e3:0c:9b:34:2f:73:bb:e9:
                    e3:21:7b:59:f7:ed:8b:ee:6d:ca:ae:2b:c9:75:a6:
                    4b:80:7d:36:c0:50:c8:94:ec:c7:46:16:72:93:6b:
                    ee:1c:d6:53:98:52:e5:f8:a5:c2:12:32:1e:5e:99:
                    23:ef:7b:5e:35:7b:0e:ea:eb:c7:46:27:b3:39:0e:
                    73:3d:68:ce:a1:c2:1e:95:87:15:7f:96:4a:d3:e2:
                    ff:fe:13:f1:d7:f1:0a:dd:7c:bd:9a:62:b6:f2:0e:
                    87:01:5c:67:7f:c8:cb:bb:c8:f3:4c:d7:d7:0c:fc:
                    69:5e:89:9b:0d:c8:6b:95:04:ec:16:86:84:bf:26:
                    41:a1:a2:eb:2e:40:b0:1e:4a:ea:c2:b7:3e:ab:09:
                    b2:1f:d0:41:92:d4:9a:7d:00:49:d4:16:84:e3:ea:
                    f6:a6:21:87:cd:71:fa:03:be:49:24:fe:be:cc:5a:
                    7e:63:54:b9:3e:05:80:d3:24:47:3c:80:79:0a:a8:
                    be:c4:fc:50:63:0d:30:48:9f:a1:61:82:31:54:69:
                    5a:55:c6:c3:67:fe:9f:4f:1f:35:a8:26:fb:aa:8d:
                    a3:67
                Exponent: 65537 (0x10001)
        X509v3 extensions:
            X509v3 Key Usage: critical
                Digital Signature, Key Encipherment
            X509v3 Basic Constraints: 
                CA:FALSE
            X509v3 Extended Key Usage: 
                TLS Web Server Authentication, TLS Web Client Authentication
            X509v3 Subject Key Identifier: 
                A8:C8:51:4E:BC:EC:1F:5F:7F:66:8F:81:BE:31:28:CC:AB:92:A6:B3
            X509v3 Authority Key Identifier: 
                keyid:CD:42:46:4F:EE:6A:BF:70:42:4E:4B:7C:23:0F:F2:DD:CE:40:7A:3E

            X509v3 Subject Alternative Name: 
                DNS:vault.lab5.ca, IP Address:10.0.0.2
    Signature Algorithm: sha1WithRSAEncryption
         6e:dd:7c:62:0d:8b:6a:97:0d:64:af:d3:c1:8f:6b:47:39:e5:
         e1:54:ae:49:74:00:b7:68:ba:40:b2:b3:b8:77:b7:3f:cb:56:
         37:e7:45:b2:a6:fa:c9:f2:7f:4a:72:fd:96:eb:d2:95:f4:a1:
         7e:f0:ce:d7:b4:dc:fc:8e:0e:29:19:16:4f:f5:b0:c5:33:2c:
         1c:67:17:d8:46:91:28:8e:55:ae:f5:1d:fc:20:68:46:20:d9:
         0f:e0:89:36:d7:6c:f0:53:e3:6f:d5:4b:58:f1:6c:71:71:98:
         04:ea:85:86:6a:c9:26:1b:f5:b6:fc:56:23:b7:2c:d9:93:54:
         86:db:5e:2c:aa:38:cf:2a:c5:70:61:56:44:1b:21:85:69:68:
         af:a7:76:ee:65:40:58:a1:24:21:30:e7:39:74:ee:f6:8c:28:
         74:3b:a6:2a:13:15:5b:ab:be:cc:23:49:4f:9c:37:d4:66:62:
         34:f0:a2:7c:eb:a3:f4:98:b8:16:be:f2:94:95:bc:56:ab:2b:
         42:89:62:33:ac:34:d1:75:f9:8d:df:aa:7d:99:19:81:5e:e7:
         85:80:fa:96:ec:b4:de:c1:2a:dd:5b:68:07:66:5a:b6:a7:25:
         00:08:1a:2d:a9:5f:a9:c0:60:56:f9:c9:cf:1e:8c:e9:3f:b7:
         f3:0d:c0:9d
-----BEGIN CERTIFICATE-----
MIID8TCCAtmgAwIBAgIBATANBgkqhkiG9w0BAQUFADBqMRIwEAYKCZImiZPyLGQB
GRYCY2ExFDASBgoJkiaJk/IsZAEZFgRsYWI1MRkwFwYDVQQKDBBMYWI1IERldk9w
cyBJbmMuMQ8wDQYDVQQLDAZEZXZPcHMxEjAQBgNVBAMMCVJvb3RDQSBHMTAeFw0y
MjA0MjgxOTM1NDhaFw0yNDA0MjcxOTM1NDhaMG4xEjAQBgoJkiaJk/IsZAEZFgJj
YTEUMBIGCgmSJomT8ixkARkWBGxhYjUxGTAXBgNVBAoMEExhYjUgRGV2T3BzIElu
Yy4xDzANBgNVBAsMBkRldk9wczEWMBQGA1UEAwwNdmF1bHQubGFiNS5jYTCCASIw
DQYJKoZIhvcNAQEBBQADggEPADCCAQoCggEBAKvOaxs7RQ5GIQ4qTP13L3nuFFS/
nhfP7Y0iRAqSTwuPd6QFpeMMmzQvc7vp4yF7Wffti+5tyq4ryXWmS4B9NsBQyJTs
x0YWcpNr7hzWU5hS5filwhIyHl6ZI+97XjV7Durrx0YnszkOcz1ozqHCHpWHFX+W
StPi//4T8dfxCt18vZpitvIOhwFcZ3/Iy7vI80zX1wz8aV6Jmw3Ia5UE7BaGhL8m
QaGi6y5AsB5K6sK3PqsJsh/QQZLUmn0ASdQWhOPq9qYhh81x+gO+SST+vsxafmNU
uT4FgNMkRzyAeQqovsT8UGMNMEifoWGCMVRpWlXGw2f+n08fNagm+6qNo2cCAwEA
AaOBnTCBmjAOBgNVHQ8BAf8EBAMCBaAwCQYDVR0TBAIwADAdBgNVHSUEFjAUBggr
BgEFBQcDAQYIKwYBBQUHAwIwHQYDVR0OBBYEFKjIUU687B9ff2aPgb4xKMyrkqaz
MB8GA1UdIwQYMBaAFM1CRk/uar9wQk5LfCMP8t3OQHo+MB4GA1UdEQQXMBWCDXZh
dWx0LmxhYjUuY2GHBAoAAAIwDQYJKoZIhvcNAQEFBQADggEBAG7dfGINi2qXDWSv
08GPa0c55eFUrkl0ALdoukCys7h3tz/LVjfnRbKm+snyf0py/Zbr0pX0oX7wzte0
3PyODikZFk/1sMUzLBxnF9hGkSiOVa71HfwgaEYg2Q/giTbXbPBT42/VS1jxbHFx
mATqhYZqySYb9bb8ViO3LNmTVIbbXiyqOM8qxXBhVkQbIYVpaK+ndu5lQFihJCEw
5zl07vaMKHQ7pioTFVurvswjSU+cN9RmYjTwonzro/SYuBa+8pSVvFarK0KJYjOs
NNF1+Y3fqn2ZGYFe54WA+pbstN7BKt1baAdmWranJQAIGi2pX6nAYFb5yc8ejOk/
t/MNwJ0=
-----END CERTIFICATE-----
