Certificate:
    Data:
        Version: 3 (0x2)
        Serial Number: 1 (0x1)
        Signature Algorithm: sha256WithRSAEncryption
        Issuer: DC=ca, DC=lab5, O=Lab5 DevOps Inc., OU=www.lab5.ca, CN=Issuing CA G1
        Validity
            Not Before: May  8 12:16:49 2022 GMT
            Not After : May  7 12:16:49 2024 GMT
        Subject: DC=ca, DC=lab5, O=Lab5 DevOps Inc., OU=www.lab5.ca, CN=vault.lab5.ca
        Subject Public Key Info:
            Public Key Algorithm: rsaEncryption
                RSA Public-Key: (2048 bit)
                Modulus:
                    00:b4:b6:f1:2f:93:91:8e:8f:fd:f0:00:77:7e:5e:
                    1d:c3:b2:99:81:3b:6e:4e:6c:bb:6e:bb:60:d5:be:
                    d6:24:43:5e:3c:21:d3:b3:9d:70:36:04:85:d3:87:
                    02:30:f4:eb:54:76:ab:b1:3f:10:d7:3e:22:48:1e:
                    ca:e6:84:6f:56:4f:fe:c2:50:9c:7e:be:dc:94:f3:
                    41:66:93:96:04:ae:ab:55:c4:7a:49:15:98:be:08:
                    98:36:b1:21:36:04:b2:14:cf:1e:3e:e3:fa:27:73:
                    38:8b:68:14:97:40:a3:c2:05:be:1d:bc:a4:87:e4:
                    e2:95:37:25:40:8c:d0:4c:34:24:bb:85:7e:c6:ca:
                    ea:1e:f5:02:c6:f1:f1:26:9e:4c:ce:2e:8f:4d:e5:
                    ea:86:54:3d:6f:c3:74:37:8c:a1:1c:37:b3:89:87:
                    23:e7:4c:3e:95:ee:c0:a5:df:62:cf:78:4b:aa:11:
                    b6:48:2d:6f:37:6d:20:cf:a7:74:5e:91:6f:ae:18:
                    7e:45:cb:cf:a2:d7:48:20:2a:bd:bc:ff:a5:98:4e:
                    e3:2e:ba:ff:ec:9f:f0:cd:24:fb:03:ad:b1:ca:1d:
                    e6:61:85:d7:7b:22:ad:fc:35:2c:0a:3d:67:73:5c:
                    f2:fe:a7:c0:e5:98:75:c8:fa:ed:25:e1:3b:e0:0a:
                    dc:3b
                Exponent: 65537 (0x10001)
        X509v3 extensions:
            X509v3 Key Usage: critical
                Digital Signature, Key Encipherment
            X509v3 Basic Constraints: 
                CA:FALSE
            X509v3 Extended Key Usage: 
                TLS Web Server Authentication, TLS Web Client Authentication
            X509v3 Subject Key Identifier: 
                11:9F:16:56:59:20:AD:19:68:E9:84:CE:6E:5D:10:25:AC:F5:87:02
            X509v3 Authority Key Identifier: 
                keyid:E4:AD:2E:FB:7A:34:78:C0:E2:EA:0B:91:77:18:CE:78:91:74:1B:E3

            X509v3 Subject Alternative Name: 
                DNS:vault.lab5.ca, IP Address:127.0.0.1
    Signature Algorithm: sha256WithRSAEncryption
         3c:d0:51:71:5d:e2:5d:b1:1a:7b:e5:5c:91:77:a7:ba:fe:20:
         c0:7a:2e:b4:00:d9:a4:31:a9:25:9d:5c:f7:f4:1b:8b:ba:07:
         bc:c4:2c:45:52:40:f2:de:c9:72:6c:3f:96:c5:8c:0b:69:dd:
         23:b5:b9:ef:cd:a0:78:9a:1f:49:1f:3b:f1:58:2b:b7:6d:38:
         5d:8f:f0:62:55:ea:fe:0a:12:27:2e:ac:cc:4a:29:9c:09:bf:
         54:19:d9:8e:ab:b2:0d:5e:73:16:37:86:d8:da:57:08:25:2c:
         bd:f4:d9:c7:13:17:37:0c:76:a6:c3:30:82:b7:c8:25:08:92:
         2d:b2:b7:4b:36:84:7c:df:d4:70:05:53:bb:ed:93:a8:25:7b:
         e9:10:51:ca:7d:e4:82:77:9d:1e:63:a2:6d:34:e6:55:a2:0b:
         35:05:40:ec:a7:17:ff:f1:a0:03:55:3b:6c:c5:85:c8:b3:0e:
         87:fd:96:6c:b8:3a:3a:d7:6c:da:47:80:d1:6d:79:f4:50:78:
         96:fb:21:70:4e:96:bf:73:da:48:6c:fc:d5:2f:b6:2c:0a:57:
         18:27:8b:e2:82:ec:73:dd:a4:b1:19:6e:bb:c3:fb:26:67:35:
         05:1b:11:bc:60:ea:42:59:cb:d8:d9:1b:e2:9d:b3:e0:e5:01:
         22:f1:ab:af
-----BEGIN CERTIFICATE-----
MIID/zCCAuegAwIBAgIBATANBgkqhkiG9w0BAQsFADBzMRIwEAYKCZImiZPyLGQB
GRYCY2ExFDASBgoJkiaJk/IsZAEZFgRsYWI1MRkwFwYDVQQKDBBMYWI1IERldk9w
cyBJbmMuMRQwEgYDVQQLDAt3d3cubGFiNS5jYTEWMBQGA1UEAwwNSXNzdWluZyBD
QSBHMTAeFw0yMjA1MDgxMjE2NDlaFw0yNDA1MDcxMjE2NDlaMHMxEjAQBgoJkiaJ
k/IsZAEZFgJjYTEUMBIGCgmSJomT8ixkARkWBGxhYjUxGTAXBgNVBAoMEExhYjUg
RGV2T3BzIEluYy4xFDASBgNVBAsMC3d3dy5sYWI1LmNhMRYwFAYDVQQDDA12YXVs
dC5sYWI1LmNhMIIBIjANBgkqhkiG9w0BAQEFAAOCAQ8AMIIBCgKCAQEAtLbxL5OR
jo/98AB3fl4dw7KZgTtuTmy7brtg1b7WJENePCHTs51wNgSF04cCMPTrVHarsT8Q
1z4iSB7K5oRvVk/+wlCcfr7clPNBZpOWBK6rVcR6SRWYvgiYNrEhNgSyFM8ePuP6
J3M4i2gUl0CjwgW+Hbykh+TilTclQIzQTDQku4V+xsrqHvUCxvHxJp5Mzi6PTeXq
hlQ9b8N0N4yhHDeziYcj50w+le7Apd9iz3hLqhG2SC1vN20gz6d0XpFvrhh+RcvP
otdIICq9vP+lmE7jLrr/7J/wzST7A62xyh3mYYXXeyKt/DUsCj1nc1zy/qfA5Zh1
yPrtJeE74ArcOwIDAQABo4GdMIGaMA4GA1UdDwEB/wQEAwIFoDAJBgNVHRMEAjAA
MB0GA1UdJQQWMBQGCCsGAQUFBwMBBggrBgEFBQcDAjAdBgNVHQ4EFgQUEZ8WVlkg
rRlo6YTObl0QJaz1hwIwHwYDVR0jBBgwFoAU5K0u+3o0eMDi6guRdxjOeJF0G+Mw
HgYDVR0RBBcwFYINdmF1bHQubGFiNS5jYYcEfwAAATANBgkqhkiG9w0BAQsFAAOC
AQEAPNBRcV3iXbEae+VckXenuv4gwHoutADZpDGpJZ1c9/Qbi7oHvMQsRVJA8t7J
cmw/lsWMC2ndI7W5782geJofSR878Vgrt204XY/wYlXq/goSJy6szEopnAm/VBnZ
jquyDV5zFjeG2NpXCCUsvfTZxxMXNwx2psMwgrfIJQiSLbK3SzaEfN/UcAVTu+2T
qCV76RBRyn3kgnedHmOibTTmVaILNQVA7KcX//GgA1U7bMWFyLMOh/2WbLg6Otds
2keA0W159FB4lvshcE6Wv3PaSGz81S+2LApXGCeL4oLsc92ksRluu8P7Jmc1BRsR
vGDqQlnL2Nkb4p2z4OUBIvGrrw==
-----END CERTIFICATE-----
