-----BEGIN ENCRYPTED PRIVATE KEY-----
MIIFLTBXBgkqhkiG9w0BBQ0wSjApBgkqhkiG9w0BBQwwHAQI8grFUp0h420CAggA
MAwGCCqGSIb3DQIJBQAwHQYJYIZIAWUDBAECBBDY3QaFK6/U+yd3IdmDafUhBIIE
0HCbtASbcQaPQGAtFz3WABQZ8pmt9dm3VJqYMrLOPHxcKKMtdaHIydhGVs9FXPVe
KeY+yBrHIMfK133f8JA4F9XMfVWLYIW9lmU8up1m535Kxo+yy4SicWe3bt6jZ2sr
lYdaNpnE++4VhaQXfVjiTpPnhkbp/udTgjuIhXP15rBt3yuEbsDw0G+sY5PhkkXQ
K6TXaV0kf4PWwtgRBWSck+Y+Z8KsRV2qJKVrPJ0YHzadtL4JSLS+zMeSY9ekntBF
HBa9m3goLQYQjYUsPsIkYkoc1KfM73ds6AmFE4qI/KG3IEkZKzu9aRZvfHTdQmCP
sfGuxErtSAJjPWaHylwOXnCtsNagv+SiV39sSd6DzAln0QbugABKBuMasJOaRIu6
oLmWzH63kqrsASP7XoF6/NVv8yQM5v2lmGmPn5KkYcWAWZk/9GPNB6o0cvuy4mOH
ZzOQbKdts9AXNMj/Bp5dnIju9Z4149yS2PHTBzS7ER8ZIY0LJrDiJkhb/COk0uI3
BLUV5kIYXKjfsYoWvaeo03tjkCPh40FHoPBnNuL/S+Eki4HcZ9Apb8xtQDzmjC/q
CW4ScHRYxiiUu9LGn5EivCyu3EXvM0VPnC+L1OylAKa6zzwUS32tZRJ96O3ujRPJ
jGD2ZLWwzPyppl+oVV8KZwIcGFBT1PCYcy+Qu0dSIYnlVER5b5hHjunq+p9rejoi
8G+uYCV/MvQ0rBeIgypc3+prAnt9N7H5ayzj/zbFSFbPsQPIJ9patELQi7pcCRFR
eSyjiW4tk8hIKe1TFxyIYCpORXe4Un0DCm3YTAM9RAN2qzJ9yViX1EYW9piNequN
ixUI0pfCNSnuIM9Hk9H8jxogaqV8pMSXxoEtAEh6adqtbu5tCguJdGXieuIQvOie
MnGkEtBUcIzzW8EwNdln3yr37jsNy0YiQeQr9pirxNSItOiWzQqKkBL8xwvvIqGf
LAHJN6q1aWh/3dTBzI+jRvrebz82gcCYLZm66LqobjlEqrPRzdLttKGnr7FZEUxf
g6VEdC508kzMeFLCmd562xsNzXRSDjD7BBByjTHmrREZTb9OiXISuPfiD3EwNve+
fQTupN5aqtDJ0DFNXtix0naE6L/L3X7H3dzzt9/XP7+eccO9HF06m8faEQRK6ZVI
gDw4LQlaupLLX71aAGEIPyv86S9nJ/m1u7QNYsK72eIE9W3GUTBIN3cUCpxKxbqI
2rigxiIz8Q/maNhxlrz10u7AkqpbStJZr0fYV1LXf7UuTITcQ1br10M01ovNc66r
F1gLqDtkoja4KyxU/zM6atGczjbV3A4Z7dNYeSa5SwANo06o+Y2HqOSI5yOyBjhs
9OIiqVQ+//lXhLynvgD1acRdy2ozDM9Z5KeEwEMHnBTpa8zK8KopWUUeGztiFvFa
5lBAAdqNm4GH+xjUlEuJouA+V9of1EQe3YsTb69LycJlGx0QV63hHxN6rXM7wkuG
wTHsskoQQpUBwZu3iPWJMsqYzHQJ5gGeBVx/xgcY4srHv31lflIlkyha1h7Gcmn5
iEslaK1J+7wUhh6EXkyitrmR5iuMRbrTUE/LnhEoX+Lkv9N5NnifSeHpkDAwKDug
16y9SNZ/rCVNQgbbclIhhqs1p70oeoK5qIG8LwqO/Acf
-----END ENCRYPTED PRIVATE KEY-----
Certificate:
    Data:
        Version: 3 (0x2)
        Serial Number: 1 (0x1)
        Signature Algorithm: rsassaPss         
         Hash Algorithm: sha256
         Mask Algorithm: mgf1 with sha256
          Salt Length: 0xDE
         Trailer Field: 0xBC (default)
        Issuer: DC=ca, DC=lab5, O=Lab5 DevOps Inc., OU=DevOps, CN=RootCA G1
        Validity
            Not Before: Apr 29 14:33:56 2022 GMT
            Not After : Apr 28 14:33:56 2024 GMT
        Subject: DC=ca, DC=lab5, O=Lab5 DevOps Inc., OU=DevOps, CN=vault.lab5.ca
        Subject Public Key Info:
            Public Key Algorithm: rsassaPss
                RSA-PSS Public-Key: (2048 bit)
                Modulus:
                    00:c1:67:77:d2:8a:7b:15:e7:ca:67:75:08:bb:19:
                    56:aa:d0:81:2e:38:fd:c4:82:fe:71:4e:12:4d:ff:
                    36:f1:a7:83:d3:49:2b:3e:b0:37:ca:d8:c1:84:ae:
                    11:62:d2:2c:78:5e:fd:f0:8e:b8:01:eb:5c:37:fc:
                    0d:8b:8a:bc:2b:99:f2:56:ab:d3:95:49:0a:13:39:
                    0a:4f:66:37:7e:9e:9f:35:76:3e:13:4b:00:3d:26:
                    5d:e4:9e:f7:4a:47:a1:5f:83:2c:8c:f9:2f:89:58:
                    f3:9e:4f:53:a3:3a:2d:82:4c:2b:fb:39:4b:74:94:
                    89:d3:d3:88:33:ed:7c:4a:46:24:12:f4:3e:9f:50:
                    6a:1b:a9:75:19:ab:07:c8:f9:6f:d6:1c:11:31:70:
                    2a:d3:c2:8d:ae:ae:69:75:fb:ca:74:fe:0b:9d:80:
                    cb:28:e5:74:8f:f2:e6:b2:f9:b2:5e:70:d9:6e:e7:
                    5b:dd:52:47:60:30:67:e2:7c:bc:96:01:d0:c8:20:
                    7d:21:f6:6f:20:01:f6:8b:f7:89:43:3f:54:d3:b3:
                    1d:c2:85:29:34:fe:f4:da:00:79:94:92:50:b3:e6:
                    c1:a8:f7:d1:55:be:0c:5d:31:ff:3f:40:eb:82:b4:
                    fb:ae:0c:43:6d:eb:3e:1f:8c:f4:4b:bb:41:19:3e:
                    e9:45
                Exponent: 65537 (0x10001)
                No PSS parameter restrictions
        X509v3 extensions:
            X509v3 Key Usage: critical
                Digital Signature, Key Encipherment
            X509v3 Basic Constraints: 
                CA:FALSE
            X509v3 Extended Key Usage: 
                TLS Web Server Authentication, TLS Web Client Authentication
            X509v3 Subject Key Identifier: 
                09:E1:74:F7:C3:C3:65:8F:23:59:4F:DB:C2:01:F7:91:3D:54:CB:6D
            X509v3 Authority Key Identifier: 
                keyid:4B:57:35:B2:EC:D1:7F:E9:64:50:C0:06:5A:7C:BF:04:22:CC:32:81

            X509v3 Subject Alternative Name: 
                DNS:vault.lab5.ca, IP Address:10.0.0.2
    Signature Algorithm: rsassaPss         
         Hash Algorithm: sha256
         Mask Algorithm: mgf1 with sha256
          Salt Length: 0xDE
         Trailer Field: 0xBC (default)

         a9:fd:9d:11:0d:41:ae:f8:16:2f:e5:3c:3a:08:ae:e8:0f:d5:
         13:9a:b8:74:f3:5b:3d:5e:23:87:7b:ca:1e:49:47:63:70:95:
         ad:5d:08:c7:a4:e4:2a:d3:b9:3c:66:92:42:da:7c:8d:2e:21:
         12:8c:d4:03:a8:c3:02:34:fe:07:7f:e7:5c:7e:32:e2:4e:90:
         a5:80:ce:11:92:0d:0f:9a:ba:97:e6:83:e7:4e:68:92:c3:24:
         f7:ce:9c:17:35:e9:9a:58:2c:7e:bc:cb:bd:b0:c9:9b:d3:f4:
         65:08:de:ec:41:84:4d:9c:94:5c:ce:49:e0:53:84:87:7e:1e:
         29:5d:71:37:6d:64:34:5b:d3:da:ce:fc:67:bf:65:37:db:54:
         91:e7:e0:91:fd:b1:ea:d3:3e:29:b5:a0:29:ab:6f:bb:70:40:
         53:19:1f:30:64:67:c2:33:39:a4:45:9e:7a:44:52:e5:4e:5e:
         83:4a:cd:ae:fd:2c:98:bb:00:b8:2f:6d:bb:ed:cc:f0:28:58:
         62:d8:8e:c4:89:eb:53:8d:9d:d1:2d:f5:d0:9c:3d:26:0c:c8:
         1a:22:a2:08:23:f6:97:f2:fb:82:19:c5:ac:65:3e:08:a1:e8:
         9e:b3:d8:ed:0b:62:1d:8f:28:db:35:42:7a:61:cb:25:9d:f3:
         06:02:b1:0e
-----BEGIN CERTIFICATE-----
MIIEUTCCAwigAwIBAgIBATA+BgkqhkiG9w0BAQowMaANMAsGCWCGSAFlAwQCAaEa
MBgGCSqGSIb3DQEBCDALBglghkgBZQMEAgGiBAICAN4wajESMBAGCgmSJomT8ixk
ARkWAmNhMRQwEgYKCZImiZPyLGQBGRYEbGFiNTEZMBcGA1UECgwQTGFiNSBEZXZP
cHMgSW5jLjEPMA0GA1UECwwGRGV2T3BzMRIwEAYDVQQDDAlSb290Q0EgRzEwHhcN
MjIwNDI5MTQzMzU2WhcNMjQwNDI4MTQzMzU2WjBuMRIwEAYKCZImiZPyLGQBGRYC
Y2ExFDASBgoJkiaJk/IsZAEZFgRsYWI1MRkwFwYDVQQKDBBMYWI1IERldk9wcyBJ
bmMuMQ8wDQYDVQQLDAZEZXZPcHMxFjAUBgNVBAMMDXZhdWx0LmxhYjUuY2EwggEg
MAsGCSqGSIb3DQEBCgOCAQ8AMIIBCgKCAQEAwWd30op7FefKZ3UIuxlWqtCBLjj9
xIL+cU4STf828aeD00krPrA3ytjBhK4RYtIseF798I64AetcN/wNi4q8K5nyVqvT
lUkKEzkKT2Y3fp6fNXY+E0sAPSZd5J73SkehX4MsjPkviVjznk9Tozotgkwr+zlL
dJSJ09OIM+18SkYkEvQ+n1BqG6l1GasHyPlv1hwRMXAq08KNrq5pdfvKdP4LnYDL
KOV0j/LmsvmyXnDZbudb3VJHYDBn4ny8lgHQyCB9IfZvIAH2i/eJQz9U07MdwoUp
NP702gB5lJJQs+bBqPfRVb4MXTH/P0DrgrT7rgxDbes+H4z0S7tBGT7pRQIDAQAB
o4GdMIGaMA4GA1UdDwEB/wQEAwIFoDAJBgNVHRMEAjAAMB0GA1UdJQQWMBQGCCsG
AQUFBwMBBggrBgEFBQcDAjAdBgNVHQ4EFgQUCeF098PDZY8jWU/bwgH3kT1Uy20w
HwYDVR0jBBgwFoAUS1c1suzRf+lkUMAGWny/BCLMMoEwHgYDVR0RBBcwFYINdmF1
bHQubGFiNS5jYYcECgAAAjA+BgkqhkiG9w0BAQowMaANMAsGCWCGSAFlAwQCAaEa
MBgGCSqGSIb3DQEBCDALBglghkgBZQMEAgGiBAICAN4DggEBAKn9nRENQa74Fi/l
PDoIrugP1ROauHTzWz1eI4d7yh5JR2Nwla1dCMek5CrTuTxmkkLafI0uIRKM1AOo
wwI0/gd/51x+MuJOkKWAzhGSDQ+aupfmg+dOaJLDJPfOnBc16ZpYLH68y72wyZvT
9GUI3uxBhE2clFzOSeBThId+HildcTdtZDRb09rO/Ge/ZTfbVJHn4JH9serTPim1
oCmrb7twQFMZHzBkZ8IzOaRFnnpEUuVOXoNKza79LJi7ALgvbbvtzPAoWGLYjsSJ
61ONndEt9dCcPSYMyBoioggj9pfy+4IZxaxlPgih6J6z2O0LYh2PKNs1QnphyyWd
8wYCsQ4=
-----END CERTIFICATE-----
