Certificate:
    Data:
        Version: 3 (0x2)
        Serial Number: 1 (0x1)
        Signature Algorithm: sha256WithRSAEncryption
        Issuer: DC=ca, DC=lab5, O=Lab5 DevOps Inc., OU=www.lab5.ca, CN=Issuing CA G1
        Validity
            Not Before: May  1 14:59:40 2022 GMT
            Not After : Apr 30 14:59:40 2024 GMT
        Subject: DC=ca, DC=lab5, O=Lab5 DevOps Inc., OU=www.lab5.ca, CN=vault.lab5.ca
        Subject Public Key Info:
            Public Key Algorithm: rsaEncryption
                RSA Public-Key: (2048 bit)
                Modulus:
                    00:e7:e0:c0:2a:44:5d:b9:75:c6:bc:5d:f9:2d:06:
                    c1:41:d7:6c:06:6e:3a:0f:d9:29:24:d8:df:d3:1d:
                    2b:53:10:70:d4:47:a2:f6:53:88:9e:3e:85:82:3b:
                    02:83:52:bf:d1:ad:bc:00:e8:00:c5:a8:f5:20:7b:
                    12:60:32:aa:2f:65:df:4a:75:20:b9:73:1b:00:88:
                    10:8b:90:7e:97:a2:4a:de:99:77:01:e0:a0:89:7c:
                    35:be:af:ba:e8:9a:0d:ec:b4:9c:7e:ac:62:a0:ef:
                    5f:22:72:4e:3e:4c:05:7f:63:4c:d7:f4:d4:a3:8f:
                    54:12:d1:e0:40:7e:c7:f1:e9:60:5d:34:2c:de:98:
                    0c:98:28:cb:a6:e6:6f:b7:08:8a:d5:63:75:9a:c2:
                    37:73:6b:c2:24:b7:cb:d4:a6:71:8d:d5:b8:e3:3a:
                    e0:7a:7b:d2:88:fd:df:2b:2e:d4:98:61:58:a6:49:
                    de:70:74:a7:b5:3a:1c:49:0a:43:bc:e2:0e:2b:69:
                    53:c3:65:ac:8e:4c:51:ec:bd:91:d9:41:14:f1:55:
                    ec:8c:35:16:2c:38:e8:53:16:13:5f:74:de:40:a0:
                    76:99:fc:4d:ce:10:9d:c0:d3:45:59:69:8d:cb:9c:
                    fb:63:ee:d7:36:b8:66:4c:19:58:75:1a:d5:0d:22:
                    9f:15
                Exponent: 65537 (0x10001)
        X509v3 extensions:
            X509v3 Key Usage: critical
                Digital Signature, Key Encipherment
            X509v3 Basic Constraints: 
                CA:FALSE
            X509v3 Extended Key Usage: 
                TLS Web Server Authentication, TLS Web Client Authentication
            X509v3 Subject Key Identifier: 
                87:BB:1E:6D:91:A5:81:0D:2E:68:52:03:14:A5:CF:F5:2E:88:7B:1D
            X509v3 Authority Key Identifier: 
                keyid:B3:92:66:CC:E2:8F:C6:DB:91:27:E2:83:96:33:4A:55:FD:50:22:77

            X509v3 Subject Alternative Name: 
                DNS:vault.lab5.ca, IP Address:127.0.0.1
    Signature Algorithm: sha256WithRSAEncryption
         8e:e7:0f:5d:25:b1:7b:ed:90:fc:93:4f:de:4e:8e:10:45:5d:
         cb:87:9e:63:be:5b:0a:d3:bd:5c:6b:17:53:87:e2:58:df:24:
         62:9a:a1:25:30:d0:dc:37:09:13:8e:75:9e:c0:b4:89:0a:83:
         c9:d7:aa:23:13:95:24:f5:cf:82:cc:67:88:85:6e:0e:70:4a:
         69:da:9e:39:5f:77:c9:d7:2d:5a:74:d5:c0:e4:4e:6c:49:80:
         56:24:6e:cc:6c:0a:eb:7f:3b:73:7a:8b:32:e8:09:fe:07:42:
         86:05:a2:eb:4c:6c:e0:d1:e9:8d:ca:0a:22:a8:07:98:f0:27:
         4d:02:a3:5c:14:50:1a:a3:5a:52:c4:e4:f0:d7:02:ba:70:5e:
         fa:0b:aa:ce:60:45:14:4b:b9:f4:5d:d3:26:d8:7c:ee:57:f8:
         e8:63:ae:6f:8b:e3:75:ce:e4:20:7b:57:77:07:3b:5b:25:01:
         48:b5:b0:63:53:ba:36:05:7a:c8:cc:5b:27:20:47:03:52:06:
         2e:38:d9:5c:c6:d6:14:db:0d:5e:c5:48:04:7e:35:bc:02:b4:
         a6:f4:76:8b:af:68:e6:1a:52:19:7e:6e:a0:11:d5:cb:1f:5e:
         a2:b3:ae:d6:40:0d:74:1c:80:20:89:ee:a2:7b:13:4e:ec:73:
         5d:43:61:7e
-----BEGIN CERTIFICATE-----
MIID/zCCAuegAwIBAgIBATANBgkqhkiG9w0BAQsFADBzMRIwEAYKCZImiZPyLGQB
GRYCY2ExFDASBgoJkiaJk/IsZAEZFgRsYWI1MRkwFwYDVQQKDBBMYWI1IERldk9w
cyBJbmMuMRQwEgYDVQQLDAt3d3cubGFiNS5jYTEWMBQGA1UEAwwNSXNzdWluZyBD
QSBHMTAeFw0yMjA1MDExNDU5NDBaFw0yNDA0MzAxNDU5NDBaMHMxEjAQBgoJkiaJ
k/IsZAEZFgJjYTEUMBIGCgmSJomT8ixkARkWBGxhYjUxGTAXBgNVBAoMEExhYjUg
RGV2T3BzIEluYy4xFDASBgNVBAsMC3d3dy5sYWI1LmNhMRYwFAYDVQQDDA12YXVs
dC5sYWI1LmNhMIIBIjANBgkqhkiG9w0BAQEFAAOCAQ8AMIIBCgKCAQEA5+DAKkRd
uXXGvF35LQbBQddsBm46D9kpJNjf0x0rUxBw1Eei9lOInj6FgjsCg1K/0a28AOgA
xaj1IHsSYDKqL2XfSnUguXMbAIgQi5B+l6JK3pl3AeCgiXw1vq+66JoN7LScfqxi
oO9fInJOPkwFf2NM1/TUo49UEtHgQH7H8elgXTQs3pgMmCjLpuZvtwiK1WN1msI3
c2vCJLfL1KZxjdW44zrgenvSiP3fKy7UmGFYpknecHSntTocSQpDvOIOK2lTw2Ws
jkxR7L2R2UEU8VXsjDUWLDjoUxYTX3TeQKB2mfxNzhCdwNNFWWmNy5z7Y+7XNrhm
TBlYdRrVDSKfFQIDAQABo4GdMIGaMA4GA1UdDwEB/wQEAwIFoDAJBgNVHRMEAjAA
MB0GA1UdJQQWMBQGCCsGAQUFBwMBBggrBgEFBQcDAjAdBgNVHQ4EFgQUh7sebZGl
gQ0uaFIDFKXP9S6Iex0wHwYDVR0jBBgwFoAUs5JmzOKPxtuRJ+KDljNKVf1QIncw
HgYDVR0RBBcwFYINdmF1bHQubGFiNS5jYYcEfwAAATANBgkqhkiG9w0BAQsFAAOC
AQEAjucPXSWxe+2Q/JNP3k6OEEVdy4eeY75bCtO9XGsXU4fiWN8kYpqhJTDQ3DcJ
E451nsC0iQqDydeqIxOVJPXPgsxniIVuDnBKadqeOV93ydctWnTVwORObEmAViRu
zGwK6387c3qLMugJ/gdChgWi60xs4NHpjcoKIqgHmPAnTQKjXBRQGqNaUsTk8NcC
unBe+guqzmBFFEu59F3TJth87lf46GOub4vjdc7kIHtXdwc7WyUBSLWwY1O6NgV6
yMxbJyBHA1IGLjjZXMbWFNsNXsVIBH41vAK0pvR2i69o5hpSGX5uoBHVyx9eorOu
1kANdByAIInuonsTTuxzXUNhfg==
-----END CERTIFICATE-----
