-----BEGIN PRIVATE KEY-----
MIIEvgIBADANBgkqhkiG9w0BAQEFAASCBKgwggSkAgEAAoIBAQDPI5q/IdZb01LO
9nOo3KbV+2XZMoAi8bcSgQKqkNNe5cwicZ2k+QqaTzgnGm4uA1V48UApmRfy92g9
vEgp/+DsyUok+G6AV9E9YGFeQGV4dPikQ87Wzs/3da31iFVcIEphf7/jtUl7BLJv
NTyxDZH15f9JXm52g1iL8NdAHqvYB/F+R1PkQR/LGqLnYtx46vivZzqOip4YqIff
Ul/AitGkwM0gS37JTpJAzLwL4U/nEHOIu9m0z6FKwBr/btYfbh/WoWDTO0vqCTIC
ogrGm0O8PI3zEazG+CYP2SyW/xJ+OrBJr1cEYoraH35TssxqI73ZqDR3Az7a7OwS
JjnByY+tAgMBAAECggEBAMOEc/idU9xw5+T6s8lcHQ41sbkF9fUF+yu4InAlK56T
gc+xNoAVonBs/i/Kvt0nwHHcJhgdrYFlDjvXkLY0FHbsuNOUu5jhS1uHseBpIF5G
6rsCViZkJ+EIbx8nhIrk39CP6Oxine1ETbiyo4rrqC5W3lS+kb3D1LyipEqdqM7L
XYTLsSIh6xnP9RdHrAdY+eXMsPaJPLs4FDvTC/SoHSmCmqo52N6hoTTKuIO51hOn
hw1bRWz6H5pwJQkSg7hpCzvEk+JOm2DmoF56t1RN8tMSmMRLU22KWC07ggQXNOIo
3gjgcOITkQV6G3LaNIa/PnXXDWc5k0WADsw1CxQeoIECgYEA8FZfnQMVBwVqlQol
viD1WrJOd4vy5zK9SEbBHMnwpHf0BBQjYnGpF8a/iTkPoyB+dxXdIqgNOv+8NHEr
8grjcY7NR2PNXsrkPiMRw8eov2EeH1yzFP1Ne0NBwaaQcZ841MsxzQZe4HQn0Nkq
Uuc1RsvJaiUx09pWZdlmAM0aFEkCgYEA3KNfa946yoqctSg5FRPjI2YAjJGfVQPt
ViAtPwZYJ07vKo+OakY4xa+V/cakefNCEjaBm0ngdVZ85HLIyfrUueGYRsNtmtHU
x1s42cvkGj5khSvDuC3shsfPDqN0CZD/+DDPoxwsRm1nU8VuTl57TBwiFV0g2RIF
h+i3HvqBWEUCgYB5joYfiN6KxY+JwC8kwdC2xbZwOoVpsD0SIE8t+2lOFimCIplf
AjPPBcP8aLLjA91S5+kHzU2byJrtP0xFyIIO/nYPJIhL6HyWfPBQQFy2Jy2wGReu
hws4S+UnR9KI1UpOPlN66jz0c2tr81q3wZ8tpobBu/w+tZC7RMCVqScGmQKBgDPp
zL3YoASf8Jc/S48GCt99VIu+h7q9Hc6x63N0zrERBX0CIgQnWZxJ4ATCBFkdP2KB
qKUdEM8K9n/Z8hx0BDFoPygHO3a+AE6XzBySuKzkGUqsLXTceVaNFM7g7qCBmXiQ
I4rBSjmX7EPtpDKUUHZr+CkGrH/mmZ6MxulnD5/xAoGBALenDlIBGY+ozuTvmTE1
EbD2RSHuNltvW+I2dEvhrTlOD5LYDBMrXuk2PqFueMr/hzVfaMD8tzsKcEsUFK7g
IJJMEIUegzZqpeJ+m24Re2R5r2n+Ryx3H0TVhwSK3elSRs+0AaiJj+oF0Up5eRvL
jbzejhyRXO5F+BCxr6bapvJT
-----END PRIVATE KEY-----
Certificate:
    Data:
        Version: 3 (0x2)
        Serial Number: 1 (0x1)
        Signature Algorithm: sha1WithRSAEncryption
        Issuer: DC=ca, DC=lab5, O=Lab5 DevOps Inc., OU=DevOps, CN=RootCA G1
        Validity
            Not Before: Apr 28 18:23:25 2022 GMT
            Not After : Apr 27 18:23:25 2024 GMT
        Subject: DC=ca, DC=lab5, O=Lab5 DevOps Inc., OU=DevOps, CN=vault.lab5.ca
        Subject Public Key Info:
            Public Key Algorithm: rsaEncryption
                RSA Public-Key: (2048 bit)
                Modulus:
                    00:cf:23:9a:bf:21:d6:5b:d3:52:ce:f6:73:a8:dc:
                    a6:d5:fb:65:d9:32:80:22:f1:b7:12:81:02:aa:90:
                    d3:5e:e5:cc:22:71:9d:a4:f9:0a:9a:4f:38:27:1a:
                    6e:2e:03:55:78:f1:40:29:99:17:f2:f7:68:3d:bc:
                    48:29:ff:e0:ec:c9:4a:24:f8:6e:80:57:d1:3d:60:
                    61:5e:40:65:78:74:f8:a4:43:ce:d6:ce:cf:f7:75:
                    ad:f5:88:55:5c:20:4a:61:7f:bf:e3:b5:49:7b:04:
                    b2:6f:35:3c:b1:0d:91:f5:e5:ff:49:5e:6e:76:83:
                    58:8b:f0:d7:40:1e:ab:d8:07:f1:7e:47:53:e4:41:
                    1f:cb:1a:a2:e7:62:dc:78:ea:f8:af:67:3a:8e:8a:
                    9e:18:a8:87:df:52:5f:c0:8a:d1:a4:c0:cd:20:4b:
                    7e:c9:4e:92:40:cc:bc:0b:e1:4f:e7:10:73:88:bb:
                    d9:b4:cf:a1:4a:c0:1a:ff:6e:d6:1f:6e:1f:d6:a1:
                    60:d3:3b:4b:ea:09:32:02:a2:0a:c6:9b:43:bc:3c:
                    8d:f3:11:ac:c6:f8:26:0f:d9:2c:96:ff:12:7e:3a:
                    b0:49:af:57:04:62:8a:da:1f:7e:53:b2:cc:6a:23:
                    bd:d9:a8:34:77:03:3e:da:ec:ec:12:26:39:c1:c9:
                    8f:ad
                Exponent: 65537 (0x10001)
        X509v3 extensions:
            X509v3 Key Usage: critical
                Digital Signature, Key Encipherment
            X509v3 Basic Constraints: 
                CA:FALSE
            X509v3 Extended Key Usage: 
                TLS Web Server Authentication, TLS Web Client Authentication
            X509v3 Subject Key Identifier: 
                BB:A2:CE:21:5A:03:A1:91:6A:03:65:12:1C:B3:63:F3:4E:21:9D:E0
            X509v3 Authority Key Identifier: 
                keyid:E1:F5:7B:EC:BE:93:10:F9:C7:89:8A:45:E7:DA:19:00:9E:47:AE:91

            X509v3 Subject Alternative Name: 
                DNS:vault.lab5.ca, IP Address:10.0.0.2
    Signature Algorithm: sha1WithRSAEncryption
         36:f4:55:f3:a3:87:2e:7f:b7:04:94:01:f7:a6:ac:70:7a:21:
         06:bd:17:ab:e1:2e:ee:d3:27:7f:02:ff:51:49:e1:cc:de:09:
         3c:37:2d:76:d6:63:30:d5:55:e4:d5:8d:d9:20:47:2d:c9:f7:
         d6:de:c1:8a:13:74:19:05:23:eb:e8:04:a6:e0:2f:1b:9c:b3:
         f5:25:08:95:ae:af:d3:ee:97:a5:06:1e:c7:eb:4c:e2:bf:86:
         9d:b5:dc:2c:4b:f9:6e:6f:d0:54:04:30:43:53:82:93:d5:16:
         93:91:66:34:e4:48:32:3e:15:ed:ee:99:08:fc:57:0e:01:67:
         d7:7f:04:8d:37:dd:fe:20:83:61:b9:20:d2:a9:50:8a:68:20:
         ea:f8:98:f5:3e:be:f5:98:1c:9c:13:fe:1d:aa:59:90:0b:02:
         9b:63:66:fc:17:9d:00:1c:6e:52:70:81:b5:8e:18:06:37:9a:
         b5:03:de:e8:53:ee:5f:6b:98:5e:66:a1:6d:6d:f8:d0:a3:21:
         07:1e:1d:9e:1f:a7:c3:fe:33:8b:91:96:17:9b:0f:fb:08:5a:
         15:2b:29:e9:5d:07:7f:3c:63:19:f7:0b:99:23:d3:44:60:cd:
         21:81:2a:23:3b:f6:90:7d:7d:d4:f8:a6:16:4b:12:d5:70:66:
         f7:f2:19:15
-----BEGIN CERTIFICATE-----
MIID8TCCAtmgAwIBAgIBATANBgkqhkiG9w0BAQUFADBqMRIwEAYKCZImiZPyLGQB
GRYCY2ExFDASBgoJkiaJk/IsZAEZFgRsYWI1MRkwFwYDVQQKDBBMYWI1IERldk9w
cyBJbmMuMQ8wDQYDVQQLDAZEZXZPcHMxEjAQBgNVBAMMCVJvb3RDQSBHMTAeFw0y
MjA0MjgxODIzMjVaFw0yNDA0MjcxODIzMjVaMG4xEjAQBgoJkiaJk/IsZAEZFgJj
YTEUMBIGCgmSJomT8ixkARkWBGxhYjUxGTAXBgNVBAoMEExhYjUgRGV2T3BzIElu
Yy4xDzANBgNVBAsMBkRldk9wczEWMBQGA1UEAwwNdmF1bHQubGFiNS5jYTCCASIw
DQYJKoZIhvcNAQEBBQADggEPADCCAQoCggEBAM8jmr8h1lvTUs72c6jcptX7Zdky
gCLxtxKBAqqQ017lzCJxnaT5CppPOCcabi4DVXjxQCmZF/L3aD28SCn/4OzJSiT4
boBX0T1gYV5AZXh0+KRDztbOz/d1rfWIVVwgSmF/v+O1SXsEsm81PLENkfXl/0le
bnaDWIvw10Aeq9gH8X5HU+RBH8saoudi3Hjq+K9nOo6Knhioh99SX8CK0aTAzSBL
fslOkkDMvAvhT+cQc4i72bTPoUrAGv9u1h9uH9ahYNM7S+oJMgKiCsabQ7w8jfMR
rMb4Jg/ZLJb/En46sEmvVwRiitofflOyzGojvdmoNHcDPtrs7BImOcHJj60CAwEA
AaOBnTCBmjAOBgNVHQ8BAf8EBAMCBaAwCQYDVR0TBAIwADAdBgNVHSUEFjAUBggr
BgEFBQcDAQYIKwYBBQUHAwIwHQYDVR0OBBYEFLuiziFaA6GRagNlEhyzY/NOIZ3g
MB8GA1UdIwQYMBaAFOH1e+y+kxD5x4mKRefaGQCeR66RMB4GA1UdEQQXMBWCDXZh
dWx0LmxhYjUuY2GHBAoAAAIwDQYJKoZIhvcNAQEFBQADggEBADb0VfOjhy5/twSU
AfemrHB6IQa9F6vhLu7TJ38C/1FJ4czeCTw3LXbWYzDVVeTVjdkgRy3J99bewYoT
dBkFI+voBKbgLxucs/UlCJWur9Pul6UGHsfrTOK/hp213CxL+W5v0FQEMENTgpPV
FpORZjTkSDI+Fe3umQj8Vw4BZ9d/BI033f4gg2G5INKpUIpoIOr4mPU+vvWYHJwT
/h2qWZALAptjZvwXnQAcblJwgbWOGAY3mrUD3uhT7l9rmF5moW1t+NCjIQceHZ4f
p8P+M4uRlhebD/sIWhUrKeldB388Yxn3C5kj00RgzSGBKiM79pB9fdT4phZLEtVw
ZvfyGRU=
-----END CERTIFICATE-----
