-----BEGIN ENCRYPTED PRIVATE KEY-----
MIIFLTBXBgkqhkiG9w0BBQ0wSjApBgkqhkiG9w0BBQwwHAQIuxlNc3uBDxgCAggA
MAwGCCqGSIb3DQIJBQAwHQYJYIZIAWUDBAECBBC+HewAWvYVtm1KW/86fX6qBIIE
0H62xWtJDdH7eY/4/SXvJpMNsHh5MyoSXVnwFFPygd2LhZbIobJ7emsi0zKGa6YO
pnX0U0JN98qiqdKQKUtuNifvdRw3hTvy2RHtr5svY8Zgf0cQKyjduQkzFBZD9QI/
QSPMJNCcoGIOT+jnuEWWkedp567XNJDzxunlLs+Sy9dLwCkA0aNgubDnwcYjEKiJ
gqerSo2qyAgqhtuQ2n9vOQrS8Aen1QkuMsUcffYmIpotoK6hWpzY8iSdPc5RCuB+
e6SqXsN3f/Ob/R2sYV8GT04HjLXcpugaLB/2bnQyag/cbihsdcUHRBGfetNd01rf
6kIIF9Vfn8LFwuAlIRR89R5LLP3q6fs1/dN52yDZlOVD8XwNuz5+sNC9oENp1x54
VZnVRBkBfhdlxFE5ddvqoxBl4DHMbHHnkRDtUb8fXPtbX1hJVhnVpgHdf3tUEzHg
cjW4HxKb6OtQ9PXYSx7gsf60DOYPFmx0enrLJ4lp10tCdmI+s8PtnHgPdhK5FM7Q
vnhwFNl1MVGWuvjq59aoVZNXd7hc0kzUGkkap8jztfdbF6y6Vw5CoSqUH2SkvsKW
VoLWM5G5QuIm1O5J0M8ty0KXJHQD2AvLjAGEdUTbuyvJyjEkYLij9eZLwIkUZicg
HMkyZun4xHAW8prqgpX7nqs5YFrCZU6tOWewgXi+4/xhoe6WPZC/RzQJfwUtcZLE
RDclpvd92V2PkGDgdYgYvbrXZTFT8Etr1QDigOGRITbS1Pe7ckzO9odiNT9SWd6i
UHkwj3rg9nHtjElnA2Al7aaBvugJkLlh/VmkHVqEkWMRBd97XLLzA3XskdrDTR/1
tKJaJnfE2g6Iq5T5ALT0x6FSPZpxYPR5JyV+1aI9oVouh/rpMvTLOjYENOnyzj5B
l9uP5ZbmZ1T/QpKkktQFORJUWHLJCeisfHfuvodtYWuJNmk9dP4oyFPuecPgSXws
KDRZrxlGRq4B1bosYMKQukHn0lujjHf/HnmUcxoBgIQ+wak24Jh5B6FTkGlPzuix
1N67Hx1sgQDDOLbDq7grYziN9V/gAlw1qdf7vTHvQU5f9VPdCFxGRkxKaYkc4HhN
iMAgFdBpgE61fJB6yCoj2xq7wKmUsch2C8jJ/EseoMic/l1XgzRoW4Ft64iCg0Zr
kK2IFTP0nV1gjGbaZPtr/OP7pZjvV+fKKQ1L3Gg/+uLQ9vS7IEfWA5c08k4bh0bH
+ZMeekxdrVIJ9SsLidCSZ6u24aG1QhUrS0thTX7Ndzp4D5gtkU1mLCbUu0ltRFTa
rh3CgleOX0FFLHQonFAO+e8bP6NeL6J9ftcZ5HYZJ7w9w1IjjiAj7ohaKBoa2HxK
S8LEg/dmqz7KZpnKJqQGk1MoZy3a5j9My05uIx+ueDycbi8pbbCR5ZQ2TJ3FXG74
6JPlLdOyhO/865+tYXl+uZA6e4Xk2jQa4JxvWmdzgWthhaa0YEJ8ditTnAXBkniR
PjP4Ghgo5MT+nfxOFsqNxkOZ+XNKOBH1XMrepnFIouBBw3Hi2n1ucjDc9sTgYLQ+
5C0XgSQA5p6FzhkSb1bkd8GbWHMSSwH3CBC+njF+yVA010SYizuOYopVrQ03iGAU
aruzq+dpTIR3SH0AhzmOD5OeZi26rVFvt2QU5DR6cjTl
-----END ENCRYPTED PRIVATE KEY-----
Certificate:
    Data:
        Version: 3 (0x2)
        Serial Number: 1 (0x1)
        Signature Algorithm: rsassaPss         
         Hash Algorithm: sha256
         Mask Algorithm: mgf1 with sha256
          Salt Length: 0xDE
         Trailer Field: 0xBC (default)
        Issuer: DC=ca, DC=lab5, O=Lab5 DevOps Inc., OU=DevOps, CN=SigningCA G1
        Validity
            Not Before: Apr 29 16:26:05 2022 GMT
            Not After : Apr 28 16:26:05 2024 GMT
        Subject: DC=ca, DC=lab5, O=Lab5 DevOps Inc., OU=DevOps, CN=vault.lab5.ca
        Subject Public Key Info:
            Public Key Algorithm: rsassaPss
                RSA-PSS Public-Key: (2048 bit)
                Modulus:
                    00:d9:ef:ed:93:16:87:c1:e2:42:49:29:bc:bd:58:
                    e3:80:83:14:50:b2:28:3e:79:6b:f2:7a:0e:f8:d4:
                    46:1c:ad:fd:b3:ff:8b:3b:92:e3:59:58:4f:ae:88:
                    df:8e:27:8b:d1:66:98:10:e3:2d:3c:dd:3d:16:14:
                    1d:9b:3b:a7:e2:ee:bc:ab:54:9f:aa:ed:45:f2:6e:
                    82:e6:84:52:7a:2c:38:d3:df:16:1f:7e:d3:6d:50:
                    bd:d3:ad:07:3a:37:36:93:6f:e6:1f:19:09:64:21:
                    82:50:ca:56:2d:94:e4:b9:c8:8f:dd:6e:d2:73:48:
                    1e:8d:a4:fd:d8:4f:66:cb:a7:bf:f8:c5:92:1a:e7:
                    86:31:11:22:48:c2:30:9a:73:b5:b9:05:5e:be:24:
                    38:c0:3a:e5:cc:21:d2:64:90:7a:d7:62:31:af:90:
                    8a:c1:83:7e:ee:fa:a7:6f:f1:15:d3:88:55:43:98:
                    ff:7e:dc:78:05:9f:f9:79:60:9f:c7:67:ce:95:5c:
                    16:0f:05:03:fa:b2:f7:3c:df:a3:a6:d8:8b:fa:cc:
                    84:6d:48:46:82:fb:6d:34:8f:64:87:c7:f0:88:83:
                    95:43:17:b2:11:b0:03:65:4c:31:3e:0b:8d:94:22:
                    89:37:f6:bd:18:1a:74:c4:47:13:a4:80:0d:88:db:
                    fc:fb
                Exponent: 65537 (0x10001)
                No PSS parameter restrictions
        X509v3 extensions:
            X509v3 Key Usage: critical
                Digital Signature, Key Encipherment
            X509v3 Basic Constraints: 
                CA:FALSE
            X509v3 Extended Key Usage: 
                TLS Web Server Authentication, TLS Web Client Authentication
            X509v3 Subject Key Identifier: 
                50:58:38:6A:5F:81:AB:C8:38:F3:70:04:26:42:53:7D:50:8A:6D:58
            X509v3 Authority Key Identifier: 
                keyid:50:1C:F2:D1:31:13:A9:02:69:1D:BE:E9:19:A5:7D:68:FD:C8:07:77

            X509v3 Subject Alternative Name: 
                DNS:vault.lab5.ca, IP Address:10.0.0.2
    Signature Algorithm: rsassaPss         
         Hash Algorithm: sha256
         Mask Algorithm: mgf1 with sha256
          Salt Length: 0xDE
         Trailer Field: 0xBC (default)

         b0:de:0c:8c:29:8d:69:41:03:5e:e0:7c:85:63:fd:2f:1a:5a:
         c7:54:ea:01:64:3c:98:42:26:5b:ba:03:d0:a5:96:35:89:86:
         b7:17:f1:aa:36:1b:6e:ef:07:89:8c:4e:db:90:9a:b5:3e:48:
         e2:b9:24:f9:9d:82:fd:b2:06:c5:c5:85:6b:0c:e8:fb:08:d5:
         2b:12:39:98:0c:87:a5:9f:7d:1c:19:26:5f:d0:60:c3:d4:ce:
         9e:23:56:71:76:20:1e:2e:c2:13:e4:1d:51:5f:e0:38:14:b5:
         b3:65:bb:9a:4c:27:7f:62:47:e8:13:01:88:5b:4b:92:db:c9:
         89:db:40:41:75:fe:8f:49:29:a2:f3:b5:11:6a:2c:29:b9:4e:
         a1:39:80:1e:15:d0:46:7a:34:d9:7a:80:c4:e9:5f:30:0d:e2:
         cb:e5:65:65:97:26:9d:1f:c5:fb:d5:bf:09:ca:8b:cd:de:a4:
         79:e3:00:02:e5:47:f6:9b:11:3c:0c:70:be:ff:ea:33:67:1b:
         aa:5e:d1:6e:59:7f:31:fd:ef:e4:8b:54:db:23:d3:69:9e:15:
         a7:33:a6:f5:31:f3:32:b8:1c:6d:b8:6c:23:d2:7f:02:76:05:
         9b:dd:eb:b2:2f:eb:36:bd:73:39:e4:92:a9:7a:0d:d0:d8:c4:
         5b:9d:8b:a3
-----BEGIN CERTIFICATE-----
MIIEVDCCAwugAwIBAgIBATA+BgkqhkiG9w0BAQowMaANMAsGCWCGSAFlAwQCAaEa
MBgGCSqGSIb3DQEBCDALBglghkgBZQMEAgGiBAICAN4wbTESMBAGCgmSJomT8ixk
ARkWAmNhMRQwEgYKCZImiZPyLGQBGRYEbGFiNTEZMBcGA1UECgwQTGFiNSBEZXZP
cHMgSW5jLjEPMA0GA1UECwwGRGV2T3BzMRUwEwYDVQQDDAxTaWduaW5nQ0EgRzEw
HhcNMjIwNDI5MTYyNjA1WhcNMjQwNDI4MTYyNjA1WjBuMRIwEAYKCZImiZPyLGQB
GRYCY2ExFDASBgoJkiaJk/IsZAEZFgRsYWI1MRkwFwYDVQQKDBBMYWI1IERldk9w
cyBJbmMuMQ8wDQYDVQQLDAZEZXZPcHMxFjAUBgNVBAMMDXZhdWx0LmxhYjUuY2Ew
ggEgMAsGCSqGSIb3DQEBCgOCAQ8AMIIBCgKCAQEA2e/tkxaHweJCSSm8vVjjgIMU
ULIoPnlr8noO+NRGHK39s/+LO5LjWVhProjfjieL0WaYEOMtPN09FhQdmzun4u68
q1Sfqu1F8m6C5oRSeiw4098WH37TbVC9060HOjc2k2/mHxkJZCGCUMpWLZTkuciP
3W7Sc0gejaT92E9my6e/+MWSGueGMREiSMIwmnO1uQVeviQ4wDrlzCHSZJB612Ix
r5CKwYN+7vqnb/EV04hVQ5j/ftx4BZ/5eWCfx2fOlVwWDwUD+rL3PN+jptiL+syE
bUhGgvttNI9kh8fwiIOVQxeyEbADZUwxPguNlCKJN/a9GBp0xEcTpIANiNv8+wID
AQABo4GdMIGaMA4GA1UdDwEB/wQEAwIFoDAJBgNVHRMEAjAAMB0GA1UdJQQWMBQG
CCsGAQUFBwMBBggrBgEFBQcDAjAdBgNVHQ4EFgQUUFg4al+Bq8g483AEJkJTfVCK
bVgwHwYDVR0jBBgwFoAUUBzy0TETqQJpHb7pGaV9aP3IB3cwHgYDVR0RBBcwFYIN
dmF1bHQubGFiNS5jYYcECgAAAjA+BgkqhkiG9w0BAQowMaANMAsGCWCGSAFlAwQC
AaEaMBgGCSqGSIb3DQEBCDALBglghkgBZQMEAgGiBAICAN4DggEBALDeDIwpjWlB
A17gfIVj/S8aWsdU6gFkPJhCJlu6A9ClljWJhrcX8ao2G27vB4mMTtuQmrU+SOK5
JPmdgv2yBsXFhWsM6PsI1SsSOZgMh6WffRwZJl/QYMPUzp4jVnF2IB4uwhPkHVFf
4DgUtbNlu5pMJ39iR+gTAYhbS5LbyYnbQEF1/o9JKaLztRFqLCm5TqE5gB4V0EZ6
NNl6gMTpXzAN4svlZWWXJp0fxfvVvwnKi83epHnjAALlR/abETwMcL7/6jNnG6pe
0W5ZfzH97+SLVNsj02meFaczpvUx8zK4HG24bCPSfwJ2BZvd67Iv6za9cznkkql6
DdDYxFudi6M=
-----END CERTIFICATE-----
