Certificate:
    Data:
        Version: 3 (0x2)
        Serial Number: 1 (0x1)
        Signature Algorithm: sha256WithRSAEncryption
        Issuer: DC=ca, DC=lab5, O=Lab5 DevOps Inc., OU=www.lab5.ca, CN=Issuing CA G1
        Validity
            Not Before: May 29 13:52:45 2022 GMT
            Not After : May 28 13:52:45 2024 GMT
        Subject: DC=ca, DC=lab5, O=Lab5 DevOps Inc., OU=www.lab5.ca, CN=vault.lab5.ca
        Subject Public Key Info:
            Public Key Algorithm: rsaEncryption
                RSA Public-Key: (2048 bit)
                Modulus:
                    00:cf:a1:12:f4:b5:c5:09:a3:bc:f6:8a:a6:95:c8:
                    8a:34:1b:35:fc:ca:73:23:d8:24:cf:ba:c4:bc:ac:
                    27:f6:24:e0:63:a4:7d:22:43:46:9c:61:15:39:ab:
                    6a:46:b7:4f:88:35:52:24:69:74:08:d2:86:af:c3:
                    ac:81:95:95:87:4d:b8:e8:16:d6:90:39:50:59:d3:
                    0d:39:de:86:b2:f5:b6:e4:11:c2:5c:83:79:40:36:
                    aa:73:df:5b:e6:77:63:47:73:ff:43:67:de:88:07:
                    90:7c:c2:58:11:e2:ef:d7:92:db:58:e3:0e:f0:de:
                    53:4d:97:b6:29:a1:e9:51:82:0f:bc:cf:fc:28:63:
                    0f:e3:61:e4:69:e7:46:d3:c1:be:93:f4:a1:cc:42:
                    7b:74:1a:4f:0a:cf:c9:90:0b:89:97:8d:00:21:b9:
                    44:05:3d:26:d3:25:d5:66:60:b8:bb:06:f5:05:08:
                    41:1b:fd:17:5e:0c:bd:03:d4:ab:0a:25:57:d9:1a:
                    d4:a5:e6:8f:69:c0:81:e8:b1:89:46:a2:79:e8:3b:
                    c8:52:22:66:25:8c:d1:24:f4:bf:6e:bf:cf:e6:d8:
                    54:53:f8:fa:9a:6a:ef:65:cb:e6:79:4d:2e:42:79:
                    44:5d:d9:11:4c:79:e7:fc:bf:87:37:60:cc:20:c9:
                    06:95
                Exponent: 65537 (0x10001)
        X509v3 extensions:
            X509v3 Key Usage: critical
                Digital Signature, Key Encipherment
            X509v3 Basic Constraints: 
                CA:FALSE
            X509v3 Extended Key Usage: 
                TLS Web Server Authentication, TLS Web Client Authentication
            X509v3 Subject Key Identifier: 
                83:4D:A4:0C:C1:1D:00:83:D8:F4:94:1D:FA:53:89:EB:3F:F6:15:AE
            X509v3 Authority Key Identifier: 
                keyid:FE:35:81:B6:F5:90:C2:B0:C2:03:C0:85:05:5D:1C:A1:EF:98:98:76

            X509v3 Subject Alternative Name: 
                DNS:vault.lab5.ca, IP Address:127.0.0.1
    Signature Algorithm: sha256WithRSAEncryption
         84:bb:9b:c6:92:d9:57:83:2e:dd:bb:bc:43:1e:f9:db:86:1e:
         ce:6a:7c:a5:ce:a0:d2:47:c9:33:f0:8a:4d:2c:b8:44:5d:23:
         5d:80:17:ac:a0:89:39:85:3b:d2:cb:b3:7f:94:ab:5f:35:59:
         b6:ac:34:5d:01:d6:f6:fd:c4:ee:3e:5e:42:ef:2a:30:34:1e:
         6f:82:fb:4b:67:e1:bc:cc:a1:71:90:03:40:5a:b7:ed:fb:10:
         c0:ec:fb:e3:39:82:b8:5f:d3:53:00:df:40:2f:a8:0b:6b:26:
         fe:8f:65:bf:27:31:96:03:e9:c0:47:23:08:c1:b6:44:47:79:
         21:70:48:17:f7:d7:51:58:b8:0f:d3:57:31:02:1d:a7:ff:ac:
         4c:11:3d:5c:39:c7:ab:db:b1:10:a1:a8:3d:82:90:84:08:a7:
         3d:97:4e:78:3f:4d:96:67:cc:ca:58:f8:26:2d:df:e2:86:47:
         9b:78:a3:e5:dd:a8:a9:c8:ef:b3:ac:e0:7b:e7:16:93:25:4a:
         fc:e9:b9:61:d7:44:90:ec:0e:a4:a0:64:c2:8f:d1:78:e0:e6:
         a0:e3:c1:4e:15:d1:fa:d4:75:b2:2a:72:4c:a1:89:a0:c6:01:
         de:35:4b:74:e3:b7:dc:1b:6d:07:4f:45:19:f7:b4:0e:84:59:
         7c:8f:a1:86
-----BEGIN CERTIFICATE-----
MIID/zCCAuegAwIBAgIBATANBgkqhkiG9w0BAQsFADBzMRIwEAYKCZImiZPyLGQB
GRYCY2ExFDASBgoJkiaJk/IsZAEZFgRsYWI1MRkwFwYDVQQKDBBMYWI1IERldk9w
cyBJbmMuMRQwEgYDVQQLDAt3d3cubGFiNS5jYTEWMBQGA1UEAwwNSXNzdWluZyBD
QSBHMTAeFw0yMjA1MjkxMzUyNDVaFw0yNDA1MjgxMzUyNDVaMHMxEjAQBgoJkiaJ
k/IsZAEZFgJjYTEUMBIGCgmSJomT8ixkARkWBGxhYjUxGTAXBgNVBAoMEExhYjUg
RGV2T3BzIEluYy4xFDASBgNVBAsMC3d3dy5sYWI1LmNhMRYwFAYDVQQDDA12YXVs
dC5sYWI1LmNhMIIBIjANBgkqhkiG9w0BAQEFAAOCAQ8AMIIBCgKCAQEAz6ES9LXF
CaO89oqmlciKNBs1/MpzI9gkz7rEvKwn9iTgY6R9IkNGnGEVOatqRrdPiDVSJGl0
CNKGr8OsgZWVh0246BbWkDlQWdMNOd6GsvW25BHCXIN5QDaqc99b5ndjR3P/Q2fe
iAeQfMJYEeLv15LbWOMO8N5TTZe2KaHpUYIPvM/8KGMP42HkaedG08G+k/ShzEJ7
dBpPCs/JkAuJl40AIblEBT0m0yXVZmC4uwb1BQhBG/0XXgy9A9SrCiVX2RrUpeaP
acCB6LGJRqJ56DvIUiJmJYzRJPS/br/P5thUU/j6mmrvZcvmeU0uQnlEXdkRTHnn
/L+HN2DMIMkGlQIDAQABo4GdMIGaMA4GA1UdDwEB/wQEAwIFoDAJBgNVHRMEAjAA
MB0GA1UdJQQWMBQGCCsGAQUFBwMBBggrBgEFBQcDAjAdBgNVHQ4EFgQUg02kDMEd
AIPY9JQd+lOJ6z/2Fa4wHwYDVR0jBBgwFoAU/jWBtvWQwrDCA8CFBV0coe+YmHYw
HgYDVR0RBBcwFYINdmF1bHQubGFiNS5jYYcEfwAAATANBgkqhkiG9w0BAQsFAAOC
AQEAhLubxpLZV4Mu3bu8Qx7524Yezmp8pc6g0kfJM/CKTSy4RF0jXYAXrKCJOYU7
0suzf5SrXzVZtqw0XQHW9v3E7j5eQu8qMDQeb4L7S2fhvMyhcZADQFq37fsQwOz7
4zmCuF/TUwDfQC+oC2sm/o9lvycxlgPpwEcjCMG2REd5IXBIF/fXUVi4D9NXMQId
p/+sTBE9XDnHq9uxEKGoPYKQhAinPZdOeD9NlmfMylj4Ji3f4oZHm3ij5d2oqcjv
s6zge+cWkyVK/Om5YddEkOwOpKBkwo/ReODmoOPBThXR+tR1sipyTKGJoMYB3jVL
dOO33BttB09FGfe0DoRZfI+hhg==
-----END CERTIFICATE-----
