-----BEGIN ENCRYPTED PRIVATE KEY-----
MIIFLTBXBgkqhkiG9w0BBQ0wSjApBgkqhkiG9w0BBQwwHAQINpxbNTMdH/4CAggA
MAwGCCqGSIb3DQIJBQAwHQYJYIZIAWUDBAECBBBxqqjpMJw6jgZYNM/EZb50BIIE
0KT7R7HvTQFhXAH5C4nCd4ThrU4im+B72X9DGQDGwFR25+bds+DNYViBWANBj86Z
k8gmua/Zh5mih1q91GufJb4rEh2FmVQqCQ7EE2Z73m9vFP+27CCDXxi4QPaZi2sk
H7ZU/TU1Hp7YvnrQn0Ewjy2XfjOwwyu7tmuU9hrfzV58lLLRpq2Pi7nXv1ymC4YX
2MWpkhsT743PvZzjm3gzijP1Jq92w8Ui0wHtI/V9qM57byHbcdIQkA7d+V4H/0bC
uQ+RmLs/UTldviXrVFf7CDXLuy7RYamhnozxmiSOmeipskP7xDPiEFTIO0SAd+iR
f0eWx0/anqwLdWq+u7GG58TOt+IJLU+Q0XuBs6hOuAZLr1C8siVvPgZ2a6ebWP8L
5FM3dLYmST05ILumRIZM8AFPVxY5UU/YbTcoXcF/tKtNVNOTkIRxAHgecdwQCvMx
RTgj6G36LhTweDMBLCKOrGcRgR1KzmLf5NQSve7LDw3U9r/1mYTMHbHgfzSdVgnK
rUfDRg/rRYb+C/vpBLtAkq3zUJQvhlFROBonRFj6Yn+jJpCOk+w7KCXrhiaGTAIo
TPQHLLauTeSpVBh8kA0RWXg8pnFWKCav45lm/jGzGEN/Y8zOHBA6g2CA0YtV7IWp
8uaD4oWuUF1+4ZPGX7NQCG4Sg9z4D4HF8A9aO6d0XOz/wOUQpu8uhMXuOLG5q1EG
Fm/0F7Yn5o4HG9gOo1ylzMbgL9BDe9+3GN22rUXcCxU7NBdWD8OTEYFRgg57doLl
pS5Nqx1jsbFbD4iCb/utZR3fU/pgiumv1yeXWPZHXSdGLbGHI3HamcmP16Q4vVr9
A1YO/kdrrW6HkkZhNmE5cKWFMJMWJqVojWGxzWWusLpZuOQN4tneId7xVqqFG/jc
B8F2VgTezsKB/oD0PE44iAtg1rLRBzRWNhpr6OwnSbzGk2msH6SXcq3QeeEMzyLZ
2Sc4hJ06uxoT2LEdbO2JSzaqxuvfnIxAE9ZSnfzxuNy4J7LtFUbISUoa/pVNnl2B
Bb0QHAfSsccfEWGvVMP2ZAuqia2kvhqSQ9EwbVur3pfcBKEd57JklvXnMWEooK4I
x5zlde0+ummaWww6yxA6/it1WQbQ0XpH4T66/GUlKCNioXewd6YrpKV+9Qg2cqmZ
cJqD+KcY7a5dZWw/EZkS3fHTVS5yiNMwY+7H3MgqCPy+2FWWyNxfYqMOED13belx
7L3yDLN2LxqGmikSwt6O+Mbm0fFgp0QKEfievRwlT8zQqW+N3oME/xCJ5T7UOISo
Hp56bKh8zj8h2gTywGwS8x0N1ORBi0cqxrLlvBM96pspwMXXdZnR5yIiF6xMYG8L
AGUp2yT9F0WduCwj6aY7ep6m8mAf9bAN4ukANXBnxEneyNd2W5mF+SF9I+deGl7d
d3xyON3+HPff1GEl9Gs17FmBb0uiMmlBOT1coPIgOBBQpEFbfD/rYjJA5kEOQajn
1uJri8zFkWO5waYOFWWy9S0S9MXx4yUS/Tk9nSTOzs74J63lH/HjI62chhSxg6pd
WrQaXJLhvjDGT85GEf2wfsAZxyBz+BxkRwfIjZiuTsNzuoNijMEjAxopO93xIHLn
OiPIQUHdVm9F9lt4L5wZ/XacdpyOeSMca9/23hrogJIv
-----END ENCRYPTED PRIVATE KEY-----
Certificate:
    Data:
        Version: 3 (0x2)
        Serial Number: 2 (0x2)
        Signature Algorithm: sha256WithRSAEncryption
        Issuer: DC=ca, DC=lab5, O=Lab5 DevOps Inc., OU=DevOps, CN=RootCA G1
        Validity
            Not Before: Apr 29 14:06:30 2022 GMT
            Not After : Apr 28 14:06:30 2024 GMT
        Subject: DC=ca, DC=lab5, O=Lab5 DevOps Inc., OU=DevOps, CN=vault.lab5.ca
        Subject Public Key Info:
            Public Key Algorithm: rsaEncryption
                RSA Public-Key: (2048 bit)
                Modulus:
                    00:bd:3e:83:f4:b2:eb:05:e7:7a:b9:c0:94:65:97:
                    b5:d7:6a:3d:60:49:95:93:36:d3:ad:46:a5:11:1d:
                    b8:62:8e:44:d7:fd:a8:24:7e:4a:16:9b:3e:67:9f:
                    e7:86:86:83:9d:64:94:66:67:1c:da:10:2d:ba:58:
                    a1:39:03:28:b7:7f:7a:82:8d:83:14:7c:21:89:0a:
                    a3:7d:42:88:f3:d7:38:19:23:89:a2:87:ad:21:30:
                    77:92:4d:13:26:43:5f:a8:7b:f8:9f:d8:4b:5e:be:
                    8e:0b:8e:90:90:5e:97:48:a1:84:e2:ba:0d:2e:a7:
                    2d:bd:c4:08:08:fa:63:b2:7d:4c:81:6c:05:8e:86:
                    0a:fc:38:4c:03:4a:a8:02:f8:2a:49:6f:12:e1:e4:
                    02:6b:a7:73:73:1f:7a:7f:cc:e6:c2:53:c1:82:5f:
                    fa:22:b1:35:de:99:16:be:83:4b:5f:0d:68:38:e6:
                    9d:f3:51:d2:b4:1b:7f:93:ef:29:aa:e5:8b:c4:fc:
                    51:fd:c9:e7:1a:9f:e0:ef:a8:d3:64:90:41:67:b6:
                    28:70:60:13:62:8b:2d:5e:18:3d:2d:3e:70:df:d3:
                    b0:1b:6e:11:2a:b8:d9:7e:7b:33:24:3c:a0:14:e7:
                    a6:02:dc:8a:92:cc:fe:a0:9a:e1:63:e9:a7:70:be:
                    9a:73
                Exponent: 65537 (0x10001)
        X509v3 extensions:
            X509v3 Key Usage: critical
                Digital Signature, Key Encipherment
            X509v3 Basic Constraints: 
                CA:FALSE
            X509v3 Extended Key Usage: 
                TLS Web Server Authentication, TLS Web Client Authentication
            X509v3 Subject Key Identifier: 
                B2:3D:A4:95:5C:5D:4C:2D:49:61:6F:EA:38:66:7D:BC:19:28:1A:F6
            X509v3 Authority Key Identifier: 
                keyid:FD:35:57:E4:42:E2:C1:BD:CF:56:5A:E1:61:50:55:87:68:7C:92:0E

            X509v3 Subject Alternative Name: 
                DNS:vault.lab5.ca, IP Address:10.0.0.2
    Signature Algorithm: sha256WithRSAEncryption
         38:58:ba:76:ad:e5:ec:ac:87:16:a3:5a:20:46:e9:21:49:81:
         48:0f:80:6c:41:ae:d9:81:74:66:b1:d7:b7:5e:73:93:37:f8:
         8c:6a:5c:6c:3c:1c:f2:00:80:d7:01:61:9e:5d:23:2b:3b:a3:
         45:1d:97:dc:64:50:1e:50:8f:d7:52:b4:80:2b:1f:20:d5:11:
         67:c5:0b:86:c0:19:84:34:a7:84:67:67:91:7f:36:db:22:a3:
         18:dc:6d:ba:6e:a3:30:22:0d:0b:6a:6b:8f:ad:9d:b4:ed:da:
         55:9b:02:98:8e:c2:9d:96:46:59:97:43:aa:bb:bb:7f:05:b0:
         26:f6:69:53:92:cb:6e:c3:fb:04:e8:5c:9e:46:51:06:26:4b:
         56:61:f1:c0:f5:da:3c:6e:c7:c0:44:72:48:0a:0e:f5:c0:65:
         f2:21:e5:76:02:15:4f:ae:f4:57:e5:42:95:c9:c5:3d:c7:cc:
         5f:d3:ad:e2:6c:9e:ff:e2:0b:f3:92:9a:51:0d:7e:8d:54:c0:
         96:8d:41:f2:a6:d1:15:9b:8b:bd:b4:93:7f:8d:6e:78:95:f2:
         2f:0f:3e:11:e1:b1:9c:79:0c:69:89:c7:4e:2c:f3:21:a1:73:
         52:01:79:d9:af:79:7b:48:ec:ec:a6:db:78:bd:53:7a:58:31:
         d3:7b:9d:02
-----BEGIN CERTIFICATE-----
MIID8TCCAtmgAwIBAgIBAjANBgkqhkiG9w0BAQsFADBqMRIwEAYKCZImiZPyLGQB
GRYCY2ExFDASBgoJkiaJk/IsZAEZFgRsYWI1MRkwFwYDVQQKDBBMYWI1IERldk9w
cyBJbmMuMQ8wDQYDVQQLDAZEZXZPcHMxEjAQBgNVBAMMCVJvb3RDQSBHMTAeFw0y
MjA0MjkxNDA2MzBaFw0yNDA0MjgxNDA2MzBaMG4xEjAQBgoJkiaJk/IsZAEZFgJj
YTEUMBIGCgmSJomT8ixkARkWBGxhYjUxGTAXBgNVBAoMEExhYjUgRGV2T3BzIElu
Yy4xDzANBgNVBAsMBkRldk9wczEWMBQGA1UEAwwNdmF1bHQubGFiNS5jYTCCASIw
DQYJKoZIhvcNAQEBBQADggEPADCCAQoCggEBAL0+g/Sy6wXnernAlGWXtddqPWBJ
lZM2061GpREduGKORNf9qCR+ShabPmef54aGg51klGZnHNoQLbpYoTkDKLd/eoKN
gxR8IYkKo31CiPPXOBkjiaKHrSEwd5JNEyZDX6h7+J/YS16+jguOkJBel0ihhOK6
DS6nLb3ECAj6Y7J9TIFsBY6GCvw4TANKqAL4KklvEuHkAmunc3Mfen/M5sJTwYJf
+iKxNd6ZFr6DS18NaDjmnfNR0rQbf5PvKarli8T8Uf3J5xqf4O+o02SQQWe2KHBg
E2KLLV4YPS0+cN/TsBtuESq42X57MyQ8oBTnpgLcipLM/qCa4WPpp3C+mnMCAwEA
AaOBnTCBmjAOBgNVHQ8BAf8EBAMCBaAwCQYDVR0TBAIwADAdBgNVHSUEFjAUBggr
BgEFBQcDAQYIKwYBBQUHAwIwHQYDVR0OBBYEFLI9pJVcXUwtSWFv6jhmfbwZKBr2
MB8GA1UdIwQYMBaAFP01V+RC4sG9z1Za4WFQVYdofJIOMB4GA1UdEQQXMBWCDXZh
dWx0LmxhYjUuY2GHBAoAAAIwDQYJKoZIhvcNAQELBQADggEBADhYunat5eyshxaj
WiBG6SFJgUgPgGxBrtmBdGax17dec5M3+IxqXGw8HPIAgNcBYZ5dIys7o0Udl9xk
UB5Qj9dStIArHyDVEWfFC4bAGYQ0p4RnZ5F/NtsioxjcbbpuozAiDQtqa4+tnbTt
2lWbApiOwp2WRlmXQ6q7u38FsCb2aVOSy27D+wToXJ5GUQYmS1Zh8cD12jxux8BE
ckgKDvXAZfIh5XYCFU+u9FflQpXJxT3HzF/TreJsnv/iC/OSmlENfo1UwJaNQfKm
0RWbi720k3+NbniV8i8PPhHhsZx5DGmJx04s8yGhc1IBedmveXtI7Oym23i9U3pY
MdN7nQI=
-----END CERTIFICATE-----
