Certificate:
    Data:
        Version: 3 (0x2)
        Serial Number: 1 (0x1)
        Signature Algorithm: sha256WithRSAEncryption
        Issuer: DC=ca, DC=lab5, O=Lab5 DevOps Inc., OU=www.lab5.ca, CN=Lab5 DevOps Inc. Issuing CA
        Validity
            Not Before: Dec  9 16:16:37 2022 GMT
            Not After : Dec  8 16:16:37 2024 GMT
        Subject: DC=ca, DC=lab5, O=Lab5 DevOps Inc., OU=www.lab5.ca, CN=www.lab5.ca
        Subject Public Key Info:
            Public Key Algorithm: rsaEncryption
                Public-Key: (2048 bit)
                Modulus:
                    00:bc:db:41:81:a0:32:41:22:af:70:4c:04:ef:5a:
                    8c:f8:21:12:2e:91:0e:41:6a:0b:02:c8:ca:53:2b:
                    8c:89:1c:b9:f0:1c:0a:35:17:cd:6b:fc:e2:59:ae:
                    37:bf:d4:55:a6:e6:99:f4:66:f5:2a:73:88:5d:7f:
                    b5:0e:25:b3:fc:2b:0d:8f:c1:cc:e4:63:d6:f7:40:
                    90:40:4b:f3:db:30:18:9f:3f:be:05:e7:a3:c8:a7:
                    bf:2f:e4:e3:7a:e3:5d:87:c0:4c:64:2d:37:fc:ff:
                    61:3d:cf:93:20:91:2b:3f:70:40:47:dd:5b:cb:74:
                    7b:3f:70:05:c0:7f:c5:e1:a0:07:d4:dd:3b:02:0a:
                    88:bc:04:d6:09:3e:41:4c:c7:04:68:0c:bc:c7:c4:
                    07:34:31:fa:a0:53:0a:dc:ba:bc:75:85:52:88:fb:
                    b7:7d:3e:a5:f4:3a:29:75:49:5e:a0:79:14:34:61:
                    65:fe:ec:f5:86:87:31:57:37:46:d8:ad:f1:cc:4e:
                    99:00:26:73:b5:3d:39:62:9d:6f:e2:b8:ab:99:ce:
                    17:1b:c5:eb:d9:4e:3e:77:7e:5a:2e:18:e2:4c:c0:
                    4d:cd:5f:f4:df:4f:56:83:aa:ee:5b:a2:55:b4:ba:
                    44:e5:e1:8c:a8:cc:67:90:59:66:1a:7e:0f:4a:ae:
                    64:39
                Exponent: 65537 (0x10001)
        X509v3 extensions:
            X509v3 Key Usage: critical
                Digital Signature, Key Encipherment
            X509v3 Basic Constraints: 
                CA:FALSE
            X509v3 Extended Key Usage: 
                TLS Web Server Authentication, TLS Web Client Authentication
            X509v3 Subject Key Identifier: 
                ED:69:41:19:FB:9E:E5:87:C6:57:41:A2:C7:68:34:04:76:3F:4F:2F
            X509v3 Authority Key Identifier: 
                72:8D:C3:15:FA:A1:A8:FD:14:5B:BB:5C:1A:05:FB:57:A6:2C:6D:74
            X509v3 Subject Alternative Name: 
                DNS:www.lab5.ca, DNS:log.lab5.ca, IP Address:10.99.99.100, IP Address:127.0.0.1
    Signature Algorithm: sha256WithRSAEncryption
    Signature Value:
        d3:fd:d0:a6:88:54:f7:ca:ed:3d:e1:8b:2f:0d:11:b9:4f:89:
        80:ad:fa:51:2c:cb:d8:c2:6d:15:29:84:41:80:14:39:58:97:
        e2:e4:d4:b5:b7:25:2d:ee:c0:c5:d8:4f:29:a6:d2:06:73:ba:
        26:51:7c:40:83:69:ca:28:79:bb:86:96:ac:e1:ce:be:96:b3:
        69:e0:cb:35:d0:2a:c8:da:87:81:ce:91:8a:a9:0a:9a:2b:54:
        ed:44:a5:4d:e8:2f:96:ec:2b:39:12:b4:05:eb:a6:b0:36:16:
        52:c0:e9:e3:e7:66:85:9b:53:d7:d4:a1:c0:06:e5:6f:79:8e:
        ff:e3:c1:94:f1:bb:a9:87:82:a9:76:b1:31:b5:95:42:df:83:
        08:cc:88:40:7d:a8:eb:95:d1:b4:30:af:81:a2:f9:a6:8d:28:
        e5:b3:51:db:b7:37:d3:d4:30:ac:0e:b8:49:4d:7f:12:3a:8c:
        6e:96:1a:42:c9:3c:df:dc:0b:df:55:75:67:59:e7:d9:1e:ed:
        dc:4f:7b:a4:f6:69:ba:34:40:bc:11:73:44:93:15:bd:3a:2d:
        e2:95:63:b4:be:62:1f:14:81:59:31:69:0d:a1:e3:b7:b6:b1:
        7c:4d:79:40:70:5a:42:17:ad:36:1a:3e:e1:df:67:63:39:3c:
        b4:49:58:57
-----BEGIN CERTIFICATE-----
MIIEHTCCAwWgAwIBAgIBATANBgkqhkiG9w0BAQsFADCBgTESMBAGCgmSJomT8ixk
ARkWAmNhMRQwEgYKCZImiZPyLGQBGRYEbGFiNTEZMBcGA1UECgwQTGFiNSBEZXZP
cHMgSW5jLjEUMBIGA1UECwwLd3d3LmxhYjUuY2ExJDAiBgNVBAMMG0xhYjUgRGV2
T3BzIEluYy4gSXNzdWluZyBDQTAeFw0yMjEyMDkxNjE2MzdaFw0yNDEyMDgxNjE2
MzdaMHExEjAQBgoJkiaJk/IsZAEZFgJjYTEUMBIGCgmSJomT8ixkARkWBGxhYjUx
GTAXBgNVBAoMEExhYjUgRGV2T3BzIEluYy4xFDASBgNVBAsMC3d3dy5sYWI1LmNh
MRQwEgYDVQQDDAt3d3cubGFiNS5jYTCCASIwDQYJKoZIhvcNAQEBBQADggEPADCC
AQoCggEBALzbQYGgMkEir3BMBO9ajPghEi6RDkFqCwLIylMrjIkcufAcCjUXzWv8
4lmuN7/UVabmmfRm9SpziF1/tQ4ls/wrDY/BzORj1vdAkEBL89swGJ8/vgXno8in
vy/k43rjXYfATGQtN/z/YT3PkyCRKz9wQEfdW8t0ez9wBcB/xeGgB9TdOwIKiLwE
1gk+QUzHBGgMvMfEBzQx+qBTCty6vHWFUoj7t30+pfQ6KXVJXqB5FDRhZf7s9YaH
MVc3Rtit8cxOmQAmc7U9OWKdb+K4q5nOFxvF69lOPnd+Wi4Y4kzATc1f9N9PVoOq
7luiVbS6ROXhjKjMZ5BZZhp+D0quZDkCAwEAAaOBrjCBqzAOBgNVHQ8BAf8EBAMC
BaAwCQYDVR0TBAIwADAdBgNVHSUEFjAUBggrBgEFBQcDAQYIKwYBBQUHAwIwHQYD
VR0OBBYEFO1pQRn7nuWHxldBosdoNAR2P08vMB8GA1UdIwQYMBaAFHKNwxX6oaj9
FFu7XBoF+1emLG10MC8GA1UdEQQoMCaCC3d3dy5sYWI1LmNhggtsb2cubGFiNS5j
YYcECmNjZIcEfwAAATANBgkqhkiG9w0BAQsFAAOCAQEA0/3QpohU98rtPeGLLw0R
uU+JgK36USzL2MJtFSmEQYAUOViX4uTUtbclLe7AxdhPKabSBnO6JlF8QINpyih5
u4aWrOHOvpazaeDLNdAqyNqHgc6RiqkKmitU7USlTegvluwrORK0BeumsDYWUsDp
4+dmhZtT19ShwAblb3mO/+PBlPG7qYeCqXaxMbWVQt+DCMyIQH2o65XRtDCvgaL5
po0o5bNR27c309QwrA64SU1/EjqMbpYaQsk839wL31V1Z1nn2R7t3E97pPZpujRA
vBFzRJMVvTot4pVjtL5iHxSBWTFpDaHjt7axfE15QHBaQhetNho+4d9nYzk8tElY
Vw==
-----END CERTIFICATE-----
