Certificate:
    Data:
        Version: 3 (0x2)
        Serial Number: 1 (0x1)
        Signature Algorithm: sha256WithRSAEncryption
        Issuer: DC=ca, DC=lab5, O=Lab5 DevOps Inc., OU=www.lab5.ca, CN=Lab5 DevOps Inc. Issuing CA
        Validity
            Not Before: Dec  5 01:03:45 2022 GMT
            Not After : Dec  4 01:03:45 2024 GMT
        Subject: DC=ca, DC=lab5, O=Lab5 DevOps Inc., OU=www.lab5.ca, CN=www.lab5.ca
        Subject Public Key Info:
            Public Key Algorithm: rsaEncryption
                Public-Key: (2048 bit)
                Modulus:
                    00:9b:2d:75:34:2b:47:aa:bc:e4:72:ed:bd:0c:d8:
                    f1:aa:14:f6:c3:0d:cd:30:c1:34:c0:20:26:1b:02:
                    a6:d8:c1:f1:c6:5e:92:02:c6:70:02:a6:f8:c8:c5:
                    39:ec:21:36:04:da:b5:a2:bb:19:c8:53:b7:64:b0:
                    c6:5b:08:84:38:e5:52:ec:d5:ca:a9:f6:db:d4:8d:
                    8f:75:06:f6:ef:50:0c:e3:5b:4e:68:89:17:5a:90:
                    a4:2b:67:ce:d0:36:0b:46:c6:0b:9a:e1:0e:17:a1:
                    8e:78:d4:8d:e2:be:86:df:61:1c:98:1f:85:e0:1e:
                    db:fc:7b:1c:80:16:c5:77:1b:94:99:0f:ec:fd:52:
                    c7:78:54:95:b1:32:76:91:53:39:8c:7a:cc:56:e9:
                    2e:e8:26:9c:f9:d6:e4:0f:35:9b:a2:c4:54:c4:75:
                    30:a8:2a:c6:33:c1:a0:17:ec:03:b3:1c:21:ff:55:
                    a2:d4:51:33:6c:fc:7b:5f:90:a8:0b:56:d3:7d:74:
                    7a:f0:ec:69:e3:e8:67:05:d6:df:5a:bf:73:79:a7:
                    43:c1:80:cc:1a:fe:25:21:88:df:a2:47:59:ff:6c:
                    f1:bc:d8:9d:3b:d0:b8:e1:9c:b0:d3:96:02:b5:da:
                    67:8c:36:9a:6e:55:af:6e:ae:42:77:f3:6f:6c:9e:
                    e9:55
                Exponent: 65537 (0x10001)
        X509v3 extensions:
            X509v3 Key Usage: critical
                Digital Signature, Key Encipherment
            X509v3 Basic Constraints: 
                CA:FALSE
            X509v3 Extended Key Usage: 
                TLS Web Server Authentication, TLS Web Client Authentication
            X509v3 Subject Key Identifier: 
                F8:5D:34:3E:0E:DF:4F:E4:7B:A0:B7:15:BE:24:5D:BD:B4:6D:C7:12
            X509v3 Authority Key Identifier: 
                89:61:37:79:3F:57:57:EA:FD:27:47:F7:26:19:9E:2A:6B:EB:71:2D
            X509v3 Subject Alternative Name: 
                DNS:www.lab5.ca, DNS:log.lab5.ca, IP Address:127.0.0.1, IP Address:10.99.99.100
    Signature Algorithm: sha256WithRSAEncryption
    Signature Value:
        00:48:1f:05:27:a6:f0:54:49:93:7e:5d:4e:5d:84:46:08:5a:
        79:48:13:d0:9a:20:bc:8d:de:7f:28:51:ad:67:bc:14:54:2b:
        f3:3c:bc:3c:ff:91:e1:07:c4:e9:7a:e8:3b:60:f9:60:14:00:
        fd:48:a7:a5:e0:55:d0:ce:23:9a:4b:62:8c:8c:a7:8f:89:1c:
        8f:ef:ac:06:45:4c:4a:e4:2c:ca:3f:40:23:6f:93:c0:12:cc:
        34:39:88:3c:6d:4e:8b:8d:4a:52:7e:7a:6f:9d:b0:cb:7d:5e:
        cb:ea:28:86:6f:a1:56:87:37:c6:55:6a:8a:ac:50:82:9d:d4:
        63:ab:0c:ea:94:d4:8a:3f:a4:94:37:b3:cc:c2:02:50:2e:07:
        e5:ca:30:8b:88:63:f1:35:e2:c7:57:01:e0:fb:30:83:43:2a:
        b1:c2:ce:53:c4:89:2f:f0:56:67:e6:48:d7:5e:fe:fd:36:2d:
        18:23:d5:4f:a2:bd:d5:8f:29:36:f4:5c:51:cf:3c:11:f9:0a:
        03:18:37:12:f9:d0:a5:54:96:f1:f3:98:51:88:4a:fa:61:6e:
        31:d8:e8:cd:e6:bf:60:77:5c:a5:a5:c8:86:78:b0:da:6a:57:
        4c:47:a2:da:03:d2:e1:b8:20:a2:10:21:17:a0:c0:68:74:a2:
        f7:1e:a1:fd
-----BEGIN CERTIFICATE-----
MIIEHTCCAwWgAwIBAgIBATANBgkqhkiG9w0BAQsFADCBgTESMBAGCgmSJomT8ixk
ARkWAmNhMRQwEgYKCZImiZPyLGQBGRYEbGFiNTEZMBcGA1UECgwQTGFiNSBEZXZP
cHMgSW5jLjEUMBIGA1UECwwLd3d3LmxhYjUuY2ExJDAiBgNVBAMMG0xhYjUgRGV2
T3BzIEluYy4gSXNzdWluZyBDQTAeFw0yMjEyMDUwMTAzNDVaFw0yNDEyMDQwMTAz
NDVaMHExEjAQBgoJkiaJk/IsZAEZFgJjYTEUMBIGCgmSJomT8ixkARkWBGxhYjUx
GTAXBgNVBAoMEExhYjUgRGV2T3BzIEluYy4xFDASBgNVBAsMC3d3dy5sYWI1LmNh
MRQwEgYDVQQDDAt3d3cubGFiNS5jYTCCASIwDQYJKoZIhvcNAQEBBQADggEPADCC
AQoCggEBAJstdTQrR6q85HLtvQzY8aoU9sMNzTDBNMAgJhsCptjB8cZekgLGcAKm
+MjFOewhNgTataK7GchTt2SwxlsIhDjlUuzVyqn229SNj3UG9u9QDONbTmiJF1qQ
pCtnztA2C0bGC5rhDhehjnjUjeK+ht9hHJgfheAe2/x7HIAWxXcblJkP7P1Sx3hU
lbEydpFTOYx6zFbpLugmnPnW5A81m6LEVMR1MKgqxjPBoBfsA7McIf9VotRRM2z8
e1+QqAtW0310evDsaePoZwXW31q/c3mnQ8GAzBr+JSGI36JHWf9s8bzYnTvQuOGc
sNOWArXaZ4w2mm5Vr26uQnfzb2ye6VUCAwEAAaOBrjCBqzAOBgNVHQ8BAf8EBAMC
BaAwCQYDVR0TBAIwADAdBgNVHSUEFjAUBggrBgEFBQcDAQYIKwYBBQUHAwIwHQYD
VR0OBBYEFPhdND4O30/ke6C3Fb4kXb20bccSMB8GA1UdIwQYMBaAFIlhN3k/V1fq
/SdH9yYZnipr63EtMC8GA1UdEQQoMCaCC3d3dy5sYWI1LmNhggtsb2cubGFiNS5j
YYcEfwAAAYcECmNjZDANBgkqhkiG9w0BAQsFAAOCAQEAAEgfBSem8FRJk35dTl2E
RghaeUgT0JogvI3efyhRrWe8FFQr8zy8PP+R4QfE6XroO2D5YBQA/UinpeBV0M4j
mktijIynj4kcj++sBkVMSuQsyj9AI2+TwBLMNDmIPG1Oi41KUn56b52wy31ey+oo
hm+hVoc3xlVqiqxQgp3UY6sM6pTUij+klDezzMICUC4H5cowi4hj8TXix1cB4Psw
g0MqscLOU8SJL/BWZ+ZI117+/TYtGCPVT6K91Y8pNvRcUc88EfkKAxg3EvnQpVSW
8fOYUYhK+mFuMdjozea/YHdcpaXIhniw2mpXTEei2gPS4bggohAhF6DAaHSi9x6h
/Q==
-----END CERTIFICATE-----
