Certificate:
    Data:
        Version: 3 (0x2)
        Serial Number: 1 (0x1)
        Signature Algorithm: sha256WithRSAEncryption
        Issuer: DC=ca, DC=lab5, O=Lab5 DevOps Inc., OU=www.lab5.ca, CN=Lab5 DevOps Inc. Issuing CA
        Validity
            Not Before: Oct  2 17:22:53 2022 GMT
            Not After : Oct  1 17:22:53 2024 GMT
        Subject: DC=ca, DC=lab5, O=Lab5 DevOps Inc., OU=www.lab5.ca, CN=www.lab5.ca
        Subject Public Key Info:
            Public Key Algorithm: rsaEncryption
                Public-Key: (2048 bit)
                Modulus:
                    00:94:86:4a:51:84:3b:69:ac:16:28:0e:54:2a:d7:
                    a6:50:60:f8:2f:66:0f:d4:3d:ec:3a:dc:f2:7f:48:
                    51:9c:00:8f:8c:40:c9:c9:db:bd:b5:5f:01:be:1d:
                    e9:2b:0b:94:27:db:7d:a6:10:c8:02:63:fa:18:25:
                    19:69:83:fc:fb:0a:d1:05:33:4c:c3:99:a8:41:a6:
                    19:d4:dc:c3:17:73:9c:05:45:3f:82:3e:fe:4e:ca:
                    c6:c3:ce:04:01:29:fb:75:56:8e:4b:bf:9c:df:a2:
                    9c:40:c8:84:07:75:56:b4:13:40:b9:4b:e4:24:06:
                    50:ea:2e:01:bf:ee:02:00:58:6b:b0:ab:d4:83:fe:
                    c1:6a:e0:0f:5c:eb:31:1e:41:4b:51:5d:84:24:eb:
                    c2:ae:d4:4c:99:60:28:83:83:69:ca:ed:7d:e8:7b:
                    7a:50:bc:fe:f5:54:78:86:ff:64:78:0b:cb:9b:30:
                    3d:5d:e2:81:9d:53:51:be:83:d2:26:c8:65:de:04:
                    ed:8b:92:45:59:72:87:f9:82:11:11:3d:41:85:89:
                    02:f9:40:93:d5:79:f9:24:dd:d8:cf:4d:f9:55:81:
                    b1:44:a6:34:1b:07:8e:7b:d3:31:2f:03:25:89:66:
                    f6:a1:28:fc:13:1d:43:1c:71:09:33:75:0f:ff:9d:
                    4e:83
                Exponent: 65537 (0x10001)
        X509v3 extensions:
            X509v3 Key Usage: critical
                Digital Signature, Key Encipherment
            X509v3 Basic Constraints: 
                CA:FALSE
            X509v3 Extended Key Usage: 
                TLS Web Server Authentication, TLS Web Client Authentication
            X509v3 Subject Key Identifier: 
                B8:A0:BA:78:BC:41:2F:D2:93:10:40:B2:B9:BB:BF:63:22:1E:B0:CA
            X509v3 Authority Key Identifier: 
                30:81:05:C9:07:09:3A:DB:F6:A0:B9:1B:C6:C5:8D:FC:D2:23:D2:B6
            X509v3 Subject Alternative Name: 
                DNS:www.lab5.ca, IP Address:127.0.0.1
    Signature Algorithm: sha256WithRSAEncryption
    Signature Value:
        72:cc:a7:46:1a:73:ef:78:c4:9e:98:93:a3:e9:cb:71:10:65:
        13:aa:02:e6:a7:88:c5:79:d7:8f:4e:d2:c6:04:f8:de:6f:2a:
        5b:ee:b0:4b:d8:e0:58:28:6f:27:14:07:e9:bf:28:04:c0:62:
        a8:e8:ef:32:67:b2:80:43:e1:b2:d4:78:58:ca:3f:89:7c:ce:
        a2:3a:97:e6:7c:12:51:9c:19:09:1a:af:9c:8d:90:02:ff:a1:
        74:6a:a5:a1:ac:b5:ff:4e:0c:ac:8e:bc:38:86:65:d0:1b:70:
        07:42:09:00:6b:ab:5f:ec:bc:38:5d:e8:ba:23:65:09:74:18:
        b6:bd:bd:91:ae:01:2a:e0:25:e8:67:c7:ba:11:a3:61:3d:cf:
        14:9b:9e:9c:76:71:21:7f:8e:6e:bb:39:9c:2c:55:af:7c:cc:
        e4:48:75:6b:d6:08:6c:a2:1a:81:21:14:b9:e1:c8:5c:cc:c8:
        62:cb:7c:70:a3:23:78:55:ed:1e:5d:7c:5e:97:90:e9:9f:aa:
        e3:df:34:1e:47:d9:e0:a1:73:eb:c2:ce:3f:dd:02:af:1f:c9:
        b0:2d:61:af:c8:fe:09:52:ed:b4:0d:6c:bf:e2:d9:28:fa:4f:
        a9:4e:8f:10:57:43:51:c4:91:57:ae:af:82:ba:f9:9a:8a:27:
        71:18:3c:b3
-----BEGIN CERTIFICATE-----
MIIECjCCAvKgAwIBAgIBATANBgkqhkiG9w0BAQsFADCBgTESMBAGCgmSJomT8ixk
ARkWAmNhMRQwEgYKCZImiZPyLGQBGRYEbGFiNTEZMBcGA1UECgwQTGFiNSBEZXZP
cHMgSW5jLjEUMBIGA1UECwwLd3d3LmxhYjUuY2ExJDAiBgNVBAMMG0xhYjUgRGV2
T3BzIEluYy4gSXNzdWluZyBDQTAeFw0yMjEwMDIxNzIyNTNaFw0yNDEwMDExNzIy
NTNaMHExEjAQBgoJkiaJk/IsZAEZFgJjYTEUMBIGCgmSJomT8ixkARkWBGxhYjUx
GTAXBgNVBAoMEExhYjUgRGV2T3BzIEluYy4xFDASBgNVBAsMC3d3dy5sYWI1LmNh
MRQwEgYDVQQDDAt3d3cubGFiNS5jYTCCASIwDQYJKoZIhvcNAQEBBQADggEPADCC
AQoCggEBAJSGSlGEO2msFigOVCrXplBg+C9mD9Q97Drc8n9IUZwAj4xAycnbvbVf
Ab4d6SsLlCfbfaYQyAJj+hglGWmD/PsK0QUzTMOZqEGmGdTcwxdznAVFP4I+/k7K
xsPOBAEp+3VWjku/nN+inEDIhAd1VrQTQLlL5CQGUOouAb/uAgBYa7Cr1IP+wWrg
D1zrMR5BS1FdhCTrwq7UTJlgKIODacrtfeh7elC8/vVUeIb/ZHgLy5swPV3igZ1T
Ub6D0ibIZd4E7YuSRVlyh/mCERE9QYWJAvlAk9V5+STd2M9N+VWBsUSmNBsHjnvT
MS8DJYlm9qEo/BMdQxxxCTN1D/+dToMCAwEAAaOBmzCBmDAOBgNVHQ8BAf8EBAMC
BaAwCQYDVR0TBAIwADAdBgNVHSUEFjAUBggrBgEFBQcDAQYIKwYBBQUHAwIwHQYD
VR0OBBYEFLiguni8QS/SkxBAsrm7v2MiHrDKMB8GA1UdIwQYMBaAFDCBBckHCTrb
9qC5G8bFjfzSI9K2MBwGA1UdEQQVMBOCC3d3dy5sYWI1LmNhhwR/AAABMA0GCSqG
SIb3DQEBCwUAA4IBAQByzKdGGnPveMSemJOj6ctxEGUTqgLmp4jFedePTtLGBPje
bypb7rBL2OBYKG8nFAfpvygEwGKo6O8yZ7KAQ+Gy1HhYyj+JfM6iOpfmfBJRnBkJ
Gq+cjZAC/6F0aqWhrLX/Tgysjrw4hmXQG3AHQgkAa6tf7Lw4Xei6I2UJdBi2vb2R
rgEq4CXoZ8e6EaNhPc8Um56cdnEhf45uuzmcLFWvfMzkSHVr1ghsohqBIRS54chc
zMhiy3xwoyN4Ve0eXXxel5Dpn6rj3zQeR9ngoXPrws4/3QKvH8mwLWGvyP4JUu20
DWy/4tko+k+pTo8QV0NRxJFXrq+CuvmaiidxGDyz
-----END CERTIFICATE-----
