Certificate:
    Data:
        Version: 3 (0x2)
        Serial Number: 1 (0x1)
        Signature Algorithm: sha256WithRSAEncryption
        Issuer: DC=ca, DC=lab5, O=Lab5 DevOps Inc., OU=www.lab5.ca, CN=Lab5 DevOps Inc. Issuing CA
        Validity
            Not Before: Sep  6 19:25:35 2022 GMT
            Not After : Sep  5 19:25:35 2024 GMT
        Subject: DC=ca, DC=lab5, O=Lab5 DevOps Inc., OU=www.lab5.ca, CN=www.lab5.ca
        Subject Public Key Info:
            Public Key Algorithm: rsaEncryption
                RSA Public-Key: (2048 bit)
                Modulus:
                    00:af:dc:82:d3:a3:da:d5:e1:bb:2b:f5:69:45:60:
                    39:d2:63:26:33:8f:9f:d1:50:3a:e1:94:2a:53:92:
                    8f:33:c7:45:be:02:19:0f:64:b1:d1:33:36:a0:ee:
                    d6:48:05:15:a7:05:f5:46:ca:46:98:4b:3f:9b:5d:
                    1d:8a:fc:a9:02:87:da:3d:26:3b:ba:49:3c:37:13:
                    be:e2:ac:49:04:e5:88:6c:db:f3:ad:bd:80:18:3c:
                    8b:71:ff:fb:f4:ec:e5:fc:cf:01:04:90:de:0d:66:
                    1b:7a:ec:c7:55:3a:51:1f:76:cd:5e:a5:e3:be:87:
                    2e:b8:ae:39:00:19:0b:28:84:f6:3b:9c:f5:43:60:
                    76:be:71:88:aa:90:ea:e0:f0:42:48:ad:93:bd:19:
                    bd:52:b6:a5:64:7d:8e:64:a2:56:43:06:6f:4a:7b:
                    3e:bb:33:55:e3:8a:5e:07:03:a4:a2:d7:ce:c8:18:
                    a9:25:bc:25:41:41:b8:a9:ef:76:e4:5b:10:16:41:
                    65:9b:d1:fc:d1:43:1d:e1:f7:44:2a:86:42:18:b0:
                    f4:9c:f2:c0:4c:7b:36:07:4b:33:52:82:58:7a:f1:
                    15:cf:9a:d5:07:d2:90:50:da:e9:3e:47:5d:35:84:
                    ef:f0:b4:86:3e:3b:1f:1a:7d:ed:06:8d:ff:80:9d:
                    e5:5f
                Exponent: 65537 (0x10001)
        X509v3 extensions:
            X509v3 Key Usage: critical
                Digital Signature, Key Encipherment
            X509v3 Basic Constraints: 
                CA:FALSE
            X509v3 Extended Key Usage: 
                TLS Web Server Authentication, TLS Web Client Authentication
            X509v3 Subject Key Identifier: 
                F2:86:DC:E2:CE:48:E3:56:C1:00:E8:32:07:99:15:3D:F7:79:62:BE
            X509v3 Authority Key Identifier: 
                keyid:B7:E8:B7:33:43:2B:8D:AB:CB:4D:77:3B:42:E0:2F:F5:22:7C:BB:14

            X509v3 Subject Alternative Name: 
                DNS:www.lab5.ca, IP Address:127.0.0.1
    Signature Algorithm: sha256WithRSAEncryption
         ae:1b:25:dd:f8:f4:05:35:1f:a6:1b:eb:b4:b3:80:58:57:2d:
         26:f8:47:62:ca:44:fb:97:a9:63:c7:b6:fa:5a:64:6d:1a:91:
         92:a1:dc:67:63:78:c4:39:f8:d3:75:1c:15:c1:f3:63:ad:05:
         52:59:1e:85:3a:ec:8c:93:78:a4:2a:c2:c4:40:47:12:3c:05:
         d4:da:60:46:20:98:cf:4c:9e:16:ec:4c:3f:7e:79:f9:94:56:
         4e:4a:21:63:1c:37:5b:c5:62:18:2a:22:d2:ef:0f:37:5f:f5:
         b1:92:67:28:c2:6d:3f:73:21:89:fe:70:76:9a:73:9c:88:a9:
         25:00:e7:8f:fa:f0:d3:e7:ad:e7:6c:64:0e:97:b1:6c:00:78:
         ec:85:94:6d:2e:c7:f2:4f:65:9c:cb:26:1a:ca:bc:be:1a:92:
         b9:2a:e9:2d:ee:f3:2a:e6:9a:25:48:3c:54:68:0b:78:ce:dc:
         73:a1:99:9e:ad:d3:1f:fe:89:9c:21:4c:01:64:1a:0f:67:9f:
         32:29:ec:5d:78:bd:dc:34:78:c6:aa:72:07:de:c6:a5:53:f1:
         13:9b:d9:aa:de:6a:9e:2b:d0:cb:5d:cb:a9:f1:1b:07:86:a6:
         f3:d9:79:d0:01:50:d0:83:4f:2e:00:50:9c:eb:84:cd:6a:f0:
         e0:b6:74:84
-----BEGIN CERTIFICATE-----
MIIECjCCAvKgAwIBAgIBATANBgkqhkiG9w0BAQsFADCBgTESMBAGCgmSJomT8ixk
ARkWAmNhMRQwEgYKCZImiZPyLGQBGRYEbGFiNTEZMBcGA1UECgwQTGFiNSBEZXZP
cHMgSW5jLjEUMBIGA1UECwwLd3d3LmxhYjUuY2ExJDAiBgNVBAMMG0xhYjUgRGV2
T3BzIEluYy4gSXNzdWluZyBDQTAeFw0yMjA5MDYxOTI1MzVaFw0yNDA5MDUxOTI1
MzVaMHExEjAQBgoJkiaJk/IsZAEZFgJjYTEUMBIGCgmSJomT8ixkARkWBGxhYjUx
GTAXBgNVBAoMEExhYjUgRGV2T3BzIEluYy4xFDASBgNVBAsMC3d3dy5sYWI1LmNh
MRQwEgYDVQQDDAt3d3cubGFiNS5jYTCCASIwDQYJKoZIhvcNAQEBBQADggEPADCC
AQoCggEBAK/cgtOj2tXhuyv1aUVgOdJjJjOPn9FQOuGUKlOSjzPHRb4CGQ9ksdEz
NqDu1kgFFacF9UbKRphLP5tdHYr8qQKH2j0mO7pJPDcTvuKsSQTliGzb8629gBg8
i3H/+/Ts5fzPAQSQ3g1mG3rsx1U6UR92zV6l476HLriuOQAZCyiE9juc9UNgdr5x
iKqQ6uDwQkitk70ZvVK2pWR9jmSiVkMGb0p7PrszVeOKXgcDpKLXzsgYqSW8JUFB
uKnvduRbEBZBZZvR/NFDHeH3RCqGQhiw9JzywEx7NgdLM1KCWHrxFc+a1QfSkFDa
6T5HXTWE7/C0hj47Hxp97QaN/4Cd5V8CAwEAAaOBmzCBmDAOBgNVHQ8BAf8EBAMC
BaAwCQYDVR0TBAIwADAdBgNVHSUEFjAUBggrBgEFBQcDAQYIKwYBBQUHAwIwHQYD
VR0OBBYEFPKG3OLOSONWwQDoMgeZFT33eWK+MB8GA1UdIwQYMBaAFLfotzNDK42r
y013O0LgL/UifLsUMBwGA1UdEQQVMBOCC3d3dy5sYWI1LmNhhwR/AAABMA0GCSqG
SIb3DQEBCwUAA4IBAQCuGyXd+PQFNR+mG+u0s4BYVy0m+EdiykT7l6ljx7b6WmRt
GpGSodxnY3jEOfjTdRwVwfNjrQVSWR6FOuyMk3ikKsLEQEcSPAXU2mBGIJjPTJ4W
7Ew/fnn5lFZOSiFjHDdbxWIYKiLS7w83X/Wxkmcowm0/cyGJ/nB2mnOciKklAOeP
+vDT563nbGQOl7FsAHjshZRtLsfyT2WcyyYayry+GpK5Kukt7vMq5polSDxUaAt4
ztxzoZmerdMf/omcIUwBZBoPZ58yKexdeL3cNHjGqnIH3salU/ETm9mq3mqeK9DL
Xcup8RsHhqbz2XnQAVDQg08uAFCc64TNavDgtnSE
-----END CERTIFICATE-----
