Certificate:
    Data:
        Version: 3 (0x2)
        Serial Number: 1 (0x1)
        Signature Algorithm: ED25519
        Issuer: DC=ca, DC=lab5, O=Lab5 DevOps Inc., OU=www.lab5.ca, CN=Lab5 DevOps Inc. Root CA
        Validity
            Not Before: Mar  2 00:59:32 2024 GMT
            Not After : Mar  2 00:59:32 2034 GMT
        Subject: DC=ca, DC=lab5, O=Lab5 DevOps Inc., OU=www.lab5.ca, CN=Lab5 DevOps Inc. Root CA
        Subject Public Key Info:
            Public Key Algorithm: ED25519
                ED25519 Public-Key:
                pub:
                    b1:ec:5e:e7:6f:eb:c8:33:f9:61:e0:f9:a6:ab:cb:
                    09:08:fa:9f:eb:6f:16:65:ff:99:d3:45:5f:3d:3a:
                    05:d1
        X509v3 extensions:
            X509v3 Key Usage: critical
                Certificate Sign, CRL Sign
            X509v3 Basic Constraints: critical
                CA:TRUE
            X509v3 Subject Key Identifier: 
                E9:3F:18:7C:3A:C4:C5:0F:D7:C1:B6:42:47:6A:8B:AA:63:81:E1:EE
            X509v3 Authority Key Identifier: 
                E9:3F:18:7C:3A:C4:C5:0F:D7:C1:B6:42:47:6A:8B:AA:63:81:E1:EE
    Signature Algorithm: ED25519
    Signature Value:
        e0:d8:69:f0:f5:a9:35:6c:5f:92:df:79:a5:f8:54:a5:b8:6e:
        ab:a2:9e:ed:1c:80:e1:af:92:76:05:0f:48:39:ac:bd:f2:33:
        06:46:c4:9a:66:01:ff:bd:24:ce:28:3e:16:5d:31:58:cb:e8:
        03:10:9d:d0:ba:ba:8e:78:a1:0d
-----BEGIN CERTIFICATE-----
MIICDjCCAcCgAwIBAgIBATAFBgMrZXAwfjESMBAGCgmSJomT8ixkARkWAmNhMRQw
EgYKCZImiZPyLGQBGRYEbGFiNTEZMBcGA1UECgwQTGFiNSBEZXZPcHMgSW5jLjEU
MBIGA1UECwwLd3d3LmxhYjUuY2ExITAfBgNVBAMMGExhYjUgRGV2T3BzIEluYy4g
Um9vdCBDQTAeFw0yNDAzMDIwMDU5MzJaFw0zNDAzMDIwMDU5MzJaMH4xEjAQBgoJ
kiaJk/IsZAEZFgJjYTEUMBIGCgmSJomT8ixkARkWBGxhYjUxGTAXBgNVBAoMEExh
YjUgRGV2T3BzIEluYy4xFDASBgNVBAsMC3d3dy5sYWI1LmNhMSEwHwYDVQQDDBhM
YWI1IERldk9wcyBJbmMuIFJvb3QgQ0EwKjAFBgMrZXADIQCx7F7nb+vIM/lh4Pmm
q8sJCPqf628WZf+Z00VfPToF0aNjMGEwDgYDVR0PAQH/BAQDAgEGMA8GA1UdEwEB
/wQFMAMBAf8wHQYDVR0OBBYEFOk/GHw6xMUP18G2Qkdqi6pjgeHuMB8GA1UdIwQY
MBaAFOk/GHw6xMUP18G2Qkdqi6pjgeHuMAUGAytlcANBAODYafD1qTVsX5LfeaX4
VKW4bquinu0cgOGvknYFD0g5rL3yMwZGxJpmAf+9JM4oPhZdMVjL6AMQndC6uo54
oQ0=
-----END CERTIFICATE-----
