Certificate:
    Data:
        Version: 3 (0x2)
        Serial Number: 1 (0x1)
        Signature Algorithm: ED25519
        Issuer: DC=ca, DC=lab5, O=Lab5 DevOps Inc., OU=www.lab5.ca, CN=Lab5 DevOps Inc. Root CA
        Validity
            Not Before: Mar  1 15:51:04 2024 GMT
            Not After : Mar  1 15:51:04 2034 GMT
        Subject: DC=ca, DC=lab5, O=Lab5 DevOps Inc., OU=www.lab5.ca, CN=Lab5 DevOps Inc. Root CA
        Subject Public Key Info:
            Public Key Algorithm: ED25519
                ED25519 Public-Key:
                pub:
                    9a:9a:e7:4f:ec:66:1e:35:5b:90:4e:e4:50:57:77:
                    65:0a:e9:15:d8:4a:37:99:dd:4c:63:bf:01:eb:fb:
                    fb:89
        X509v3 extensions:
            X509v3 Key Usage: critical
                Certificate Sign, CRL Sign
            X509v3 Basic Constraints: critical
                CA:TRUE
            X509v3 Subject Key Identifier: 
                D4:E8:0F:2D:68:F4:70:41:14:20:1B:73:3D:40:BA:B8:6D:A9:37:BF
            X509v3 Authority Key Identifier: 
                D4:E8:0F:2D:68:F4:70:41:14:20:1B:73:3D:40:BA:B8:6D:A9:37:BF
    Signature Algorithm: ED25519
    Signature Value:
        16:34:bf:72:ad:c6:b8:2b:ba:4a:2c:4a:26:67:b6:75:b1:b5:
        5f:7b:bc:19:e9:fb:05:aa:56:46:b4:b8:64:69:ff:97:01:f8:
        45:14:6f:43:9a:1d:8e:73:b1:57:62:a1:12:f7:cb:f1:76:7f:
        a6:9b:6d:f9:c9:16:8c:66:cc:0f
-----BEGIN CERTIFICATE-----
MIICDjCCAcCgAwIBAgIBATAFBgMrZXAwfjESMBAGCgmSJomT8ixkARkWAmNhMRQw
EgYKCZImiZPyLGQBGRYEbGFiNTEZMBcGA1UECgwQTGFiNSBEZXZPcHMgSW5jLjEU
MBIGA1UECwwLd3d3LmxhYjUuY2ExITAfBgNVBAMMGExhYjUgRGV2T3BzIEluYy4g
Um9vdCBDQTAeFw0yNDAzMDExNTUxMDRaFw0zNDAzMDExNTUxMDRaMH4xEjAQBgoJ
kiaJk/IsZAEZFgJjYTEUMBIGCgmSJomT8ixkARkWBGxhYjUxGTAXBgNVBAoMEExh
YjUgRGV2T3BzIEluYy4xFDASBgNVBAsMC3d3dy5sYWI1LmNhMSEwHwYDVQQDDBhM
YWI1IERldk9wcyBJbmMuIFJvb3QgQ0EwKjAFBgMrZXADIQCamudP7GYeNVuQTuRQ
V3dlCukV2Eo3md1MY78B6/v7iaNjMGEwDgYDVR0PAQH/BAQDAgEGMA8GA1UdEwEB
/wQFMAMBAf8wHQYDVR0OBBYEFNToDy1o9HBBFCAbcz1AurhtqTe/MB8GA1UdIwQY
MBaAFNToDy1o9HBBFCAbcz1AurhtqTe/MAUGAytlcANBABY0v3KtxrgrukosSiZn
tnWxtV97vBnp+wWqVka0uGRp/5cB+EUUb0OaHY5zsVdioRL3y/F2f6abbfnJFoxm
zA8=
-----END CERTIFICATE-----
