Certificate:
    Data:
        Version: 3 (0x2)
        Serial Number: 1 (0x1)
        Signature Algorithm: ED25519
        Issuer: DC=ca, DC=lab5, O=Lab5 DevOps Inc., OU=www.lab5.ca, CN=Lab5 DevOps Inc. Root CA
        Validity
            Not Before: Mar  1 15:14:27 2024 GMT
            Not After : Mar  1 15:14:27 2034 GMT
        Subject: DC=ca, DC=lab5, O=Lab5 DevOps Inc., OU=www.lab5.ca, CN=Lab5 DevOps Inc. Root CA
        Subject Public Key Info:
            Public Key Algorithm: ED25519
                ED25519 Public-Key:
                pub:
                    24:e6:83:77:a7:f8:91:b5:88:7d:45:a4:7d:7c:0e:
                    70:96:b1:0e:d4:0d:46:aa:86:40:11:7b:15:62:31:
                    9b:39
        X509v3 extensions:
            X509v3 Key Usage: critical
                Certificate Sign, CRL Sign
            X509v3 Basic Constraints: critical
                CA:TRUE
            X509v3 Subject Key Identifier: 
                B0:A4:C4:F2:41:B6:9E:05:92:74:68:8E:62:BA:5D:F3:99:A4:9F:FB
            X509v3 Authority Key Identifier: 
                B0:A4:C4:F2:41:B6:9E:05:92:74:68:8E:62:BA:5D:F3:99:A4:9F:FB
    Signature Algorithm: ED25519
    Signature Value:
        f7:c8:ea:2c:37:aa:11:1b:1d:08:8e:15:53:4e:37:34:b0:7d:
        96:fe:94:45:5c:f0:a0:23:00:a1:fc:b5:3d:4e:4d:9e:49:a6:
        74:fe:3b:25:23:78:ac:1c:e2:42:8f:77:98:5f:e7:02:3e:fb:
        90:1f:1e:4f:c2:cd:94:7e:08:09
-----BEGIN CERTIFICATE-----
MIICDjCCAcCgAwIBAgIBATAFBgMrZXAwfjESMBAGCgmSJomT8ixkARkWAmNhMRQw
EgYKCZImiZPyLGQBGRYEbGFiNTEZMBcGA1UECgwQTGFiNSBEZXZPcHMgSW5jLjEU
MBIGA1UECwwLd3d3LmxhYjUuY2ExITAfBgNVBAMMGExhYjUgRGV2T3BzIEluYy4g
Um9vdCBDQTAeFw0yNDAzMDExNTE0MjdaFw0zNDAzMDExNTE0MjdaMH4xEjAQBgoJ
kiaJk/IsZAEZFgJjYTEUMBIGCgmSJomT8ixkARkWBGxhYjUxGTAXBgNVBAoMEExh
YjUgRGV2T3BzIEluYy4xFDASBgNVBAsMC3d3dy5sYWI1LmNhMSEwHwYDVQQDDBhM
YWI1IERldk9wcyBJbmMuIFJvb3QgQ0EwKjAFBgMrZXADIQAk5oN3p/iRtYh9RaR9
fA5wlrEO1A1GqoZAEXsVYjGbOaNjMGEwDgYDVR0PAQH/BAQDAgEGMA8GA1UdEwEB
/wQFMAMBAf8wHQYDVR0OBBYEFLCkxPJBtp4FknRojmK6XfOZpJ/7MB8GA1UdIwQY
MBaAFLCkxPJBtp4FknRojmK6XfOZpJ/7MAUGAytlcANBAPfI6iw3qhEbHQiOFVNO
NzSwfZb+lEVc8KAjAKH8tT1OTZ5JpnT+OyUjeKwc4kKPd5hf5wI++5AfHk/CzZR+
CAk=
-----END CERTIFICATE-----
