Certificate:
    Data:
        Version: 3 (0x2)
        Serial Number: 1 (0x1)
        Signature Algorithm: ED25519
        Issuer: DC=ca, DC=lab5, O=Lab5 DevOps Inc., OU=www.lab5.ca, CN=Lab5 DevOps Inc. Root CA
        Validity
            Not Before: Mar  1 15:18:00 2024 GMT
            Not After : Mar  1 15:18:00 2034 GMT
        Subject: DC=ca, DC=lab5, O=Lab5 DevOps Inc., OU=www.lab5.ca, CN=Lab5 DevOps Inc. Root CA
        Subject Public Key Info:
            Public Key Algorithm: ED25519
                ED25519 Public-Key:
                pub:
                    94:c8:e4:54:b5:f7:61:72:92:70:26:e2:02:16:2f:
                    c6:26:7b:0e:38:9c:c8:06:d7:d4:ed:03:dc:89:16:
                    34:4b
        X509v3 extensions:
            X509v3 Key Usage: critical
                Certificate Sign, CRL Sign
            X509v3 Basic Constraints: critical
                CA:TRUE
            X509v3 Subject Key Identifier: 
                AF:D8:C8:5F:02:F1:07:12:11:32:5B:FD:31:9C:10:06:08:16:18:6C
            X509v3 Authority Key Identifier: 
                AF:D8:C8:5F:02:F1:07:12:11:32:5B:FD:31:9C:10:06:08:16:18:6C
    Signature Algorithm: ED25519
    Signature Value:
        e4:d2:6b:7a:c1:96:75:0d:3d:57:84:eb:9f:ca:c8:db:2f:05:
        74:cc:0d:e1:ce:42:b4:57:b7:e8:4f:a7:ed:7d:ee:7b:1c:57:
        bb:81:54:4f:0e:5f:97:9d:f7:81:45:4d:87:68:c2:03:7c:69:
        ab:38:32:d1:84:2c:6c:e3:0a:0f
-----BEGIN CERTIFICATE-----
MIICDjCCAcCgAwIBAgIBATAFBgMrZXAwfjESMBAGCgmSJomT8ixkARkWAmNhMRQw
EgYKCZImiZPyLGQBGRYEbGFiNTEZMBcGA1UECgwQTGFiNSBEZXZPcHMgSW5jLjEU
MBIGA1UECwwLd3d3LmxhYjUuY2ExITAfBgNVBAMMGExhYjUgRGV2T3BzIEluYy4g
Um9vdCBDQTAeFw0yNDAzMDExNTE4MDBaFw0zNDAzMDExNTE4MDBaMH4xEjAQBgoJ
kiaJk/IsZAEZFgJjYTEUMBIGCgmSJomT8ixkARkWBGxhYjUxGTAXBgNVBAoMEExh
YjUgRGV2T3BzIEluYy4xFDASBgNVBAsMC3d3dy5sYWI1LmNhMSEwHwYDVQQDDBhM
YWI1IERldk9wcyBJbmMuIFJvb3QgQ0EwKjAFBgMrZXADIQCUyORUtfdhcpJwJuIC
Fi/GJnsOOJzIBtfU7QPciRY0S6NjMGEwDgYDVR0PAQH/BAQDAgEGMA8GA1UdEwEB
/wQFMAMBAf8wHQYDVR0OBBYEFK/YyF8C8QcSETJb/TGcEAYIFhhsMB8GA1UdIwQY
MBaAFK/YyF8C8QcSETJb/TGcEAYIFhhsMAUGAytlcANBAOTSa3rBlnUNPVeE65/K
yNsvBXTMDeHOQrRXt+hPp+197nscV7uBVE8OX5ed94FFTYdowgN8aas4MtGELGzj
Cg8=
-----END CERTIFICATE-----
