Certificate:
    Data:
        Version: 3 (0x2)
        Serial Number: 1 (0x1)
        Signature Algorithm: ED25519
        Issuer: DC=ca, DC=lab5, O=Lab5 DevOps Inc., OU=www.lab5.ca, CN=Lab5 DevOps Inc. Root CA
        Validity
            Not Before: Mar  1 21:56:23 2024 GMT
            Not After : Mar  1 21:56:23 2034 GMT
        Subject: DC=ca, DC=lab5, O=Lab5 DevOps Inc., OU=www.lab5.ca, CN=Lab5 DevOps Inc. Root CA
        Subject Public Key Info:
            Public Key Algorithm: ED25519
                ED25519 Public-Key:
                pub:
                    39:9d:43:9b:55:d5:fc:f5:44:55:92:9a:87:79:50:
                    d2:a1:f8:d9:6d:d1:02:f9:b1:36:2d:cb:0e:df:f8:
                    2c:2d
        X509v3 extensions:
            X509v3 Key Usage: critical
                Certificate Sign, CRL Sign
            X509v3 Basic Constraints: critical
                CA:TRUE
            X509v3 Subject Key Identifier: 
                FA:6F:34:34:B9:C6:29:A0:92:F6:B4:4B:FD:D2:63:16:AB:1F:81:0C
            X509v3 Authority Key Identifier: 
                FA:6F:34:34:B9:C6:29:A0:92:F6:B4:4B:FD:D2:63:16:AB:1F:81:0C
    Signature Algorithm: ED25519
    Signature Value:
        cf:a2:68:28:a5:51:d9:0e:06:43:4a:39:27:7d:fd:ca:75:4e:
        b3:40:a2:41:1b:e3:2c:7f:9d:55:64:af:a8:b4:d9:de:71:b9:
        0d:39:90:83:31:92:03:fa:6f:0f:2e:dd:0a:b2:80:53:2d:f1:
        64:17:d2:85:cc:ea:1d:18:4e:02
-----BEGIN CERTIFICATE-----
MIICDjCCAcCgAwIBAgIBATAFBgMrZXAwfjESMBAGCgmSJomT8ixkARkWAmNhMRQw
EgYKCZImiZPyLGQBGRYEbGFiNTEZMBcGA1UECgwQTGFiNSBEZXZPcHMgSW5jLjEU
MBIGA1UECwwLd3d3LmxhYjUuY2ExITAfBgNVBAMMGExhYjUgRGV2T3BzIEluYy4g
Um9vdCBDQTAeFw0yNDAzMDEyMTU2MjNaFw0zNDAzMDEyMTU2MjNaMH4xEjAQBgoJ
kiaJk/IsZAEZFgJjYTEUMBIGCgmSJomT8ixkARkWBGxhYjUxGTAXBgNVBAoMEExh
YjUgRGV2T3BzIEluYy4xFDASBgNVBAsMC3d3dy5sYWI1LmNhMSEwHwYDVQQDDBhM
YWI1IERldk9wcyBJbmMuIFJvb3QgQ0EwKjAFBgMrZXADIQA5nUObVdX89URVkpqH
eVDSofjZbdEC+bE2LcsO3/gsLaNjMGEwDgYDVR0PAQH/BAQDAgEGMA8GA1UdEwEB
/wQFMAMBAf8wHQYDVR0OBBYEFPpvNDS5ximgkva0S/3SYxarH4EMMB8GA1UdIwQY
MBaAFPpvNDS5ximgkva0S/3SYxarH4EMMAUGAytlcANBAM+iaCilUdkOBkNKOSd9
/cp1TrNAokEb4yx/nVVkr6i02d5xuQ05kIMxkgP6bw8u3QqygFMt8WQX0oXM6h0Y
TgI=
-----END CERTIFICATE-----
