Certificate:
    Data:
        Version: 3 (0x2)
        Serial Number: 1 (0x1)
        Signature Algorithm: ED25519
        Issuer: DC=ca, DC=lab5, O=Lab5 DevOps Inc., OU=www.lab5.ca, CN=Lab5 DevOps Inc. Root CA
        Validity
            Not Before: Mar  2 00:50:58 2024 GMT
            Not After : Mar  2 00:50:58 2034 GMT
        Subject: DC=ca, DC=lab5, O=Lab5 DevOps Inc., OU=www.lab5.ca, CN=Lab5 DevOps Inc. Root CA
        Subject Public Key Info:
            Public Key Algorithm: ED25519
                ED25519 Public-Key:
                pub:
                    5a:af:c9:88:86:73:42:a1:b1:7e:31:3c:3c:65:5b:
                    59:3b:56:80:76:5b:f2:57:5d:2b:72:3a:f8:3c:94:
                    9a:96
        X509v3 extensions:
            X509v3 Key Usage: critical
                Certificate Sign, CRL Sign
            X509v3 Basic Constraints: critical
                CA:TRUE
            X509v3 Subject Key Identifier: 
                D8:9C:0C:F7:7A:5F:5F:BA:09:A5:94:68:C1:56:4D:83:6E:01:C5:46
            X509v3 Authority Key Identifier: 
                D8:9C:0C:F7:7A:5F:5F:BA:09:A5:94:68:C1:56:4D:83:6E:01:C5:46
    Signature Algorithm: ED25519
    Signature Value:
        82:85:2c:2b:c8:a6:27:df:09:0d:5f:43:81:8a:44:c7:27:c9:
        ba:81:91:f8:f6:b2:3e:4a:d4:54:ea:e8:fd:c1:4b:2a:be:25:
        c8:ab:73:2b:d0:07:91:11:51:e8:9a:60:86:68:7f:2e:34:3a:
        9e:f0:8b:b1:39:28:13:ab:56:0b
-----BEGIN CERTIFICATE-----
MIICDjCCAcCgAwIBAgIBATAFBgMrZXAwfjESMBAGCgmSJomT8ixkARkWAmNhMRQw
EgYKCZImiZPyLGQBGRYEbGFiNTEZMBcGA1UECgwQTGFiNSBEZXZPcHMgSW5jLjEU
MBIGA1UECwwLd3d3LmxhYjUuY2ExITAfBgNVBAMMGExhYjUgRGV2T3BzIEluYy4g
Um9vdCBDQTAeFw0yNDAzMDIwMDUwNThaFw0zNDAzMDIwMDUwNThaMH4xEjAQBgoJ
kiaJk/IsZAEZFgJjYTEUMBIGCgmSJomT8ixkARkWBGxhYjUxGTAXBgNVBAoMEExh
YjUgRGV2T3BzIEluYy4xFDASBgNVBAsMC3d3dy5sYWI1LmNhMSEwHwYDVQQDDBhM
YWI1IERldk9wcyBJbmMuIFJvb3QgQ0EwKjAFBgMrZXADIQBar8mIhnNCobF+MTw8
ZVtZO1aAdlvyV10rcjr4PJSalqNjMGEwDgYDVR0PAQH/BAQDAgEGMA8GA1UdEwEB
/wQFMAMBAf8wHQYDVR0OBBYEFNicDPd6X1+6CaWUaMFWTYNuAcVGMB8GA1UdIwQY
MBaAFNicDPd6X1+6CaWUaMFWTYNuAcVGMAUGAytlcANBAIKFLCvIpiffCQ1fQ4GK
RMcnybqBkfj2sj5K1FTq6P3BSyq+JcircyvQB5ERUeiaYIZofy40Op7wi7E5KBOr
Vgs=
-----END CERTIFICATE-----
