Certificate:
    Data:
        Version: 3 (0x2)
        Serial Number: 1 (0x1)
        Signature Algorithm: ED25519
        Issuer: DC=ca, DC=lab5, O=Lab5 DevOps Inc., OU=www.lab5.ca, CN=Lab5 DevOps Inc. Root CA
        Validity
            Not Before: Mar  1 15:44:22 2024 GMT
            Not After : Mar  1 15:44:22 2034 GMT
        Subject: DC=ca, DC=lab5, O=Lab5 DevOps Inc., OU=www.lab5.ca, CN=Lab5 DevOps Inc. Root CA
        Subject Public Key Info:
            Public Key Algorithm: ED25519
                ED25519 Public-Key:
                pub:
                    ea:e2:40:b1:32:78:fc:5f:fe:d2:8f:46:90:d7:a0:
                    ba:a1:27:94:9f:3a:eb:bb:51:c5:1b:4f:ce:cd:bf:
                    8f:d1
        X509v3 extensions:
            X509v3 Key Usage: critical
                Certificate Sign, CRL Sign
            X509v3 Basic Constraints: critical
                CA:TRUE
            X509v3 Subject Key Identifier: 
                B9:4C:54:88:91:03:E8:E7:CB:84:4D:B9:F4:A1:70:39:D9:B1:71:02
            X509v3 Authority Key Identifier: 
                B9:4C:54:88:91:03:E8:E7:CB:84:4D:B9:F4:A1:70:39:D9:B1:71:02
    Signature Algorithm: ED25519
    Signature Value:
        07:94:e3:47:30:a6:62:6c:30:a1:42:86:63:51:2d:6b:d5:d9:
        91:fb:99:87:f6:37:92:94:02:23:1b:43:af:65:d4:45:98:47:
        d5:4a:b4:9b:df:48:8f:8b:34:a2:5f:1f:76:99:5f:3d:fe:da:
        05:22:02:81:06:37:ec:14:da:0b
-----BEGIN CERTIFICATE-----
MIICDjCCAcCgAwIBAgIBATAFBgMrZXAwfjESMBAGCgmSJomT8ixkARkWAmNhMRQw
EgYKCZImiZPyLGQBGRYEbGFiNTEZMBcGA1UECgwQTGFiNSBEZXZPcHMgSW5jLjEU
MBIGA1UECwwLd3d3LmxhYjUuY2ExITAfBgNVBAMMGExhYjUgRGV2T3BzIEluYy4g
Um9vdCBDQTAeFw0yNDAzMDExNTQ0MjJaFw0zNDAzMDExNTQ0MjJaMH4xEjAQBgoJ
kiaJk/IsZAEZFgJjYTEUMBIGCgmSJomT8ixkARkWBGxhYjUxGTAXBgNVBAoMEExh
YjUgRGV2T3BzIEluYy4xFDASBgNVBAsMC3d3dy5sYWI1LmNhMSEwHwYDVQQDDBhM
YWI1IERldk9wcyBJbmMuIFJvb3QgQ0EwKjAFBgMrZXADIQDq4kCxMnj8X/7Sj0aQ
16C6oSeUnzrru1HFG0/Ozb+P0aNjMGEwDgYDVR0PAQH/BAQDAgEGMA8GA1UdEwEB
/wQFMAMBAf8wHQYDVR0OBBYEFLlMVIiRA+jny4RNufShcDnZsXECMB8GA1UdIwQY
MBaAFLlMVIiRA+jny4RNufShcDnZsXECMAUGAytlcANBAAeU40cwpmJsMKFChmNR
LWvV2ZH7mYf2N5KUAiMbQ69l1EWYR9VKtJvfSI+LNKJfH3aZXz3+2gUiAoEGN+wU
2gs=
-----END CERTIFICATE-----
