Certificate:
    Data:
        Version: 3 (0x2)
        Serial Number: 2 (0x2)
        Signature Algorithm: ED25519
        Issuer: DC=ca, DC=lab5, O=Lab5 DevOps Inc., OU=www.lab5.ca, CN=Lab5 DevOps Inc. Root CA
        Validity
            Not Before: Mar  2 00:51:02 2024 GMT
            Not After : Mar  2 00:51:02 2034 GMT
        Subject: DC=ca, DC=lab5, O=Lab5 DevOps Inc., OU=www.lab5.ca, CN=Lab5 DevOps Inc. Issuing CA
        Subject Public Key Info:
            Public Key Algorithm: ED25519
                ED25519 Public-Key:
                pub:
                    90:ce:af:ef:4f:50:01:f3:c5:72:0b:0e:de:11:82:
                    4e:79:ba:c8:1e:09:7b:49:92:d7:22:d6:2d:d4:ba:
                    c1:04
        X509v3 extensions:
            X509v3 Key Usage: critical
                Certificate Sign, CRL Sign
            X509v3 Basic Constraints: critical
                CA:TRUE, pathlen:0
            X509v3 Subject Key Identifier: 
                38:AD:47:97:8F:C6:8A:2E:0C:41:0C:04:79:17:A9:8B:5C:3B:79:59
            X509v3 Authority Key Identifier: 
                D8:9C:0C:F7:7A:5F:5F:BA:09:A5:94:68:C1:56:4D:83:6E:01:C5:46
    Signature Algorithm: ED25519
    Signature Value:
        82:9b:75:c7:b4:8e:65:e2:4d:8b:bc:62:e4:94:39:54:4c:2c:
        28:69:98:7b:9c:3a:7c:b0:c6:e9:8a:3d:c7:15:be:04:52:c5:
        fb:6d:10:97:f2:22:f5:2f:7f:60:a8:b2:d8:0b:ac:08:1f:a1:
        75:7a:6b:44:0c:95:9e:b0:60:05
-----BEGIN CERTIFICATE-----
MIICFTCCAcegAwIBAgIBAjAFBgMrZXAwfjESMBAGCgmSJomT8ixkARkWAmNhMRQw
EgYKCZImiZPyLGQBGRYEbGFiNTEZMBcGA1UECgwQTGFiNSBEZXZPcHMgSW5jLjEU
MBIGA1UECwwLd3d3LmxhYjUuY2ExITAfBgNVBAMMGExhYjUgRGV2T3BzIEluYy4g
Um9vdCBDQTAeFw0yNDAzMDIwMDUxMDJaFw0zNDAzMDIwMDUxMDJaMIGBMRIwEAYK
CZImiZPyLGQBGRYCY2ExFDASBgoJkiaJk/IsZAEZFgRsYWI1MRkwFwYDVQQKDBBM
YWI1IERldk9wcyBJbmMuMRQwEgYDVQQLDAt3d3cubGFiNS5jYTEkMCIGA1UEAwwb
TGFiNSBEZXZPcHMgSW5jLiBJc3N1aW5nIENBMCowBQYDK2VwAyEAkM6v709QAfPF
cgsO3hGCTnm6yB4Je0mS1yLWLdS6wQSjZjBkMA4GA1UdDwEB/wQEAwIBBjASBgNV
HRMBAf8ECDAGAQH/AgEAMB0GA1UdDgQWBBQ4rUeXj8aKLgxBDAR5F6mLXDt5WTAf
BgNVHSMEGDAWgBTYnAz3el9fugmllGjBVk2DbgHFRjAFBgMrZXADQQCCm3XHtI5l
4k2LvGLklDlUTCwoaZh7nDp8sMbpij3HFb4EUsX7bRCX8iL1L39gqLLYC6wIH6F1
emtEDJWesGAF
-----END CERTIFICATE-----
