Certificate:
    Data:
        Version: 3 (0x2)
        Serial Number: 2 (0x2)
        Signature Algorithm: ED25519
        Issuer: DC=ca, DC=lab5, O=Lab5 DevOps Inc., OU=www.lab5.ca, CN=Lab5 DevOps Inc. Root CA
        Validity
            Not Before: Mar  1 15:18:07 2024 GMT
            Not After : Mar  1 15:18:07 2034 GMT
        Subject: DC=ca, DC=lab5, O=Lab5 DevOps Inc., OU=www.lab5.ca, CN=Lab5 DevOps Inc. Issuing CA
        Subject Public Key Info:
            Public Key Algorithm: ED25519
                ED25519 Public-Key:
                pub:
                    f3:00:02:75:0a:e2:6a:12:1d:69:67:90:29:bf:c9:
                    9e:fc:d0:c2:fb:6f:bd:20:2b:e2:fa:2e:9b:c3:1f:
                    ea:27
        X509v3 extensions:
            X509v3 Key Usage: critical
                Certificate Sign, CRL Sign
            X509v3 Basic Constraints: critical
                CA:TRUE, pathlen:0
            X509v3 Subject Key Identifier: 
                FF:E7:71:20:A9:3D:7A:E7:88:E9:5A:47:C7:D2:7A:83:24:1A:B7:D5
            X509v3 Authority Key Identifier: 
                AF:D8:C8:5F:02:F1:07:12:11:32:5B:FD:31:9C:10:06:08:16:18:6C
    Signature Algorithm: ED25519
    Signature Value:
        98:5c:55:06:1a:ad:c1:94:34:19:0a:88:bd:fb:62:49:67:02:
        91:3b:89:b4:de:9c:d1:73:8d:02:cb:b4:fc:ef:6d:1a:f4:51:
        fb:ae:e7:eb:3a:a9:fa:04:ec:6c:05:e3:b2:dc:38:ba:8a:8c:
        26:ef:a9:bd:54:ec:2f:a6:df:0c
-----BEGIN CERTIFICATE-----
MIICFTCCAcegAwIBAgIBAjAFBgMrZXAwfjESMBAGCgmSJomT8ixkARkWAmNhMRQw
EgYKCZImiZPyLGQBGRYEbGFiNTEZMBcGA1UECgwQTGFiNSBEZXZPcHMgSW5jLjEU
MBIGA1UECwwLd3d3LmxhYjUuY2ExITAfBgNVBAMMGExhYjUgRGV2T3BzIEluYy4g
Um9vdCBDQTAeFw0yNDAzMDExNTE4MDdaFw0zNDAzMDExNTE4MDdaMIGBMRIwEAYK
CZImiZPyLGQBGRYCY2ExFDASBgoJkiaJk/IsZAEZFgRsYWI1MRkwFwYDVQQKDBBM
YWI1IERldk9wcyBJbmMuMRQwEgYDVQQLDAt3d3cubGFiNS5jYTEkMCIGA1UEAwwb
TGFiNSBEZXZPcHMgSW5jLiBJc3N1aW5nIENBMCowBQYDK2VwAyEA8wACdQriahId
aWeQKb/JnvzQwvtvvSAr4voum8Mf6iejZjBkMA4GA1UdDwEB/wQEAwIBBjASBgNV
HRMBAf8ECDAGAQH/AgEAMB0GA1UdDgQWBBT/53EgqT1654jpWkfH0nqDJBq31TAf
BgNVHSMEGDAWgBSv2MhfAvEHEhEyW/0xnBAGCBYYbDAFBgMrZXADQQCYXFUGGq3B
lDQZCoi9+2JJZwKRO4m03pzRc40Cy7T8720a9FH7rufrOqn6BOxsBeOy3Di6iowm
76m9VOwvpt8M
-----END CERTIFICATE-----
