Certificate:
    Data:
        Version: 3 (0x2)
        Serial Number: 2 (0x2)
        Signature Algorithm: ED25519
        Issuer: DC=ca, DC=lab5, O=Lab5 DevOps Inc., OU=www.lab5.ca, CN=Lab5 DevOps Inc. Root CA
        Validity
            Not Before: Mar  1 21:56:28 2024 GMT
            Not After : Mar  1 21:56:28 2034 GMT
        Subject: DC=ca, DC=lab5, O=Lab5 DevOps Inc., OU=www.lab5.ca, CN=Lab5 DevOps Inc. Issuing CA
        Subject Public Key Info:
            Public Key Algorithm: ED25519
                ED25519 Public-Key:
                pub:
                    6c:a4:f1:67:ea:de:29:fa:a9:21:c1:93:0f:8a:2a:
                    45:26:fd:77:49:0d:a0:e4:3e:e2:5d:d5:bf:f2:8f:
                    9e:37
        X509v3 extensions:
            X509v3 Key Usage: critical
                Certificate Sign, CRL Sign
            X509v3 Basic Constraints: critical
                CA:TRUE, pathlen:0
            X509v3 Subject Key Identifier: 
                5E:C4:AB:98:B2:27:E6:F5:1D:6E:13:6B:61:6C:CE:B4:8C:0B:1B:B5
            X509v3 Authority Key Identifier: 
                FA:6F:34:34:B9:C6:29:A0:92:F6:B4:4B:FD:D2:63:16:AB:1F:81:0C
    Signature Algorithm: ED25519
    Signature Value:
        44:29:28:8b:8f:62:4a:3c:f1:85:0b:d8:1d:96:bc:65:00:63:
        a9:50:ef:06:0b:c9:a3:76:ca:5a:e0:fc:af:fe:36:a9:1b:56:
        da:1c:2b:60:c9:77:97:89:53:e6:4b:76:c5:99:ca:8f:3b:34:
        a4:91:98:06:05:50:93:f6:4e:07
-----BEGIN CERTIFICATE-----
MIICFTCCAcegAwIBAgIBAjAFBgMrZXAwfjESMBAGCgmSJomT8ixkARkWAmNhMRQw
EgYKCZImiZPyLGQBGRYEbGFiNTEZMBcGA1UECgwQTGFiNSBEZXZPcHMgSW5jLjEU
MBIGA1UECwwLd3d3LmxhYjUuY2ExITAfBgNVBAMMGExhYjUgRGV2T3BzIEluYy4g
Um9vdCBDQTAeFw0yNDAzMDEyMTU2MjhaFw0zNDAzMDEyMTU2MjhaMIGBMRIwEAYK
CZImiZPyLGQBGRYCY2ExFDASBgoJkiaJk/IsZAEZFgRsYWI1MRkwFwYDVQQKDBBM
YWI1IERldk9wcyBJbmMuMRQwEgYDVQQLDAt3d3cubGFiNS5jYTEkMCIGA1UEAwwb
TGFiNSBEZXZPcHMgSW5jLiBJc3N1aW5nIENBMCowBQYDK2VwAyEAbKTxZ+reKfqp
IcGTD4oqRSb9d0kNoOQ+4l3Vv/KPnjejZjBkMA4GA1UdDwEB/wQEAwIBBjASBgNV
HRMBAf8ECDAGAQH/AgEAMB0GA1UdDgQWBBRexKuYsifm9R1uE2thbM60jAsbtTAf
BgNVHSMEGDAWgBT6bzQ0ucYpoJL2tEv90mMWqx+BDDAFBgMrZXADQQBEKSiLj2JK
PPGFC9gdlrxlAGOpUO8GC8mjdspa4Pyv/japG1baHCtgyXeXiVPmS3bFmcqPOzSk
kZgGBVCT9k4H
-----END CERTIFICATE-----
