Certificate:
    Data:
        Version: 3 (0x2)
        Serial Number: 2 (0x2)
        Signature Algorithm: ED25519
        Issuer: DC=ca, DC=lab5, O=Lab5 DevOps Inc., OU=www.lab5.ca, CN=Lab5 DevOps Inc. Root CA
        Validity
            Not Before: Mar  1 15:51:08 2024 GMT
            Not After : Mar  1 15:51:08 2034 GMT
        Subject: DC=ca, DC=lab5, O=Lab5 DevOps Inc., OU=www.lab5.ca, CN=Lab5 DevOps Inc. Issuing CA
        Subject Public Key Info:
            Public Key Algorithm: ED25519
                ED25519 Public-Key:
                pub:
                    d8:4b:c0:45:b1:38:ef:bd:cc:8c:08:58:2e:f0:60:
                    dc:d8:71:1a:70:89:11:ef:42:ca:e2:32:fd:ac:af:
                    b8:0b
        X509v3 extensions:
            X509v3 Key Usage: critical
                Certificate Sign, CRL Sign
            X509v3 Basic Constraints: critical
                CA:TRUE, pathlen:0
            X509v3 Subject Key Identifier: 
                BA:F1:13:58:FC:B3:07:AE:1D:35:19:5C:3A:F1:BF:83:5E:B3:5A:94
            X509v3 Authority Key Identifier: 
                D4:E8:0F:2D:68:F4:70:41:14:20:1B:73:3D:40:BA:B8:6D:A9:37:BF
    Signature Algorithm: ED25519
    Signature Value:
        35:4a:3b:1e:f6:c2:d2:0a:6f:cc:46:b3:11:89:e0:db:41:ae:
        da:55:75:2c:4c:4c:19:3a:e3:5e:cd:53:9c:08:cb:91:1e:0c:
        87:78:35:25:c8:b3:7e:2f:94:45:38:6f:01:55:d0:55:09:fd:
        85:38:bc:a3:1f:ef:b0:8e:2a:06
-----BEGIN CERTIFICATE-----
MIICFTCCAcegAwIBAgIBAjAFBgMrZXAwfjESMBAGCgmSJomT8ixkARkWAmNhMRQw
EgYKCZImiZPyLGQBGRYEbGFiNTEZMBcGA1UECgwQTGFiNSBEZXZPcHMgSW5jLjEU
MBIGA1UECwwLd3d3LmxhYjUuY2ExITAfBgNVBAMMGExhYjUgRGV2T3BzIEluYy4g
Um9vdCBDQTAeFw0yNDAzMDExNTUxMDhaFw0zNDAzMDExNTUxMDhaMIGBMRIwEAYK
CZImiZPyLGQBGRYCY2ExFDASBgoJkiaJk/IsZAEZFgRsYWI1MRkwFwYDVQQKDBBM
YWI1IERldk9wcyBJbmMuMRQwEgYDVQQLDAt3d3cubGFiNS5jYTEkMCIGA1UEAwwb
TGFiNSBEZXZPcHMgSW5jLiBJc3N1aW5nIENBMCowBQYDK2VwAyEA2EvARbE4773M
jAhYLvBg3NhxGnCJEe9CyuIy/ayvuAujZjBkMA4GA1UdDwEB/wQEAwIBBjASBgNV
HRMBAf8ECDAGAQH/AgEAMB0GA1UdDgQWBBS68RNY/LMHrh01GVw68b+DXrNalDAf
BgNVHSMEGDAWgBTU6A8taPRwQRQgG3M9QLq4bak3vzAFBgMrZXADQQA1Sjse9sLS
Cm/MRrMRieDbQa7aVXUsTEwZOuNezVOcCMuRHgyHeDUlyLN+L5RFOG8BVdBVCf2F
OLyjH++wjioG
-----END CERTIFICATE-----
