Certificate:
    Data:
        Version: 3 (0x2)
        Serial Number: 2 (0x2)
        Signature Algorithm: ED25519
        Issuer: DC=ca, DC=lab5, O=Lab5 DevOps Inc., OU=www.lab5.ca, CN=Lab5 DevOps Inc. Root CA
        Validity
            Not Before: Mar  1 15:14:32 2024 GMT
            Not After : Mar  1 15:14:32 2034 GMT
        Subject: DC=ca, DC=lab5, O=Lab5 DevOps Inc., OU=www.lab5.ca, CN=Lab5 DevOps Inc. Issuing CA
        Subject Public Key Info:
            Public Key Algorithm: ED25519
                ED25519 Public-Key:
                pub:
                    c0:7a:65:40:25:69:f0:de:8e:55:e4:1d:3b:cc:4d:
                    dc:8e:18:8a:d5:79:22:74:2c:f9:ce:48:ab:7a:9f:
                    bc:f1
        X509v3 extensions:
            X509v3 Key Usage: critical
                Certificate Sign, CRL Sign
            X509v3 Basic Constraints: critical
                CA:TRUE, pathlen:0
            X509v3 Subject Key Identifier: 
                26:CC:2E:BE:66:ED:7C:A7:50:45:CD:44:C6:34:E2:61:24:FA:6A:DE
            X509v3 Authority Key Identifier: 
                B0:A4:C4:F2:41:B6:9E:05:92:74:68:8E:62:BA:5D:F3:99:A4:9F:FB
    Signature Algorithm: ED25519
    Signature Value:
        35:d4:43:93:e4:46:f8:fd:d2:1c:57:64:55:0a:09:09:21:cc:
        32:01:6d:66:9e:1e:d5:83:06:a4:68:95:28:22:b1:ab:ba:cb:
        1b:d3:79:66:5f:92:79:4c:a1:40:52:f4:d5:26:46:31:2e:b5:
        a4:f0:e2:a4:a0:11:5a:47:30:01
-----BEGIN CERTIFICATE-----
MIICFTCCAcegAwIBAgIBAjAFBgMrZXAwfjESMBAGCgmSJomT8ixkARkWAmNhMRQw
EgYKCZImiZPyLGQBGRYEbGFiNTEZMBcGA1UECgwQTGFiNSBEZXZPcHMgSW5jLjEU
MBIGA1UECwwLd3d3LmxhYjUuY2ExITAfBgNVBAMMGExhYjUgRGV2T3BzIEluYy4g
Um9vdCBDQTAeFw0yNDAzMDExNTE0MzJaFw0zNDAzMDExNTE0MzJaMIGBMRIwEAYK
CZImiZPyLGQBGRYCY2ExFDASBgoJkiaJk/IsZAEZFgRsYWI1MRkwFwYDVQQKDBBM
YWI1IERldk9wcyBJbmMuMRQwEgYDVQQLDAt3d3cubGFiNS5jYTEkMCIGA1UEAwwb
TGFiNSBEZXZPcHMgSW5jLiBJc3N1aW5nIENBMCowBQYDK2VwAyEAwHplQCVp8N6O
VeQdO8xN3I4YitV5InQs+c5Iq3qfvPGjZjBkMA4GA1UdDwEB/wQEAwIBBjASBgNV
HRMBAf8ECDAGAQH/AgEAMB0GA1UdDgQWBBQmzC6+Zu18p1BFzUTGNOJhJPpq3jAf
BgNVHSMEGDAWgBSwpMTyQbaeBZJ0aI5iul3zmaSf+zAFBgMrZXADQQA11EOT5Eb4
/dIcV2RVCgkJIcwyAW1mnh7VgwakaJUoIrGrussb03lmX5J5TKFAUvTVJkYxLrWk
8OKkoBFaRzAB
-----END CERTIFICATE-----
