Certificate:
    Data:
        Version: 3 (0x2)
        Serial Number: 2 (0x2)
        Signature Algorithm: ED25519
        Issuer: DC=ca, DC=lab5, O=Lab5 DevOps Inc., OU=www.lab5.ca, CN=Lab5 DevOps Inc. Root CA
        Validity
            Not Before: Mar  1 15:44:25 2024 GMT
            Not After : Mar  1 15:44:25 2034 GMT
        Subject: DC=ca, DC=lab5, O=Lab5 DevOps Inc., OU=www.lab5.ca, CN=Lab5 DevOps Inc. Issuing CA
        Subject Public Key Info:
            Public Key Algorithm: ED25519
                ED25519 Public-Key:
                pub:
                    d8:73:73:2a:74:92:d4:5d:c3:30:26:a8:15:7b:71:
                    58:c7:1e:fb:8d:f5:aa:50:7b:ff:97:73:57:ae:71:
                    86:48
        X509v3 extensions:
            X509v3 Key Usage: critical
                Certificate Sign, CRL Sign
            X509v3 Basic Constraints: critical
                CA:TRUE, pathlen:0
            X509v3 Subject Key Identifier: 
                D3:37:BD:1A:60:80:21:F2:DE:45:01:AD:7B:0C:46:AC:5C:9F:48:4E
            X509v3 Authority Key Identifier: 
                B9:4C:54:88:91:03:E8:E7:CB:84:4D:B9:F4:A1:70:39:D9:B1:71:02
    Signature Algorithm: ED25519
    Signature Value:
        9d:47:98:99:2d:b9:d0:27:ff:4d:89:bc:60:f5:52:ff:f3:a4:
        a9:40:e9:8c:48:27:19:b4:8b:da:bd:d9:1d:2e:4f:d3:bc:c8:
        16:76:27:72:15:f4:fe:e3:1d:10:54:77:18:3c:41:61:a8:02:
        79:51:8d:b8:45:db:a3:66:0d:0d
-----BEGIN CERTIFICATE-----
MIICFTCCAcegAwIBAgIBAjAFBgMrZXAwfjESMBAGCgmSJomT8ixkARkWAmNhMRQw
EgYKCZImiZPyLGQBGRYEbGFiNTEZMBcGA1UECgwQTGFiNSBEZXZPcHMgSW5jLjEU
MBIGA1UECwwLd3d3LmxhYjUuY2ExITAfBgNVBAMMGExhYjUgRGV2T3BzIEluYy4g
Um9vdCBDQTAeFw0yNDAzMDExNTQ0MjVaFw0zNDAzMDExNTQ0MjVaMIGBMRIwEAYK
CZImiZPyLGQBGRYCY2ExFDASBgoJkiaJk/IsZAEZFgRsYWI1MRkwFwYDVQQKDBBM
YWI1IERldk9wcyBJbmMuMRQwEgYDVQQLDAt3d3cubGFiNS5jYTEkMCIGA1UEAwwb
TGFiNSBEZXZPcHMgSW5jLiBJc3N1aW5nIENBMCowBQYDK2VwAyEA2HNzKnSS1F3D
MCaoFXtxWMce+431qlB7/5dzV65xhkijZjBkMA4GA1UdDwEB/wQEAwIBBjASBgNV
HRMBAf8ECDAGAQH/AgEAMB0GA1UdDgQWBBTTN70aYIAh8t5FAa17DEasXJ9ITjAf
BgNVHSMEGDAWgBS5TFSIkQPo58uETbn0oXA52bFxAjAFBgMrZXADQQCdR5iZLbnQ
J/9Nibxg9VL/86SpQOmMSCcZtIvavdkdLk/TvMgWdidyFfT+4x0QVHcYPEFhqAJ5
UY24RdujZg0N
-----END CERTIFICATE-----
