Certificate:
    Data:
        Version: 3 (0x2)
        Serial Number: 2 (0x2)
        Signature Algorithm: ED25519
        Issuer: DC=ca, DC=lab5, O=Lab5 DevOps Inc., OU=www.lab5.ca, CN=Lab5 DevOps Inc. Root CA
        Validity
            Not Before: Mar  2 00:59:35 2024 GMT
            Not After : Mar  2 00:59:35 2034 GMT
        Subject: DC=ca, DC=lab5, O=Lab5 DevOps Inc., OU=www.lab5.ca, CN=Lab5 DevOps Inc. Issuing CA
        Subject Public Key Info:
            Public Key Algorithm: ED25519
                ED25519 Public-Key:
                pub:
                    95:91:a7:e0:a6:25:5e:73:17:ec:f0:e6:ef:7e:f5:
                    cd:20:c8:8b:14:d3:a2:0b:8d:9c:2d:a1:40:af:b5:
                    27:62
        X509v3 extensions:
            X509v3 Key Usage: critical
                Certificate Sign, CRL Sign
            X509v3 Basic Constraints: critical
                CA:TRUE, pathlen:0
            X509v3 Subject Key Identifier: 
                19:08:E6:46:E8:1D:EF:13:86:34:65:52:2B:C8:2E:66:6C:04:7A:27
            X509v3 Authority Key Identifier: 
                E9:3F:18:7C:3A:C4:C5:0F:D7:C1:B6:42:47:6A:8B:AA:63:81:E1:EE
    Signature Algorithm: ED25519
    Signature Value:
        24:41:3a:c4:9e:38:b0:e4:59:19:34:6b:55:bd:71:ba:41:77:
        5b:eb:ff:78:2a:88:0a:e1:92:84:dd:e7:0e:84:03:0d:a2:36:
        fc:5f:56:55:06:8b:7f:2b:61:89:02:8a:53:ac:21:54:d1:73:
        90:14:3c:5b:63:5a:d6:66:e8:0a
-----BEGIN CERTIFICATE-----
MIICFTCCAcegAwIBAgIBAjAFBgMrZXAwfjESMBAGCgmSJomT8ixkARkWAmNhMRQw
EgYKCZImiZPyLGQBGRYEbGFiNTEZMBcGA1UECgwQTGFiNSBEZXZPcHMgSW5jLjEU
MBIGA1UECwwLd3d3LmxhYjUuY2ExITAfBgNVBAMMGExhYjUgRGV2T3BzIEluYy4g
Um9vdCBDQTAeFw0yNDAzMDIwMDU5MzVaFw0zNDAzMDIwMDU5MzVaMIGBMRIwEAYK
CZImiZPyLGQBGRYCY2ExFDASBgoJkiaJk/IsZAEZFgRsYWI1MRkwFwYDVQQKDBBM
YWI1IERldk9wcyBJbmMuMRQwEgYDVQQLDAt3d3cubGFiNS5jYTEkMCIGA1UEAwwb
TGFiNSBEZXZPcHMgSW5jLiBJc3N1aW5nIENBMCowBQYDK2VwAyEAlZGn4KYlXnMX
7PDm7371zSDIixTToguNnC2hQK+1J2KjZjBkMA4GA1UdDwEB/wQEAwIBBjASBgNV
HRMBAf8ECDAGAQH/AgEAMB0GA1UdDgQWBBQZCOZG6B3vE4Y0ZVIryC5mbAR6JzAf
BgNVHSMEGDAWgBTpPxh8OsTFD9fBtkJHaouqY4Hh7jAFBgMrZXADQQAkQTrEnjiw
5FkZNGtVvXG6QXdb6/94KogK4ZKE3ecOhAMNojb8X1ZVBot/K2GJAopTrCFU0XOQ
FDxbY1rWZugK
-----END CERTIFICATE-----
