Certificate:
    Data:
        Version: 3 (0x2)
        Serial Number:
            02:cf:2f:48:bb:eb:c5:30:21:ac:1b:e5:60:c6:aa:4a:ed:54:d3:84
        Signature Algorithm: sha256WithRSAEncryption
        Issuer: DC=ca, DC=lab5, O=Lab5 DevOps Inc., OU=www.lab5.ca, CN=Lab5 DevOps Inc. Root CA
        Validity
            Not Before: Mar 28 23:53:44 2024 GMT
            Not After : Mar 28 23:53:44 2034 GMT
        Subject: DC=ca, DC=lab5, O=Lab5 DevOps Inc., OU=www.lab5.ca, CN=Lab5 DevOps Inc. Root CA
        Subject Public Key Info:
            Public Key Algorithm: rsaEncryption
                Public-Key: (4096 bit)
                Modulus:
                    00:ba:26:e0:90:a7:2f:3d:c3:d2:7f:5e:be:b8:fd:
                    48:a1:c0:58:35:5a:f6:96:c4:fc:e6:c8:a5:15:2e:
                    47:1d:ff:24:fd:a3:5a:89:fa:db:38:f9:74:44:06:
                    03:81:f6:68:c6:e5:f3:11:e1:49:b4:9e:b0:61:b7:
                    ae:77:80:ec:e2:22:04:6a:47:a8:64:36:26:22:f0:
                    62:15:8b:5f:f7:7c:fa:56:8e:2d:f9:6d:7f:89:19:
                    b8:82:0d:8d:15:6a:75:c4:57:41:79:6f:2d:1b:37:
                    db:a7:78:43:f3:43:3b:25:ac:59:6e:9d:de:f9:31:
                    09:41:b1:80:f0:cb:6b:6a:d3:70:e1:52:d9:a8:05:
                    d2:b2:a4:05:f7:af:43:8f:50:c8:f6:df:e0:b0:b4:
                    31:ff:c4:cf:d7:ac:62:cf:69:50:fd:dc:94:6f:53:
                    6b:98:6a:7a:a1:91:3b:d9:94:47:4f:9b:d7:32:c0:
                    25:ac:74:a7:5f:d7:0e:d0:8a:9d:6a:90:cd:08:b0:
                    34:b9:b4:54:d6:99:a2:7b:6b:69:d4:d0:19:60:7a:
                    58:ab:50:27:0a:08:a2:41:09:84:e8:ba:86:27:bd:
                    86:af:6b:2b:d4:49:08:05:db:2c:b0:1e:62:19:06:
                    a2:55:5d:d7:b1:fc:f4:00:98:22:9f:74:18:04:63:
                    fc:6a:3e:d7:78:3b:4b:15:57:05:85:66:e4:6f:e3:
                    14:09:0d:b3:5f:41:ed:e1:15:12:61:49:f4:ae:b4:
                    d5:9e:3e:ea:2f:3b:b1:7a:83:c8:66:88:1f:1e:f3:
                    58:35:eb:65:8b:b9:e4:09:fd:44:50:7d:f7:26:66:
                    aa:fe:4b:12:6b:67:3a:18:62:c7:b6:12:f1:c2:b9:
                    9a:94:ac:f0:c0:72:27:ea:7d:39:25:9c:7b:52:86:
                    5e:86:62:7d:ac:5d:49:81:39:ac:67:76:cf:a8:24:
                    cb:7a:80:37:7f:37:45:b0:a0:00:d7:74:05:12:d5:
                    fb:2a:7a:3b:e7:2d:bc:d2:c7:dd:84:55:3b:18:c2:
                    1a:a2:4c:e3:95:fb:7e:63:7a:2b:1e:54:e9:66:16:
                    31:41:55:06:54:0f:62:95:6b:de:7b:64:91:d9:5f:
                    f2:5d:8e:ff:0c:d6:db:5e:58:2d:0a:d3:f0:d8:3c:
                    be:71:d0:0f:09:af:e6:3a:59:e5:78:59:fc:a1:df:
                    a6:94:7c:21:ce:11:88:a8:00:bd:66:a3:cb:d1:0c:
                    a9:a4:fd:b2:e0:c0:d3:62:d8:91:1c:92:a2:bf:b0:
                    af:df:6a:31:1f:43:ea:43:65:97:59:d7:49:e2:f6:
                    e7:8a:61:98:fb:13:4f:b5:ee:d5:4b:e3:b5:8f:ee:
                    c4:78:07
                Exponent: 65537 (0x10001)
        X509v3 extensions:
            X509v3 Key Usage: critical
                Certificate Sign, CRL Sign
            X509v3 Basic Constraints: critical
                CA:TRUE
            X509v3 Subject Key Identifier: 
                15:EC:96:BF:9B:19:5B:FB:1F:1C:26:C2:CA:1F:81:F7:3B:9D:A5:DD
            X509v3 Authority Key Identifier: 
                15:EC:96:BF:9B:19:5B:FB:1F:1C:26:C2:CA:1F:81:F7:3B:9D:A5:DD
    Signature Algorithm: sha256WithRSAEncryption
    Signature Value:
        88:20:75:38:e6:55:76:f0:bf:a3:ca:42:8d:6b:b4:e1:e0:1f:
        59:f1:c9:cf:c9:f5:ed:1f:5f:10:71:eb:6e:73:08:f7:91:89:
        cb:34:e3:3e:d1:21:4f:6b:1f:18:d3:c0:04:9a:bd:54:c5:97:
        58:81:fe:6f:3a:a3:2e:26:30:97:99:fb:81:99:ea:c8:c1:94:
        46:a6:1c:97:7a:68:6b:2f:05:a4:c1:bc:e6:ea:ad:c3:32:14:
        f7:cb:39:0a:4f:4b:7e:a0:d3:80:cc:82:37:56:8f:3c:82:91:
        dd:97:86:ba:c4:b5:8a:3c:6b:f0:4a:77:29:25:c5:59:c7:c5:
        74:f8:78:68:f8:af:2a:e7:9b:02:7a:fe:48:4b:aa:e1:12:26:
        26:4a:2a:ff:97:a7:98:55:76:7e:73:7c:15:9b:33:f9:93:54:
        fb:bb:23:8b:fa:00:08:7d:a5:85:b3:5d:2c:1f:55:7b:d4:ff:
        74:02:fc:87:6d:2a:4a:84:e6:07:07:17:9b:61:6b:e3:ea:77:
        09:15:c6:61:26:9d:b4:38:36:79:03:01:8f:9c:0b:71:1f:17:
        19:de:1a:dd:07:1d:88:31:60:f6:5d:6c:ff:50:0f:71:a8:fa:
        d1:94:44:c6:58:70:48:04:9f:00:60:29:82:5e:c8:83:ec:84:
        e0:d2:2f:5e:a0:58:77:32:27:2d:e4:d1:6c:a3:d3:8d:22:1b:
        8e:9c:92:2c:ec:93:5e:c5:37:f6:bb:ab:58:34:22:d6:0e:20:
        b9:01:e5:3d:f4:40:9e:f8:b7:64:b7:18:e5:3f:e9:b5:c9:71:
        1d:db:4b:f8:e6:2d:dd:56:07:05:bb:a6:29:eb:fa:df:f3:0e:
        6e:8e:23:0f:10:24:75:b2:73:dd:23:a8:6d:97:3b:11:c5:d8:
        41:ad:a9:99:c4:fd:5b:0c:c9:58:e6:71:a3:62:de:38:5e:5c:
        d4:0e:15:e8:f6:17:c7:73:4f:1a:92:50:d2:c0:b1:f2:bd:83:
        3d:f4:12:0b:13:8e:e2:be:d7:28:db:28:f7:88:36:78:bb:c1:
        a0:e3:b6:39:d4:f7:50:d5:c5:29:0e:4e:ff:c4:80:e4:9b:32:
        5b:85:72:23:5e:d1:36:68:7b:4a:b4:6e:17:f8:ef:b3:98:1f:
        08:af:78:d1:2e:bc:ab:14:5f:52:f1:ac:05:ce:ae:9c:c6:d7:
        1a:ca:82:9e:68:d9:d2:af:c6:fd:d7:dd:d6:31:8f:c9:6a:8f:
        d9:48:db:86:7a:14:18:6a:1d:a6:e9:30:2d:af:82:15:5d:a1:
        d4:fe:ee:be:5a:08:09:11:f4:20:0f:55:80:fa:9b:26:06:bd:
        e9:fe:e7:e2:3e:15:d7:4f
-----BEGIN CERTIFICATE-----
MIIF7TCCA9WgAwIBAgIUAs8vSLvrxTAhrBvlYMaqSu1U04QwDQYJKoZIhvcNAQEL
BQAwfjESMBAGCgmSJomT8ixkARkWAmNhMRQwEgYKCZImiZPyLGQBGRYEbGFiNTEZ
MBcGA1UECgwQTGFiNSBEZXZPcHMgSW5jLjEUMBIGA1UECwwLd3d3LmxhYjUuY2Ex
ITAfBgNVBAMMGExhYjUgRGV2T3BzIEluYy4gUm9vdCBDQTAeFw0yNDAzMjgyMzUz
NDRaFw0zNDAzMjgyMzUzNDRaMH4xEjAQBgoJkiaJk/IsZAEZFgJjYTEUMBIGCgmS
JomT8ixkARkWBGxhYjUxGTAXBgNVBAoMEExhYjUgRGV2T3BzIEluYy4xFDASBgNV
BAsMC3d3dy5sYWI1LmNhMSEwHwYDVQQDDBhMYWI1IERldk9wcyBJbmMuIFJvb3Qg
Q0EwggIiMA0GCSqGSIb3DQEBAQUAA4ICDwAwggIKAoICAQC6JuCQpy89w9J/Xr64
/UihwFg1WvaWxPzmyKUVLkcd/yT9o1qJ+ts4+XREBgOB9mjG5fMR4Um0nrBht653
gOziIgRqR6hkNiYi8GIVi1/3fPpWji35bX+JGbiCDY0VanXEV0F5by0bN9uneEPz
QzslrFlund75MQlBsYDwy2tq03DhUtmoBdKypAX3r0OPUMj23+CwtDH/xM/XrGLP
aVD93JRvU2uYanqhkTvZlEdPm9cywCWsdKdf1w7Qip1qkM0IsDS5tFTWmaJ7a2nU
0BlgelirUCcKCKJBCYTouoYnvYavayvUSQgF2yywHmIZBqJVXdex/PQAmCKfdBgE
Y/xqPtd4O0sVVwWFZuRv4xQJDbNfQe3hFRJhSfSutNWePuovO7F6g8hmiB8e81g1
62WLueQJ/URQffcmZqr+SxJrZzoYYse2EvHCuZqUrPDAcifqfTklnHtShl6GYn2s
XUmBOaxnds+oJMt6gDd/N0WwoADXdAUS1fsqejvnLbzSx92EVTsYwhqiTOOV+35j
eiseVOlmFjFBVQZUD2KVa957ZJHZX/Jdjv8M1tteWC0K0/DYPL5x0A8Jr+Y6WeV4
Wfyh36aUfCHOEYioAL1mo8vRDKmk/bLgwNNi2JEckqK/sK/fajEfQ+pDZZdZ10ni
9ueKYZj7E0+17tVL47WP7sR4BwIDAQABo2MwYTAOBgNVHQ8BAf8EBAMCAQYwDwYD
VR0TAQH/BAUwAwEB/zAdBgNVHQ4EFgQUFeyWv5sZW/sfHCbCyh+B9zudpd0wHwYD
VR0jBBgwFoAUFeyWv5sZW/sfHCbCyh+B9zudpd0wDQYJKoZIhvcNAQELBQADggIB
AIggdTjmVXbwv6PKQo1rtOHgH1nxyc/J9e0fXxBx625zCPeRics04z7RIU9rHxjT
wASavVTFl1iB/m86oy4mMJeZ+4GZ6sjBlEamHJd6aGsvBaTBvObqrcMyFPfLOQpP
S36g04DMgjdWjzyCkd2XhrrEtYo8a/BKdyklxVnHxXT4eGj4ryrnmwJ6/khLquES
JiZKKv+Xp5hVdn5zfBWbM/mTVPu7I4v6AAh9pYWzXSwfVXvU/3QC/IdtKkqE5gcH
F5tha+PqdwkVxmEmnbQ4NnkDAY+cC3EfFxneGt0HHYgxYPZdbP9QD3Go+tGURMZY
cEgEnwBgKYJeyIPshODSL16gWHcyJy3k0Wyj040iG46ckizsk17FN/a7q1g0ItYO
ILkB5T30QJ74t2S3GOU/6bXJcR3bS/jmLd1WBwW7pinr+t/zDm6OIw8QJHWyc90j
qG2XOxHF2EGtqZnE/VsMyVjmcaNi3jheXNQOFej2F8dzTxqSUNLAsfK9gz30EgsT
juK+1yjbKPeINni7waDjtjnU91DVxSkOTv/EgOSbMluFciNe0TZoe0q0bhf477OY
HwiveNEuvKsUX1LxrAXOrpzG1xrKgp5o2dKvxv3X3dYxj8lqj9lI24Z6FBhqHabp
MC2vghVdodT+7r5aCAkR9CAPVYD6myYGven+5+I+FddP
-----END CERTIFICATE-----
