Certificate:
    Data:
        Version: 3 (0x2)
        Serial Number:
            03:a3:f4:87:05:a9:d5:69:65:9f:a3:e9:18:91:ff:d1:bf:ae:37:1e
        Signature Algorithm: sha256WithRSAEncryption
        Issuer: DC=ca, DC=lab5, O=Lab5 DevOps Inc., OU=www.lab5.ca, CN=Lab5 DevOps Inc. Root CA
        Validity
            Not Before: Mar 29 12:34:31 2024 GMT
            Not After : Mar 29 12:34:31 2034 GMT
        Subject: DC=ca, DC=lab5, O=Lab5 DevOps Inc., OU=www.lab5.ca, CN=Lab5 DevOps Inc. Root CA
        Subject Public Key Info:
            Public Key Algorithm: rsaEncryption
                Public-Key: (4096 bit)
                Modulus:
                    00:de:66:b7:db:b3:27:51:db:3a:e2:37:82:11:a0:
                    29:68:8f:15:17:5b:9c:00:54:f9:a4:5e:d8:1a:00:
                    dc:ec:85:78:bd:30:06:a9:7b:cc:43:06:57:ea:cb:
                    ac:42:2d:c4:35:96:f0:bd:a4:60:c3:99:21:d3:f8:
                    e1:f6:24:36:a6:33:f0:4e:38:81:84:af:17:f2:fe:
                    7f:e4:78:9f:1c:e2:51:0f:0b:b6:73:66:48:22:d0:
                    42:0a:8d:45:60:42:83:31:76:fb:d9:b4:f9:8f:dd:
                    c6:fd:e6:89:48:9d:cd:cb:9b:e9:32:f1:66:0c:42:
                    43:6a:2c:b2:b7:9c:b4:50:41:8d:43:3d:52:dc:72:
                    c6:6c:d0:ff:56:68:89:60:ab:57:61:bf:bd:e8:10:
                    60:ee:02:51:21:75:46:12:c5:da:b8:83:ef:73:44:
                    2b:2d:b1:68:f2:8a:fc:ee:0c:09:1d:c2:0a:20:16:
                    ca:7c:9d:06:59:fc:40:68:b3:75:47:f8:41:f5:5a:
                    97:ba:c9:50:dc:5a:8a:10:43:1c:23:8c:ef:f9:3a:
                    2f:8a:92:5e:fc:a5:c7:55:5d:c5:65:c8:dd:84:11:
                    7a:d0:29:d2:ae:7b:f2:c3:11:d8:f2:67:e2:81:84:
                    4d:b8:ca:a5:a7:fc:36:86:e9:af:3e:dd:0e:3e:d7:
                    fe:e4:a0:65:ab:cb:3b:f0:bc:98:11:63:b5:8f:cc:
                    9e:8a:88:ea:1d:bb:4b:25:35:67:ef:c1:48:24:e6:
                    66:27:bf:13:ff:51:eb:94:3e:b8:5a:60:b1:44:f2:
                    04:7f:17:e9:05:a0:b6:7e:0e:3e:33:fb:99:ad:01:
                    ee:41:5a:f7:88:44:a1:69:e4:35:cc:39:0d:f1:b5:
                    0c:ec:c3:ac:42:d6:e9:89:10:6a:ad:84:22:0b:76:
                    3f:7e:d8:a3:c2:65:77:d3:50:a9:12:72:88:92:7e:
                    3a:5f:e0:a2:ed:d3:c3:6a:04:d2:97:13:ef:03:94:
                    2f:a9:a1:db:52:d3:a4:5a:58:c2:58:aa:36:d9:b8:
                    d2:6c:be:af:83:0e:0a:3b:19:f6:44:21:64:07:7f:
                    55:22:3d:53:09:6f:84:df:ce:d1:69:cd:7f:ca:f7:
                    97:b6:e8:39:a9:d9:e9:c3:21:2f:47:3c:82:9c:f4:
                    0f:19:50:29:44:91:f9:24:d2:5e:dd:e6:4e:50:80:
                    75:7f:a2:86:89:1f:40:15:cb:a7:8f:5e:06:d1:9a:
                    f8:31:73:9c:de:52:48:51:c7:43:e1:af:38:be:fc:
                    dd:15:0f:9e:cc:9c:b0:64:66:fd:68:3b:e8:7b:5d:
                    7c:d7:f8:21:16:a5:b6:35:18:f2:7f:8d:d3:16:8e:
                    df:23:0f
                Exponent: 65537 (0x10001)
        X509v3 extensions:
            X509v3 Key Usage: critical
                Certificate Sign, CRL Sign
            X509v3 Basic Constraints: critical
                CA:TRUE
            X509v3 Subject Key Identifier: 
                E9:3A:A2:3D:7F:1E:99:46:11:51:5D:C8:54:CB:F2:A3:C9:82:48:27
            X509v3 Authority Key Identifier: 
                E9:3A:A2:3D:7F:1E:99:46:11:51:5D:C8:54:CB:F2:A3:C9:82:48:27
    Signature Algorithm: sha256WithRSAEncryption
    Signature Value:
        35:38:5d:00:f9:ae:b0:04:51:2d:f5:a2:bc:3a:dc:fc:38:be:
        fc:d6:7b:a3:07:ac:87:bf:97:fb:87:b0:d6:a5:4d:95:ca:db:
        c1:0e:34:bc:e6:eb:65:d6:ce:6e:d4:49:b8:41:4f:8f:af:ff:
        cd:1c:5f:66:f6:cd:bc:b0:33:2b:88:0f:d4:91:f2:58:fa:a3:
        c5:a9:0b:96:99:87:23:58:dc:73:ef:ae:99:bc:f5:70:4c:dd:
        43:c7:bf:21:9b:2c:d1:cc:53:0c:7d:e0:ce:6b:c7:4d:80:69:
        ee:9e:55:29:56:e2:9a:1a:83:34:c2:6c:fc:a8:b6:0c:11:51:
        f1:86:5b:b7:6e:1c:bd:11:2d:89:80:d3:8f:8b:19:4f:ff:5c:
        65:40:e0:ef:ef:f4:c1:1e:7b:8f:99:e5:72:be:77:ad:da:0f:
        cc:ba:35:99:e4:75:92:e7:b8:39:1c:8b:a4:24:3f:3f:85:be:
        23:12:0b:02:64:89:b6:54:22:af:ce:a0:d8:85:24:5f:8c:4c:
        65:60:36:9a:92:7b:de:ea:8f:df:7c:04:8f:05:ad:01:e4:9c:
        1b:d5:aa:d1:62:d3:c0:16:18:21:dd:58:f5:15:93:db:93:d7:
        c9:86:3e:74:aa:5d:bf:d7:ef:26:9f:83:ce:81:d1:45:11:1d:
        d7:b4:35:05:db:42:90:55:3d:c2:51:3d:a7:35:53:99:b6:6d:
        db:4d:31:30:3f:c1:df:9e:6a:34:cb:45:bd:32:c6:09:62:3a:
        db:a2:c0:25:be:c7:02:69:ea:df:22:ef:f0:e6:d4:29:92:bc:
        df:53:c3:25:2f:0c:85:41:a2:24:91:72:f3:ae:a8:20:a1:9b:
        91:3b:06:68:67:37:74:96:55:3d:ee:3b:72:7c:76:e1:78:9b:
        db:8c:58:cd:53:fc:99:d7:c4:c3:c5:29:84:c0:7d:79:3c:fb:
        60:56:c3:73:9a:1e:ac:5b:d7:55:03:5e:b9:a3:aa:55:1f:6e:
        4e:c3:1d:68:e7:30:0c:fb:da:5a:c1:3e:34:25:18:09:f1:d0:
        69:cc:f2:e3:2a:18:0e:52:c6:e3:a4:c7:87:18:cb:6e:e6:24:
        17:ed:fb:6f:52:f8:99:b9:b2:4d:92:5f:e6:38:ec:d3:f3:e2:
        64:f2:3a:26:eb:89:78:80:2d:fd:a7:01:29:33:8c:16:f6:5b:
        9f:41:f9:e0:c2:f2:09:d2:80:fa:95:1b:99:53:0f:d5:b1:51:
        43:a1:af:82:9a:60:59:de:2b:5b:bc:f7:8c:0b:c7:e2:66:2d:
        0b:a8:57:ff:77:7b:45:af:ad:ea:10:33:c5:c6:75:07:40:d7:
        da:75:44:4a:64:1f:72:ad
-----BEGIN CERTIFICATE-----
MIIF7TCCA9WgAwIBAgIUA6P0hwWp1Wlln6PpGJH/0b+uNx4wDQYJKoZIhvcNAQEL
BQAwfjESMBAGCgmSJomT8ixkARkWAmNhMRQwEgYKCZImiZPyLGQBGRYEbGFiNTEZ
MBcGA1UECgwQTGFiNSBEZXZPcHMgSW5jLjEUMBIGA1UECwwLd3d3LmxhYjUuY2Ex
ITAfBgNVBAMMGExhYjUgRGV2T3BzIEluYy4gUm9vdCBDQTAeFw0yNDAzMjkxMjM0
MzFaFw0zNDAzMjkxMjM0MzFaMH4xEjAQBgoJkiaJk/IsZAEZFgJjYTEUMBIGCgmS
JomT8ixkARkWBGxhYjUxGTAXBgNVBAoMEExhYjUgRGV2T3BzIEluYy4xFDASBgNV
BAsMC3d3dy5sYWI1LmNhMSEwHwYDVQQDDBhMYWI1IERldk9wcyBJbmMuIFJvb3Qg
Q0EwggIiMA0GCSqGSIb3DQEBAQUAA4ICDwAwggIKAoICAQDeZrfbsydR2zriN4IR
oClojxUXW5wAVPmkXtgaANzshXi9MAape8xDBlfqy6xCLcQ1lvC9pGDDmSHT+OH2
JDamM/BOOIGErxfy/n/keJ8c4lEPC7ZzZkgi0EIKjUVgQoMxdvvZtPmP3cb95olI
nc3Lm+ky8WYMQkNqLLK3nLRQQY1DPVLccsZs0P9WaIlgq1dhv73oEGDuAlEhdUYS
xdq4g+9zRCstsWjyivzuDAkdwgogFsp8nQZZ/EBos3VH+EH1Wpe6yVDcWooQQxwj
jO/5Oi+Kkl78pcdVXcVlyN2EEXrQKdKue/LDEdjyZ+KBhE24yqWn/DaG6a8+3Q4+
1/7koGWryzvwvJgRY7WPzJ6KiOodu0slNWfvwUgk5mYnvxP/UeuUPrhaYLFE8gR/
F+kFoLZ+Dj4z+5mtAe5BWveIRKFp5DXMOQ3xtQzsw6xC1umJEGqthCILdj9+2KPC
ZXfTUKkScoiSfjpf4KLt08NqBNKXE+8DlC+podtS06RaWMJYqjbZuNJsvq+DDgo7
GfZEIWQHf1UiPVMJb4TfztFpzX/K95e26Dmp2enDIS9HPIKc9A8ZUClEkfkk0l7d
5k5QgHV/ooaJH0AVy6ePXgbRmvgxc5zeUkhRx0Phrzi+/N0VD57MnLBkZv1oO+h7
XXzX+CEWpbY1GPJ/jdMWjt8jDwIDAQABo2MwYTAOBgNVHQ8BAf8EBAMCAQYwDwYD
VR0TAQH/BAUwAwEB/zAdBgNVHQ4EFgQU6TqiPX8emUYRUV3IVMvyo8mCSCcwHwYD
VR0jBBgwFoAU6TqiPX8emUYRUV3IVMvyo8mCSCcwDQYJKoZIhvcNAQELBQADggIB
ADU4XQD5rrAEUS31orw63Pw4vvzWe6MHrIe/l/uHsNalTZXK28EONLzm62XWzm7U
SbhBT4+v/80cX2b2zbywMyuID9SR8lj6o8WpC5aZhyNY3HPvrpm89XBM3UPHvyGb
LNHMUwx94M5rx02Aae6eVSlW4poagzTCbPyotgwRUfGGW7duHL0RLYmA04+LGU//
XGVA4O/v9MEee4+Z5XK+d63aD8y6NZnkdZLnuDkci6QkPz+FviMSCwJkibZUIq/O
oNiFJF+MTGVgNpqSe97qj998BI8FrQHknBvVqtFi08AWGCHdWPUVk9uT18mGPnSq
Xb/X7yafg86B0UURHde0NQXbQpBVPcJRPac1U5m2bdtNMTA/wd+eajTLRb0yxgli
OtuiwCW+xwJp6t8i7/Dm1CmSvN9TwyUvDIVBoiSRcvOuqCChm5E7BmhnN3SWVT3u
O3J8duF4m9uMWM1T/JnXxMPFKYTAfXk8+2BWw3OaHqxb11UDXrmjqlUfbk7DHWjn
MAz72lrBPjQlGAnx0GnM8uMqGA5SxuOkx4cYy27mJBft+29S+Jm5sk2SX+Y47NPz
4mTyOibriXiALf2nASkzjBb2W59B+eDC8gnSgPqVG5lTD9WxUUOhr4KaYFneK1u8
94wLx+JmLQuoV/93e0WvreoQM8XGdQdA19p1REpkH3Kt
-----END CERTIFICATE-----
