Certificate:
    Data:
        Version: 3 (0x2)
        Serial Number:
            04:dc:5e:d9:e9:3d:42:6e:5d:ea:b8:c0:4e:ea:a5:02:30:0d:54:89
        Signature Algorithm: sha256WithRSAEncryption
        Issuer: DC=ca, DC=lab5, O=Lab5 DevOps Inc., OU=www.lab5.ca, CN=Lab5 DevOps Inc. Root CA
        Validity
            Not Before: May 19 17:35:56 2024 GMT
            Not After : May 19 17:35:56 2034 GMT
        Subject: DC=ca, DC=lab5, O=Lab5 DevOps Inc., OU=www.lab5.ca, CN=Lab5 DevOps Inc. Issuing CA
        Subject Public Key Info:
            Public Key Algorithm: rsaEncryption
                Public-Key: (4096 bit)
                Modulus:
                    00:a4:e0:e6:c4:38:d1:b7:eb:24:02:ef:56:25:1f:
                    2b:cd:db:65:5d:c4:ff:8b:8e:76:50:9a:03:ae:32:
                    e8:27:94:94:09:7e:65:1a:b3:dc:e3:07:87:65:55:
                    bf:f9:40:66:9a:6e:a9:f2:bb:d8:e2:10:d3:3d:43:
                    df:62:96:77:a8:3d:84:2f:c6:dc:65:20:f7:77:7b:
                    aa:c9:0b:bb:31:ef:52:1b:83:e6:83:58:15:91:e1:
                    53:a1:93:f1:62:9b:d1:16:4e:e8:6a:6a:fd:02:4b:
                    75:c2:3d:f4:cf:79:2f:d7:3b:85:b2:8a:e3:8b:dc:
                    6b:fc:97:a5:b9:07:b6:79:84:ef:d2:d3:ef:26:30:
                    cd:77:d0:fc:c0:50:ed:56:d9:71:d5:5c:a6:8b:b4:
                    96:3a:59:cd:dc:fb:08:93:77:ef:42:33:49:5f:1d:
                    49:5e:43:48:2b:70:97:4c:aa:2f:41:45:7f:a8:03:
                    f2:29:17:ea:b0:ca:4a:14:fc:0d:7a:6a:16:ff:85:
                    a0:7f:30:c6:ef:de:36:f8:35:ac:45:39:d6:7c:ee:
                    df:67:64:b6:e5:5f:f1:00:46:cb:60:ec:dc:15:7f:
                    f6:07:97:03:49:93:c3:5e:b8:f0:43:ec:64:f6:ff:
                    f4:e2:a7:42:a0:38:94:93:9f:c4:39:ff:9d:4b:a3:
                    85:f3:70:ef:5a:87:7c:de:65:c2:ed:a3:e2:17:8d:
                    1b:49:4d:07:19:c4:e5:31:28:90:ef:d7:72:af:de:
                    be:0f:12:d8:39:53:8c:ad:98:d8:50:e6:17:ed:09:
                    24:6d:06:98:2f:fe:bb:4a:95:73:7d:29:a9:d6:7c:
                    f7:4d:47:00:9d:97:0b:65:59:8c:99:51:32:f6:92:
                    1b:30:b1:90:5d:21:2c:f4:47:7c:11:a4:90:1a:93:
                    1d:cd:c8:e8:df:d4:5e:24:e3:2e:30:53:cc:64:7c:
                    09:70:cc:f9:7a:9c:94:1f:de:dd:48:b1:9f:03:6e:
                    5f:f0:68:95:7a:51:63:e1:0c:1d:7a:02:90:3e:43:
                    f7:44:6f:a7:43:2e:72:ce:f3:19:b7:e2:fe:6c:1b:
                    37:b9:9d:0d:49:d3:44:35:ea:40:cf:d3:fe:2d:6d:
                    c3:99:65:cc:8e:60:21:bb:52:d9:0e:b2:9b:48:2d:
                    17:0e:10:62:f3:74:73:1e:8e:54:58:d3:06:7f:fb:
                    a7:3f:c3:33:02:b5:0f:0d:5c:77:c2:23:04:e6:18:
                    ab:a1:5e:99:8b:90:48:df:23:9e:f1:85:6c:16:a2:
                    54:af:1e:29:70:a4:b3:52:80:2f:75:bf:62:fb:40:
                    b7:1b:97:ee:fe:af:41:50:0e:eb:ad:c0:bf:9c:88:
                    d2:7d:b5
                Exponent: 65537 (0x10001)
        X509v3 extensions:
            X509v3 Key Usage: critical
                Certificate Sign, CRL Sign
            X509v3 Basic Constraints: critical
                CA:TRUE, pathlen:0
            X509v3 Subject Key Identifier: 
                4D:3D:92:D5:FE:45:D7:CB:D7:D7:5E:5A:65:52:69:EB:8D:56:D0:39
            X509v3 Authority Key Identifier: 
                6A:F1:1A:6E:C2:4D:B5:A0:BF:48:9E:C1:E1:B6:36:E1:C1:ED:17:89
    Signature Algorithm: sha256WithRSAEncryption
    Signature Value:
        c3:fc:a9:04:05:d7:13:e4:5e:d9:49:42:0d:6c:1b:e3:9d:53:
        5d:36:79:7b:05:d5:3b:18:ba:c0:af:62:33:df:6d:77:a6:f5:
        ee:b9:04:1a:cb:4c:c7:91:9d:b7:07:88:80:72:81:a6:ec:84:
        e3:a4:44:05:a6:ac:ef:0b:53:1c:71:75:56:b3:03:a9:ef:db:
        8c:a6:60:1a:b7:17:fa:90:7e:b3:03:00:56:e5:78:25:54:0c:
        b7:96:c4:85:14:e3:86:2b:0a:82:d0:6f:bd:69:cd:de:0e:51:
        9d:07:b5:3f:c4:c1:1d:c1:4e:e7:40:da:7c:65:b3:ba:1a:f4:
        d2:1c:60:77:03:df:94:4a:48:dd:60:15:72:a6:9e:ef:28:7a:
        78:50:90:6f:9a:76:53:a1:af:e3:20:0c:a1:eb:d8:1d:24:35:
        ba:a4:6b:87:ef:b1:87:50:2b:c9:fe:07:fe:e6:7a:5b:8d:a6:
        3a:2c:d6:fd:49:aa:67:c3:ed:d5:a9:0e:51:87:2c:bc:e6:b5:
        2b:16:2f:b8:49:a1:de:6e:d1:49:b7:b4:eb:e7:ea:45:46:6e:
        cb:fb:d0:b1:ba:62:77:23:2c:60:0e:18:d4:2b:00:52:27:f1:
        66:8f:a6:fd:07:04:6a:a2:d6:05:22:0f:1c:0f:b3:7d:09:e6:
        2e:e6:d3:5c:0b:2d:91:b2:d5:f9:34:dc:ab:66:6e:2e:c0:a8:
        f2:8e:e2:c5:e0:1c:63:08:e7:b8:54:37:76:72:0b:1e:4c:e2:
        79:50:0d:ee:f6:e3:e5:3d:7c:42:26:e5:02:7b:83:5e:55:05:
        e7:73:38:a6:28:31:6f:3a:55:01:62:2a:72:a3:4d:1b:0c:b8:
        c3:7f:2f:f4:77:1e:ec:7d:d9:e2:a4:68:72:f5:4f:92:c0:17:
        03:8e:93:32:c7:17:4f:1f:dc:22:ba:56:14:e6:5b:00:24:3d:
        f4:4a:91:75:c3:7f:c8:bd:00:2f:1d:99:a1:9b:25:91:44:db:
        45:cf:d3:e6:4b:da:50:59:11:cb:0e:9b:12:4c:19:4c:14:f4:
        0b:3a:ce:ac:01:31:de:23:f4:81:60:8d:f8:2c:9d:b0:38:b8:
        77:88:d1:bb:74:8a:bf:52:ed:b3:c8:23:b9:98:65:57:7e:e7:
        4c:67:d3:2b:8d:86:4a:81:b0:09:2b:d2:a0:9e:d6:4a:ed:f4:
        1a:cf:2a:ac:05:c2:66:91:05:89:9f:d2:6a:15:0d:0b:b8:54:
        92:be:20:14:7a:d8:dc:3c:70:90:ef:b9:00:5a:7f:d9:6e:a2:
        42:b4:b1:b0:17:ee:0f:9d:bd:69:7e:aa:3d:12:b6:0a:bb:ce:
        eb:d6:23:05:7e:2e:fc:83
-----BEGIN CERTIFICATE-----
MIIF9DCCA9ygAwIBAgIUBNxe2ek9Qm5d6rjATuqlAjANVIkwDQYJKoZIhvcNAQEL
BQAwfjESMBAGCgmSJomT8ixkARkWAmNhMRQwEgYKCZImiZPyLGQBGRYEbGFiNTEZ
MBcGA1UECgwQTGFiNSBEZXZPcHMgSW5jLjEUMBIGA1UECwwLd3d3LmxhYjUuY2Ex
ITAfBgNVBAMMGExhYjUgRGV2T3BzIEluYy4gUm9vdCBDQTAeFw0yNDA1MTkxNzM1
NTZaFw0zNDA1MTkxNzM1NTZaMIGBMRIwEAYKCZImiZPyLGQBGRYCY2ExFDASBgoJ
kiaJk/IsZAEZFgRsYWI1MRkwFwYDVQQKDBBMYWI1IERldk9wcyBJbmMuMRQwEgYD
VQQLDAt3d3cubGFiNS5jYTEkMCIGA1UEAwwbTGFiNSBEZXZPcHMgSW5jLiBJc3N1
aW5nIENBMIICIjANBgkqhkiG9w0BAQEFAAOCAg8AMIICCgKCAgEApODmxDjRt+sk
Au9WJR8rzdtlXcT/i452UJoDrjLoJ5SUCX5lGrPc4weHZVW/+UBmmm6p8rvY4hDT
PUPfYpZ3qD2EL8bcZSD3d3uqyQu7Me9SG4Pmg1gVkeFToZPxYpvRFk7oamr9Akt1
wj30z3kv1zuFsorji9xr/JeluQe2eYTv0tPvJjDNd9D8wFDtVtlx1Vymi7SWOlnN
3PsIk3fvQjNJXx1JXkNIK3CXTKovQUV/qAPyKRfqsMpKFPwNemoW/4WgfzDG7942
+DWsRTnWfO7fZ2S25V/xAEbLYOzcFX/2B5cDSZPDXrjwQ+xk9v/04qdCoDiUk5/E
Of+dS6OF83DvWod83mXC7aPiF40bSU0HGcTlMSiQ79dyr96+DxLYOVOMrZjYUOYX
7QkkbQaYL/67SpVzfSmp1nz3TUcAnZcLZVmMmVEy9pIbMLGQXSEs9Ed8EaSQGpMd
zcjo39ReJOMuMFPMZHwJcMz5epyUH97dSLGfA25f8GiVelFj4QwdegKQPkP3RG+n
Qy5yzvMZt+L+bBs3uZ0NSdNENepAz9P+LW3DmWXMjmAhu1LZDrKbSC0XDhBi83Rz
Ho5UWNMGf/unP8MzArUPDVx3wiME5hiroV6Zi5BI3yOe8YVsFqJUrx4pcKSzUoAv
db9i+0C3G5fu/q9BUA7rrcC/nIjSfbUCAwEAAaNmMGQwDgYDVR0PAQH/BAQDAgEG
MBIGA1UdEwEB/wQIMAYBAf8CAQAwHQYDVR0OBBYEFE09ktX+RdfL19deWmVSaeuN
VtA5MB8GA1UdIwQYMBaAFGrxGm7CTbWgv0ieweG2NuHB7ReJMA0GCSqGSIb3DQEB
CwUAA4ICAQDD/KkEBdcT5F7ZSUINbBvjnVNdNnl7BdU7GLrAr2Iz3213pvXuuQQa
y0zHkZ23B4iAcoGm7ITjpEQFpqzvC1MccXVWswOp79uMpmAatxf6kH6zAwBW5Xgl
VAy3lsSFFOOGKwqC0G+9ac3eDlGdB7U/xMEdwU7nQNp8ZbO6GvTSHGB3A9+USkjd
YBVypp7vKHp4UJBvmnZToa/jIAyh69gdJDW6pGuH77GHUCvJ/gf+5npbjaY6LNb9
Sapnw+3VqQ5Rhyy85rUrFi+4SaHebtFJt7Tr5+pFRm7L+9CxumJ3IyxgDhjUKwBS
J/Fmj6b9BwRqotYFIg8cD7N9CeYu5tNcCy2RstX5NNyrZm4uwKjyjuLF4BxjCOe4
VDd2cgseTOJ5UA3u9uPlPXxCJuUCe4NeVQXnczimKDFvOlUBYipyo00bDLjDfy/0
dx7sfdnipGhy9U+SwBcDjpMyxxdPH9wiulYU5lsAJD30SpF1w3/IvQAvHZmhmyWR
RNtFz9PmS9pQWRHLDpsSTBlMFPQLOs6sATHeI/SBYI34LJ2wOLh3iNG7dIq/Uu2z
yCO5mGVXfudMZ9MrjYZKgbAJK9KgntZK7fQazyqsBcJmkQWJn9JqFQ0LuFSSviAU
etjcPHCQ77kAWn/ZbqJCtLGwF+4Pnb1pfqo9ErYKu87r1iMFfi78gw==
-----END CERTIFICATE-----
