Certificate:
    Data:
        Version: 3 (0x2)
        Serial Number:
            06:9d:15:f7:3f:b5:2b:c5:3c:7e:c5:60:0a:a2:86:2b:8d:f2:45:4d
        Signature Algorithm: sha256WithRSAEncryption
        Issuer: DC=ca, DC=lab5, O=Lab5 DevOps Inc., OU=www.lab5.ca, CN=Lab5 DevOps Inc. Root CA
        Validity
            Not Before: May 21 14:41:11 2024 GMT
            Not After : May 21 14:41:11 2034 GMT
        Subject: DC=ca, DC=lab5, O=Lab5 DevOps Inc., OU=www.lab5.ca, CN=Lab5 DevOps Inc. Root CA
        Subject Public Key Info:
            Public Key Algorithm: rsaEncryption
                Public-Key: (4096 bit)
                Modulus:
                    00:c2:6f:fe:60:6d:0b:ce:d8:a2:16:67:73:08:9e:
                    34:3e:f1:8b:78:dd:ac:40:94:39:0a:73:4e:a5:6d:
                    3e:50:d1:0e:d2:f2:f3:50:fd:73:d9:42:17:d2:e7:
                    f9:af:7a:1d:e8:45:97:aa:2c:a7:41:28:56:55:e6:
                    3c:1f:cd:d2:9b:c9:94:5b:08:7a:df:2b:a4:4a:5a:
                    46:a9:e7:6f:64:c5:d1:00:a8:f1:0f:83:a8:1e:83:
                    74:a3:65:2b:29:e0:fc:6d:11:03:b5:ce:fd:cc:07:
                    35:c2:44:cf:b5:1e:c6:76:da:e1:6f:3a:bc:df:9b:
                    73:d5:c3:fa:76:ef:17:ab:eb:8f:85:a9:09:3d:8c:
                    a9:e9:fc:69:34:db:ff:e2:cf:35:87:f8:13:fb:98:
                    dc:21:e3:85:7a:88:53:61:29:2c:e5:36:b3:29:6d:
                    70:2a:0c:dd:97:82:76:3b:ce:1f:65:1f:19:b7:04:
                    36:7a:1e:5b:44:97:48:68:94:1d:54:72:d1:37:1c:
                    e3:27:b3:17:05:a4:02:12:59:8e:5a:09:8a:73:85:
                    d7:f9:08:c9:84:db:18:a0:9f:e6:86:39:a4:59:0c:
                    53:f5:a9:94:8c:d4:5a:c1:93:f9:35:11:b9:ba:db:
                    63:0b:84:9a:bd:7d:d3:bf:52:aa:15:27:38:95:e4:
                    aa:b4:ee:37:96:3e:21:8a:76:b0:3d:83:81:b4:79:
                    01:ac:68:d0:0e:20:0f:e2:23:c1:3f:ec:f5:fe:c0:
                    52:85:a6:f0:69:50:44:c0:d6:fb:cb:6b:30:99:bc:
                    5c:c8:d7:8f:95:4f:a5:35:41:2c:96:0c:8c:3d:63:
                    78:20:98:3c:40:a3:a4:33:57:81:04:d9:fd:f7:37:
                    6d:1f:84:47:55:8a:19:da:48:00:59:23:50:b5:79:
                    5f:33:46:e9:89:f5:17:93:38:8f:03:be:7b:8f:8c:
                    e4:83:5d:22:f7:79:0f:81:dd:e6:54:9f:9b:76:55:
                    3e:50:80:40:fe:a7:f9:f7:66:9c:cf:c8:fe:11:92:
                    75:ad:17:d8:3c:17:48:80:b5:49:13:6d:52:82:06:
                    46:53:4e:c4:e6:9a:31:c1:8e:b5:3f:fc:04:37:34:
                    c5:30:c4:e3:3a:bb:14:6b:78:8f:2d:bb:e2:c5:18:
                    57:49:0c:19:27:31:ce:e4:a7:55:8a:b6:8e:91:f3:
                    85:bd:b2:6e:b8:21:97:33:92:63:fc:85:da:74:ad:
                    7e:4c:ce:2e:78:ff:8a:af:b8:1c:dd:a2:53:a8:1e:
                    48:86:a3:70:24:51:25:9c:cf:62:45:96:45:7a:ee:
                    0f:95:5e:56:54:0e:fe:aa:e4:8e:17:8a:17:30:0d:
                    18:4c:43
                Exponent: 65537 (0x10001)
        X509v3 extensions:
            X509v3 Key Usage: critical
                Certificate Sign, CRL Sign
            X509v3 Basic Constraints: critical
                CA:TRUE
            X509v3 Subject Key Identifier: 
                16:D9:79:9C:0B:D3:43:1C:20:A0:B3:DA:4C:87:6E:B6:26:33:1F:59
            X509v3 Authority Key Identifier: 
                16:D9:79:9C:0B:D3:43:1C:20:A0:B3:DA:4C:87:6E:B6:26:33:1F:59
    Signature Algorithm: sha256WithRSAEncryption
    Signature Value:
        b8:55:80:a5:00:d3:8c:f5:ca:c2:57:7e:78:49:44:72:23:7f:
        57:2d:d8:dd:e2:22:9a:fa:83:14:e1:65:4b:2a:d4:85:79:ea:
        95:f0:79:e2:40:45:93:8b:80:d9:f2:e3:7a:ab:81:02:3c:53:
        c4:95:c7:44:85:df:d0:53:76:a3:90:39:2c:2b:69:4a:b6:10:
        23:9b:77:5b:b1:c7:d4:80:1d:75:21:f6:a4:b0:c5:fd:d7:de:
        28:ec:26:c6:e3:bd:f3:71:a3:f9:01:5e:78:83:a0:43:c7:c4:
        f6:2d:35:4d:61:1a:96:35:a5:9f:07:6e:98:5d:94:64:61:9b:
        c4:79:0a:63:6c:45:e4:92:e1:6f:bd:a1:8d:99:cf:07:a2:06:
        10:ca:1c:fe:70:b9:73:44:80:ab:96:50:66:06:07:a7:4f:d3:
        ba:bd:02:b4:83:54:be:4f:49:fd:79:69:70:d0:3b:cd:94:f6:
        9e:9f:74:be:e2:d0:84:c0:e0:ba:89:27:fe:cf:62:31:93:94:
        a6:fd:d6:2f:71:35:4d:40:21:c3:0c:29:0d:ea:55:da:52:cd:
        bb:26:06:c3:13:06:fa:bf:6c:d5:4c:6a:d6:b3:e7:66:56:df:
        50:5b:7d:07:6a:86:85:7f:ad:f7:f1:d1:14:9f:6c:12:de:9d:
        a2:66:a4:30:ab:bf:a6:96:38:62:fb:42:9b:41:41:b7:af:bc:
        c0:6d:70:4e:5a:7e:3e:be:1e:59:32:9e:1e:fb:d3:72:4e:8c:
        37:b4:5c:87:db:a7:a7:19:9b:2b:f1:f3:0e:b6:39:36:74:35:
        e7:fe:ac:be:43:ef:bd:66:0a:e8:67:95:94:1e:31:6d:a1:35:
        d3:2e:4c:11:f2:f3:84:a1:c0:de:b5:81:9c:a4:61:ec:59:5f:
        4d:23:82:71:77:73:24:9e:db:fc:3a:7e:6b:4b:e8:e1:73:67:
        ef:5f:5e:70:bf:53:11:5f:13:b4:e2:78:13:76:09:3a:4a:85:
        d4:1b:04:5a:6b:4e:1c:0e:24:85:1a:d6:5d:d3:02:47:c9:cf:
        5f:a2:80:80:7c:67:08:bb:94:38:77:a9:08:dc:92:bf:48:7f:
        0b:2e:dc:d8:4f:6d:d1:4e:42:8e:a9:ea:58:f3:5e:f9:85:69:
        fb:59:92:53:c2:18:aa:3d:9a:26:43:54:e6:0a:09:31:6a:eb:
        5d:52:86:e2:6f:71:43:85:67:3b:3f:78:f2:34:ff:19:33:1a:
        14:a6:11:f8:ac:e0:b4:3e:a3:36:d9:e6:97:34:a3:5d:02:ec:
        cc:6d:06:95:dc:ea:c7:6a:5f:18:43:87:c6:cc:86:3a:2b:51:
        e3:c0:09:83:ed:2e:82:cb
-----BEGIN CERTIFICATE-----
MIIF7TCCA9WgAwIBAgIUBp0V9z+1K8U8fsVgCqKGK43yRU0wDQYJKoZIhvcNAQEL
BQAwfjESMBAGCgmSJomT8ixkARkWAmNhMRQwEgYKCZImiZPyLGQBGRYEbGFiNTEZ
MBcGA1UECgwQTGFiNSBEZXZPcHMgSW5jLjEUMBIGA1UECwwLd3d3LmxhYjUuY2Ex
ITAfBgNVBAMMGExhYjUgRGV2T3BzIEluYy4gUm9vdCBDQTAeFw0yNDA1MjExNDQx
MTFaFw0zNDA1MjExNDQxMTFaMH4xEjAQBgoJkiaJk/IsZAEZFgJjYTEUMBIGCgmS
JomT8ixkARkWBGxhYjUxGTAXBgNVBAoMEExhYjUgRGV2T3BzIEluYy4xFDASBgNV
BAsMC3d3dy5sYWI1LmNhMSEwHwYDVQQDDBhMYWI1IERldk9wcyBJbmMuIFJvb3Qg
Q0EwggIiMA0GCSqGSIb3DQEBAQUAA4ICDwAwggIKAoICAQDCb/5gbQvO2KIWZ3MI
njQ+8Yt43axAlDkKc06lbT5Q0Q7S8vNQ/XPZQhfS5/mveh3oRZeqLKdBKFZV5jwf
zdKbyZRbCHrfK6RKWkap529kxdEAqPEPg6geg3SjZSsp4PxtEQO1zv3MBzXCRM+1
HsZ22uFvOrzfm3PVw/p27xer64+FqQk9jKnp/Gk02//izzWH+BP7mNwh44V6iFNh
KSzlNrMpbXAqDN2XgnY7zh9lHxm3BDZ6HltEl0holB1UctE3HOMnsxcFpAISWY5a
CYpzhdf5CMmE2xign+aGOaRZDFP1qZSM1FrBk/k1Ebm622MLhJq9fdO/UqoVJziV
5Kq07jeWPiGKdrA9g4G0eQGsaNAOIA/iI8E/7PX+wFKFpvBpUETA1vvLazCZvFzI
14+VT6U1QSyWDIw9Y3ggmDxAo6QzV4EE2f33N20fhEdVihnaSABZI1C1eV8zRumJ
9ReTOI8DvnuPjOSDXSL3eQ+B3eZUn5t2VT5QgED+p/n3ZpzPyP4RknWtF9g8F0iA
tUkTbVKCBkZTTsTmmjHBjrU//AQ3NMUwxOM6uxRreI8tu+LFGFdJDBknMc7kp1WK
to6R84W9sm64IZczkmP8hdp0rX5Mzi54/4qvuBzdolOoHkiGo3AkUSWcz2JFlkV6
7g+VXlZUDv6q5I4XihcwDRhMQwIDAQABo2MwYTAOBgNVHQ8BAf8EBAMCAQYwDwYD
VR0TAQH/BAUwAwEB/zAdBgNVHQ4EFgQUFtl5nAvTQxwgoLPaTIdutiYzH1kwHwYD
VR0jBBgwFoAUFtl5nAvTQxwgoLPaTIdutiYzH1kwDQYJKoZIhvcNAQELBQADggIB
ALhVgKUA04z1ysJXfnhJRHIjf1ct2N3iIpr6gxThZUsq1IV56pXweeJARZOLgNny
43qrgQI8U8SVx0SF39BTdqOQOSwraUq2ECObd1uxx9SAHXUh9qSwxf3X3ijsJsbj
vfNxo/kBXniDoEPHxPYtNU1hGpY1pZ8HbphdlGRhm8R5CmNsReSS4W+9oY2Zzwei
BhDKHP5wuXNEgKuWUGYGB6dP07q9ArSDVL5PSf15aXDQO82U9p6fdL7i0ITA4LqJ
J/7PYjGTlKb91i9xNU1AIcMMKQ3qVdpSzbsmBsMTBvq/bNVMataz52ZW31BbfQdq
hoV/rffx0RSfbBLenaJmpDCrv6aWOGL7QptBQbevvMBtcE5afj6+Hlkynh7703JO
jDe0XIfbp6cZmyvx8w62OTZ0Nef+rL5D771mCuhnlZQeMW2hNdMuTBHy84ShwN61
gZykYexZX00jgnF3cySe2/w6fmtL6OFzZ+9fXnC/UxFfE7TieBN2CTpKhdQbBFpr
ThwOJIUa1l3TAkfJz1+igIB8Zwi7lDh3qQjckr9Ifwsu3NhPbdFOQo6p6ljzXvmF
aftZklPCGKo9miZDVOYKCTFq611ShuJvcUOFZzs/ePI0/xkzGhSmEfis4LQ+ozbZ
5pc0o10C7MxtBpXc6sdqXxhDh8bMhjorUePACYPtLoLL
-----END CERTIFICATE-----
