Certificate:
    Data:
        Version: 3 (0x2)
        Serial Number:
            0a:c7:1b:19:c4:b5:ed:24:5a:b6:36:30:81:f0:ee:78:04:4d:69:a8
        Signature Algorithm: sha256WithRSAEncryption
        Issuer: DC=ca, DC=lab5, O=Lab5 DevOps Inc., OU=www.lab5.ca, CN=Lab5 DevOps Inc. Root CA
        Validity
            Not Before: Mar 29 12:16:51 2024 GMT
            Not After : Mar 29 12:16:51 2034 GMT
        Subject: DC=ca, DC=lab5, O=Lab5 DevOps Inc., OU=www.lab5.ca, CN=Lab5 DevOps Inc. Root CA
        Subject Public Key Info:
            Public Key Algorithm: rsaEncryption
                Public-Key: (4096 bit)
                Modulus:
                    00:f1:3e:2f:5c:75:5d:5e:1d:f9:00:36:c4:2e:fe:
                    30:61:14:cf:f4:5e:98:d3:4c:81:a1:0d:b5:81:f2:
                    31:22:28:32:7e:ba:8a:c7:9d:2d:d9:13:52:d4:15:
                    1c:4c:5b:0b:e1:00:90:ce:e0:2b:e0:53:c6:0d:83:
                    67:d6:fe:59:20:45:ee:e9:d8:19:c4:5c:45:42:23:
                    3f:00:92:97:55:00:c8:c9:fe:df:40:38:7d:4d:ac:
                    99:9b:df:c1:5c:d4:f5:d8:65:00:f1:1b:df:b8:69:
                    74:5e:02:71:c4:cf:d0:e3:e0:64:8f:2f:b3:f7:3f:
                    d5:25:db:7a:06:c2:7b:57:84:eb:2c:a8:c5:9d:48:
                    c1:fb:21:69:40:14:b2:09:8a:b4:66:53:c3:51:04:
                    d8:1a:52:f4:96:76:18:f3:f9:89:3b:0d:c8:d4:c1:
                    bb:33:54:80:36:ff:5e:37:35:a4:da:e4:48:4b:c1:
                    76:95:33:c0:30:98:60:1c:71:5b:80:ac:99:17:54:
                    25:c4:7f:89:b2:c1:63:4f:8b:ea:67:a8:1d:7e:27:
                    df:2d:88:30:e4:99:94:70:88:a1:40:8e:c4:40:41:
                    09:a5:b0:62:3b:78:28:24:17:18:23:93:e3:dd:2b:
                    31:f1:90:36:90:dd:56:22:ee:41:72:92:98:03:fe:
                    a2:fa:10:b7:a6:64:5b:21:cd:5e:36:42:9d:10:7a:
                    ad:6f:bf:e5:64:17:d5:7f:34:7d:8c:49:e3:c6:91:
                    18:ec:4a:ac:f0:37:7f:5a:c7:86:ee:4e:b4:31:3c:
                    bb:3f:fa:c2:f7:8d:95:3f:68:c0:4f:ee:41:3c:d3:
                    64:e1:47:85:dc:17:fd:b9:91:f6:57:62:d4:bb:c2:
                    c7:46:97:dd:85:7d:d6:9b:22:6d:aa:2c:d9:06:29:
                    f4:63:f0:cd:c0:6e:f1:4a:46:65:9a:d3:a2:79:d9:
                    b0:04:37:7f:11:82:2b:50:bc:9a:ef:c2:2e:b8:d9:
                    ba:d2:21:4a:0d:54:61:78:7d:b3:4b:b0:de:b5:46:
                    39:b1:63:11:10:37:2a:4e:76:b6:ad:1d:fa:ae:8b:
                    88:0c:31:35:75:4c:a6:a5:55:7a:49:c0:52:8e:ac:
                    91:de:dc:da:b7:9a:57:12:51:9a:8e:6e:19:62:bd:
                    46:40:2c:93:e1:b5:2d:c5:14:4e:1a:3d:58:e0:fc:
                    f3:98:7b:cd:94:63:0d:5c:3d:35:b8:ea:72:29:51:
                    55:cb:21:06:c2:db:fb:d0:b4:25:9c:5e:8d:c3:52:
                    ff:d1:ec:73:23:57:be:2b:a3:ed:60:e3:2a:b5:d0:
                    a4:6f:f3:7d:4d:ab:cd:62:54:e6:a5:47:46:9b:a5:
                    ec:f8:77
                Exponent: 65537 (0x10001)
        X509v3 extensions:
            X509v3 Key Usage: critical
                Certificate Sign, CRL Sign
            X509v3 Basic Constraints: critical
                CA:TRUE
            X509v3 Subject Key Identifier: 
                7F:B2:E0:AD:AB:01:1B:61:5E:FF:AE:48:7D:45:9F:38:A5:4C:02:26
            X509v3 Authority Key Identifier: 
                7F:B2:E0:AD:AB:01:1B:61:5E:FF:AE:48:7D:45:9F:38:A5:4C:02:26
    Signature Algorithm: sha256WithRSAEncryption
    Signature Value:
        c1:63:49:05:bb:bc:be:9b:5f:0a:c5:3e:fb:a8:00:3c:fa:8d:
        59:58:bc:95:ab:8b:69:5b:09:ac:99:fb:5e:f6:65:63:0f:56:
        5e:8c:08:d2:c0:67:44:41:6c:a4:dc:5b:64:a6:34:a7:28:9f:
        7c:c4:3f:09:26:7a:54:09:fc:97:50:01:5a:50:61:8b:5d:9c:
        b6:f5:42:a3:d3:d1:77:b4:38:46:7d:1c:7f:e6:63:9c:59:54:
        fd:4c:4f:f5:e6:04:e8:83:a7:bd:6a:ce:04:1f:80:8c:f3:e3:
        2b:c6:18:35:15:50:18:97:8c:a6:d5:36:29:83:ec:8b:74:e6:
        58:78:6a:cf:62:67:e9:ca:9d:b7:a6:14:63:08:dd:88:55:dc:
        63:81:f9:e6:37:ac:45:c9:a2:b0:24:a4:af:d1:04:14:fb:2b:
        2e:08:13:f2:59:75:a9:4d:ef:3e:5a:2d:e9:ab:f7:f5:0a:f2:
        a0:a0:c8:80:d3:1b:1d:26:50:0d:90:d9:f5:6d:5f:0e:cf:2f:
        ca:42:ec:89:3e:74:58:95:23:44:08:8b:05:70:d7:83:2d:c5:
        87:b3:a1:a9:55:d3:d3:e9:2a:13:a6:4a:bd:ed:92:74:3d:8d:
        af:57:59:2f:5c:6f:87:0e:ed:ac:b5:16:ab:33:39:70:0a:37:
        e9:c3:b0:93:0f:b7:4f:33:96:28:5d:31:3d:17:87:15:76:d0:
        e5:12:a8:b6:02:6e:32:f0:a6:ef:8d:40:96:e1:fe:03:bc:b6:
        7e:70:99:59:02:09:c3:f6:fb:5b:fc:0d:6d:b9:a1:a0:5e:cc:
        91:db:ce:d1:2f:5a:d2:ac:9d:33:4f:f2:62:3a:07:62:53:82:
        ec:23:10:43:d4:76:30:27:92:b3:70:c5:7e:49:de:4a:5d:68:
        49:7b:19:df:47:94:29:98:58:65:d2:ef:7e:e1:60:05:b8:1a:
        d5:8a:32:61:32:17:14:c8:12:12:15:80:da:b8:4e:fc:8e:df:
        68:f5:76:ac:04:57:d7:6b:c0:6d:b1:4b:d9:98:8b:68:8d:28:
        f4:09:13:ee:fa:18:bd:4d:3c:4f:aa:b1:19:ac:f5:9f:05:e4:
        55:36:d8:94:fb:1c:e9:51:e4:d3:5c:b9:df:30:5c:b1:9b:e9:
        cb:61:38:c9:78:42:19:3f:cf:3f:97:f8:f6:ac:ca:3d:5e:ea:
        23:bf:f8:e4:4d:10:76:5b:b4:a1:4a:41:17:36:7d:69:3b:1c:
        83:b8:91:04:7a:d5:c0:35:df:ae:9d:27:b7:e8:17:73:a6:6c:
        d9:29:36:cd:86:47:65:da:aa:c8:14:8b:0c:7d:2a:dd:b6:74:
        40:30:3a:9e:19:52:59:da
-----BEGIN CERTIFICATE-----
MIIF7TCCA9WgAwIBAgIUCscbGcS17SRatjYwgfDueARNaagwDQYJKoZIhvcNAQEL
BQAwfjESMBAGCgmSJomT8ixkARkWAmNhMRQwEgYKCZImiZPyLGQBGRYEbGFiNTEZ
MBcGA1UECgwQTGFiNSBEZXZPcHMgSW5jLjEUMBIGA1UECwwLd3d3LmxhYjUuY2Ex
ITAfBgNVBAMMGExhYjUgRGV2T3BzIEluYy4gUm9vdCBDQTAeFw0yNDAzMjkxMjE2
NTFaFw0zNDAzMjkxMjE2NTFaMH4xEjAQBgoJkiaJk/IsZAEZFgJjYTEUMBIGCgmS
JomT8ixkARkWBGxhYjUxGTAXBgNVBAoMEExhYjUgRGV2T3BzIEluYy4xFDASBgNV
BAsMC3d3dy5sYWI1LmNhMSEwHwYDVQQDDBhMYWI1IERldk9wcyBJbmMuIFJvb3Qg
Q0EwggIiMA0GCSqGSIb3DQEBAQUAA4ICDwAwggIKAoICAQDxPi9cdV1eHfkANsQu
/jBhFM/0XpjTTIGhDbWB8jEiKDJ+uorHnS3ZE1LUFRxMWwvhAJDO4CvgU8YNg2fW
/lkgRe7p2BnEXEVCIz8AkpdVAMjJ/t9AOH1NrJmb38Fc1PXYZQDxG9+4aXReAnHE
z9Dj4GSPL7P3P9Ul23oGwntXhOssqMWdSMH7IWlAFLIJirRmU8NRBNgaUvSWdhjz
+Yk7DcjUwbszVIA2/143NaTa5EhLwXaVM8AwmGAccVuArJkXVCXEf4mywWNPi+pn
qB1+J98tiDDkmZRwiKFAjsRAQQmlsGI7eCgkFxgjk+PdKzHxkDaQ3VYi7kFykpgD
/qL6ELemZFshzV42Qp0Qeq1vv+VkF9V/NH2MSePGkRjsSqzwN39ax4buTrQxPLs/
+sL3jZU/aMBP7kE802ThR4XcF/25kfZXYtS7wsdGl92FfdabIm2qLNkGKfRj8M3A
bvFKRmWa06J52bAEN38RgitQvJrvwi642brSIUoNVGF4fbNLsN61RjmxYxEQNypO
dratHfqui4gMMTV1TKalVXpJwFKOrJHe3Nq3mlcSUZqObhlivUZALJPhtS3FFE4a
PVjg/POYe82UYw1cPTW46nIpUVXLIQbC2/vQtCWcXo3DUv/R7HMjV74ro+1g4yq1
0KRv831Nq81iVOalR0abpez4dwIDAQABo2MwYTAOBgNVHQ8BAf8EBAMCAQYwDwYD
VR0TAQH/BAUwAwEB/zAdBgNVHQ4EFgQUf7LgrasBG2Fe/65IfUWfOKVMAiYwHwYD
VR0jBBgwFoAUf7LgrasBG2Fe/65IfUWfOKVMAiYwDQYJKoZIhvcNAQELBQADggIB
AMFjSQW7vL6bXwrFPvuoADz6jVlYvJWri2lbCayZ+172ZWMPVl6MCNLAZ0RBbKTc
W2SmNKcon3zEPwkmelQJ/JdQAVpQYYtdnLb1QqPT0Xe0OEZ9HH/mY5xZVP1MT/Xm
BOiDp71qzgQfgIzz4yvGGDUVUBiXjKbVNimD7It05lh4as9iZ+nKnbemFGMI3YhV
3GOB+eY3rEXJorAkpK/RBBT7Ky4IE/JZdalN7z5aLemr9/UK8qCgyIDTGx0mUA2Q
2fVtXw7PL8pC7Ik+dFiVI0QIiwVw14MtxYezoalV09PpKhOmSr3tknQ9ja9XWS9c
b4cO7ay1FqszOXAKN+nDsJMPt08zlihdMT0XhxV20OUSqLYCbjLwpu+NQJbh/gO8
tn5wmVkCCcP2+1v8DW25oaBezJHbztEvWtKsnTNP8mI6B2JTguwjEEPUdjAnkrNw
xX5J3kpdaEl7Gd9HlCmYWGXS737hYAW4GtWKMmEyFxTIEhIVgNq4TvyO32j1dqwE
V9drwG2xS9mYi2iNKPQJE+76GL1NPE+qsRms9Z8F5FU22JT7HOlR5NNcud8wXLGb
6cthOMl4Qhk/zz+X+Pasyj1e6iO/+ORNEHZbtKFKQRc2fWk7HIO4kQR61cA1366d
J7foF3OmbNkpNs2GR2XaqsgUiwx9Kt22dEAwOp4ZUlna
-----END CERTIFICATE-----
