Certificate:
    Data:
        Version: 3 (0x2)
        Serial Number:
            0b:34:52:1b:db:73:d7:cc:c2:2d:b2:60:1a:bb:43:7c:b8:da:66:83
        Signature Algorithm: sha256WithRSAEncryption
        Issuer: DC=ca, DC=lab5, O=Lab5 DevOps Inc., OU=www.lab5.ca, CN=Lab5 DevOps Inc. Root CA
        Validity
            Not Before: May 21 15:46:47 2024 GMT
            Not After : May 21 15:46:47 2034 GMT
        Subject: DC=ca, DC=lab5, O=Lab5 DevOps Inc., OU=www.lab5.ca, CN=Lab5 DevOps Inc. Issuing CA
        Subject Public Key Info:
            Public Key Algorithm: rsaEncryption
                Public-Key: (4096 bit)
                Modulus:
                    00:96:0a:aa:f6:8e:7c:1e:cf:4a:b8:05:c0:a5:64:
                    ad:8a:97:c4:59:a8:f8:2b:c6:8a:f7:b9:56:c1:28:
                    b9:65:ed:1f:88:4a:bf:45:3a:bb:09:b2:0e:ee:82:
                    68:a6:df:6a:b3:7c:7a:1e:df:d7:5a:27:a1:17:f7:
                    2d:48:8a:fc:1c:bf:23:5c:39:94:cf:9c:94:39:69:
                    56:56:55:3a:39:1f:0b:85:fd:74:9e:79:23:32:83:
                    01:2a:7c:53:5b:5b:d8:69:7a:da:c0:8a:eb:5c:1a:
                    51:b5:68:1f:16:6c:ca:22:46:23:1e:e5:6b:c5:b0:
                    cf:53:c3:dc:d3:32:e1:ff:31:bc:4d:92:73:b9:ea:
                    72:5c:dc:79:91:89:ac:37:1f:f6:27:51:d2:e8:30:
                    6d:23:6a:1e:bb:95:c9:7f:de:99:af:1c:bc:c5:e5:
                    6f:11:9b:a3:20:2f:12:87:16:0d:b8:65:f7:43:df:
                    39:28:b5:df:a4:3f:0d:99:ca:3d:2c:89:f0:f5:e8:
                    3c:b3:04:c0:a2:69:49:84:5c:ea:6b:23:ae:c2:de:
                    b8:5a:0c:69:63:14:c7:a7:57:ad:9a:1d:d3:93:16:
                    7c:7d:29:8a:ac:09:d8:11:ed:1d:74:fc:62:08:fc:
                    fd:55:5d:87:85:85:f0:de:3a:a8:06:6d:a0:bd:33:
                    1b:ef:5f:38:6e:f1:fc:99:ff:49:db:7b:76:eb:83:
                    77:2d:96:85:5e:3c:78:0f:14:ec:15:ac:26:23:2f:
                    8d:f2:86:d8:55:0f:95:d6:da:50:47:39:53:8f:71:
                    ec:03:49:bc:0b:d3:a4:48:03:16:59:30:f0:2a:88:
                    48:1a:58:dc:7b:b5:f5:18:ed:aa:b3:a7:6f:42:e3:
                    ef:f7:3e:16:79:18:3a:e4:67:83:24:4c:4f:eb:a7:
                    09:4d:f7:4a:94:1c:fa:fb:33:7f:1c:31:1d:77:67:
                    00:77:36:7a:2c:bb:44:d3:42:3f:49:c5:af:9b:46:
                    b8:29:60:75:a3:f1:f6:b9:86:d8:ca:50:d1:6a:05:
                    49:0f:71:a1:65:54:2a:53:a7:03:11:1d:8a:f6:0d:
                    c0:ce:d4:b9:f0:84:98:33:2f:17:85:1c:3c:b7:09:
                    34:ab:5e:1a:2c:7b:6f:cd:f2:ba:07:a7:e7:90:59:
                    35:44:9e:94:46:7f:19:58:d1:e6:14:f1:85:a8:6e:
                    e5:cd:36:79:41:df:b9:7e:13:51:37:77:4f:e7:81:
                    0b:3a:16:f6:03:78:1b:c2:c4:d6:ee:eb:4a:8f:6b:
                    01:e4:dd:e0:b8:b8:17:52:41:16:28:58:d1:de:5c:
                    29:e4:99:e9:e4:22:79:43:21:8a:25:91:b6:87:c6:
                    81:01:21
                Exponent: 65537 (0x10001)
        X509v3 extensions:
            X509v3 Key Usage: critical
                Certificate Sign, CRL Sign
            X509v3 Basic Constraints: critical
                CA:TRUE, pathlen:0
            X509v3 Subject Key Identifier: 
                EB:68:5E:12:38:6A:B1:E9:BA:1B:28:60:23:DE:EB:15:DF:67:64:AD
            X509v3 Authority Key Identifier: 
                14:85:0B:05:4E:AA:4D:0A:40:FA:61:A5:1E:84:3D:F2:8D:C5:88:E6
    Signature Algorithm: sha256WithRSAEncryption
    Signature Value:
        61:55:e4:10:04:f5:1d:bc:9d:cc:ee:ca:12:d8:a4:f4:67:b0:
        36:86:17:f8:bc:b5:01:f3:0d:fc:93:42:17:89:9e:34:96:db:
        49:3a:a3:ab:8d:51:f8:11:5f:a0:aa:94:a3:1b:9b:af:75:25:
        86:8e:aa:dd:ba:ba:4e:55:a2:64:57:de:72:41:ac:64:86:ce:
        02:ac:06:4d:84:c6:29:ad:a8:49:b8:f2:bb:29:1e:03:0f:c0:
        f4:07:5f:db:7b:76:9d:be:b5:6a:fb:8d:31:09:c6:27:98:e3:
        f0:41:75:5e:c6:c0:09:0f:40:c6:04:8c:70:de:2f:55:f5:12:
        70:60:6d:a4:ea:71:e7:3c:81:dd:a9:c1:e9:25:98:92:1d:52:
        bd:a6:82:29:5b:fe:68:ca:05:08:3c:ed:5c:1a:0a:91:2f:dd:
        c8:c5:c2:82:da:56:da:7e:1f:7c:e5:b8:86:ca:9c:cc:99:c8:
        cd:22:70:08:5d:e7:89:e6:b9:c7:d3:d0:4b:bf:5d:6a:5c:e6:
        21:55:7e:9b:05:55:a4:6f:b5:12:ab:41:15:f0:a1:37:50:3e:
        82:e4:b7:28:11:ac:66:5a:44:7b:5a:ce:67:4d:d8:00:0f:f2:
        42:e6:d2:55:f5:5f:44:a1:eb:9a:cd:71:a3:ff:98:15:cc:24:
        ab:65:9c:f8:21:b7:e5:9f:6b:ed:97:51:ea:8b:dc:d8:c1:25:
        1e:ac:14:3d:60:c6:36:d8:cc:af:f7:2e:ea:9b:34:01:18:72:
        b2:47:2a:33:43:11:35:62:ec:33:1d:4b:ef:f2:18:33:5b:81:
        c2:85:81:af:50:0b:3c:13:fe:73:40:8f:36:cd:cd:8b:3c:b8:
        42:0c:ab:a9:d5:ce:71:38:61:99:00:b2:2b:ee:3c:38:c3:57:
        fc:a9:87:57:19:38:09:f4:7b:93:08:cd:ac:0b:2d:76:24:1e:
        33:41:3a:e6:55:6e:21:cc:aa:04:a3:3c:0a:84:6c:8f:73:76:
        0d:0f:66:21:c3:91:5e:05:c2:40:ff:01:76:b7:95:5a:81:86:
        80:51:38:13:c5:49:bf:ee:7a:a4:d2:a5:7a:45:bb:ef:bc:0f:
        f8:e3:95:85:54:76:4a:28:c8:22:ac:65:22:01:b5:3c:95:ea:
        e0:7e:9e:18:18:21:22:d7:cf:9c:d3:4e:17:54:97:8e:9c:aa:
        2c:41:36:81:0d:7b:d5:ff:7e:68:7d:cc:28:e2:21:ec:57:4b:
        10:d4:be:63:c0:65:6e:db:7c:66:2d:d9:fd:14:8e:e8:5f:48:
        c2:fe:b8:97:21:91:5a:fe:c0:92:27:2c:4c:7d:f5:0e:00:d2:
        c6:e8:86:4f:5c:5f:48:0e
-----BEGIN CERTIFICATE-----
MIIF9DCCA9ygAwIBAgIUCzRSG9tz18zCLbJgGrtDfLjaZoMwDQYJKoZIhvcNAQEL
BQAwfjESMBAGCgmSJomT8ixkARkWAmNhMRQwEgYKCZImiZPyLGQBGRYEbGFiNTEZ
MBcGA1UECgwQTGFiNSBEZXZPcHMgSW5jLjEUMBIGA1UECwwLd3d3LmxhYjUuY2Ex
ITAfBgNVBAMMGExhYjUgRGV2T3BzIEluYy4gUm9vdCBDQTAeFw0yNDA1MjExNTQ2
NDdaFw0zNDA1MjExNTQ2NDdaMIGBMRIwEAYKCZImiZPyLGQBGRYCY2ExFDASBgoJ
kiaJk/IsZAEZFgRsYWI1MRkwFwYDVQQKDBBMYWI1IERldk9wcyBJbmMuMRQwEgYD
VQQLDAt3d3cubGFiNS5jYTEkMCIGA1UEAwwbTGFiNSBEZXZPcHMgSW5jLiBJc3N1
aW5nIENBMIICIjANBgkqhkiG9w0BAQEFAAOCAg8AMIICCgKCAgEAlgqq9o58Hs9K
uAXApWStipfEWaj4K8aK97lWwSi5Ze0fiEq/RTq7CbIO7oJopt9qs3x6Ht/XWieh
F/ctSIr8HL8jXDmUz5yUOWlWVlU6OR8Lhf10nnkjMoMBKnxTW1vYaXrawIrrXBpR
tWgfFmzKIkYjHuVrxbDPU8Pc0zLh/zG8TZJzuepyXNx5kYmsNx/2J1HS6DBtI2oe
u5XJf96Zrxy8xeVvEZujIC8ShxYNuGX3Q985KLXfpD8Nmco9LInw9eg8swTAomlJ
hFzqayOuwt64WgxpYxTHp1etmh3TkxZ8fSmKrAnYEe0ddPxiCPz9VV2HhYXw3jqo
Bm2gvTMb7184bvH8mf9J23t264N3LZaFXjx4DxTsFawmIy+N8obYVQ+V1tpQRzlT
j3HsA0m8C9OkSAMWWTDwKohIGljce7X1GO2qs6dvQuPv9z4WeRg65GeDJExP66cJ
TfdKlBz6+zN/HDEdd2cAdzZ6LLtE00I/ScWvm0a4KWB1o/H2uYbYylDRagVJD3Gh
ZVQqU6cDER2K9g3AztS58ISYMy8XhRw8twk0q14aLHtvzfK6B6fnkFk1RJ6URn8Z
WNHmFPGFqG7lzTZ5Qd+5fhNRN3dP54ELOhb2A3gbwsTW7utKj2sB5N3guLgXUkEW
KFjR3lwp5Jnp5CJ5QyGKJZG2h8aBASECAwEAAaNmMGQwDgYDVR0PAQH/BAQDAgEG
MBIGA1UdEwEB/wQIMAYBAf8CAQAwHQYDVR0OBBYEFOtoXhI4arHpuhsoYCPe6xXf
Z2StMB8GA1UdIwQYMBaAFBSFCwVOqk0KQPphpR6EPfKNxYjmMA0GCSqGSIb3DQEB
CwUAA4ICAQBhVeQQBPUdvJ3M7soS2KT0Z7A2hhf4vLUB8w38k0IXiZ40lttJOqOr
jVH4EV+gqpSjG5uvdSWGjqrdurpOVaJkV95yQaxkhs4CrAZNhMYprahJuPK7KR4D
D8D0B1/be3advrVq+40xCcYnmOPwQXVexsAJD0DGBIxw3i9V9RJwYG2k6nHnPIHd
qcHpJZiSHVK9poIpW/5oygUIPO1cGgqRL93IxcKC2lbafh985biGypzMmcjNInAI
XeeJ5rnH09BLv11qXOYhVX6bBVWkb7USq0EV8KE3UD6C5LcoEaxmWkR7Ws5nTdgA
D/JC5tJV9V9EoeuazXGj/5gVzCSrZZz4Ibfln2vtl1Hqi9zYwSUerBQ9YMY22Myv
9y7qmzQBGHKyRyozQxE1YuwzHUvv8hgzW4HChYGvUAs8E/5zQI82zc2LPLhCDKup
1c5xOGGZALIr7jw4w1f8qYdXGTgJ9HuTCM2sCy12JB4zQTrmVW4hzKoEozwKhGyP
c3YND2Yhw5FeBcJA/wF2t5VagYaAUTgTxUm/7nqk0qV6RbvvvA/445WFVHZKKMgi
rGUiAbU8lergfp4YGCEi18+c004XVJeOnKosQTaBDXvV/35ofcwo4iHsV0sQ1L5j
wGVu23xmLdn9FI7oX0jC/riXIZFa/sCSJyxMffUOANLG6IZPXF9IDg==
-----END CERTIFICATE-----
