Certificate:
    Data:
        Version: 3 (0x2)
        Serial Number:
            0b:83:68:43:ef:f7:ca:5a:d4:78:c1:59:6f:05:45:cc:46:68:88
        Signature Algorithm: sha256WithRSAEncryption
        Issuer: DC=ca, DC=lab5, O=Lab5 DevOps Inc., OU=www.lab5.ca, CN=Lab5 DevOps Inc. Root CA
        Validity
            Not Before: May 21 17:13:39 2024 GMT
            Not After : May 21 17:13:39 2034 GMT
        Subject: DC=ca, DC=lab5, O=Lab5 DevOps Inc., OU=www.lab5.ca, CN=Lab5 DevOps Inc. Root CA
        Subject Public Key Info:
            Public Key Algorithm: rsaEncryption
                Public-Key: (4096 bit)
                Modulus:
                    00:a5:85:e1:be:66:91:65:9e:4d:e4:4f:aa:e7:85:
                    24:03:9a:58:97:2d:f0:03:d1:f5:b0:74:e3:3f:b6:
                    be:53:f9:59:bb:ed:2e:2b:1a:ef:4a:fe:9d:47:1a:
                    e8:53:47:d5:ec:3c:8b:bb:c1:4b:ed:40:80:4d:b3:
                    d2:e5:50:85:c1:70:9b:88:f0:48:72:6a:a3:17:9f:
                    f2:46:08:a6:f3:16:20:8f:67:78:02:21:e1:54:08:
                    a9:12:07:43:a6:23:6e:94:a7:4d:58:0e:38:02:e7:
                    18:9c:71:74:73:49:89:91:af:e7:77:1b:a3:75:b8:
                    0d:4e:06:72:a1:63:9a:34:40:a3:7e:9d:07:1c:5f:
                    51:81:72:72:40:af:e6:b8:2d:a7:27:3f:21:d0:94:
                    e4:43:36:73:9f:0c:13:41:ef:7e:69:61:27:7a:58:
                    fa:55:46:d5:12:d6:c3:e3:6c:bc:ec:93:52:47:38:
                    15:a3:de:64:36:78:0d:d7:4c:da:91:6e:54:63:26:
                    cb:ff:9b:de:ba:3f:b2:dd:84:67:62:e1:8e:ad:bf:
                    f0:60:77:f8:f2:fb:72:e9:e8:6e:0f:73:4e:40:68:
                    69:87:58:9d:b2:32:ac:00:8b:97:df:d4:7d:d4:47:
                    7f:ff:57:e4:7b:5d:7e:e3:db:55:86:12:98:61:03:
                    73:32:ac:5d:89:07:5d:de:4d:a5:16:8f:d5:18:ba:
                    9b:30:3f:1c:86:d7:94:71:0f:44:24:be:65:57:67:
                    42:b4:fb:e4:51:09:79:e9:b3:f6:48:cb:fb:5a:ad:
                    b3:cd:a6:7d:c3:f7:b7:fd:52:35:b5:7f:34:70:47:
                    19:98:f4:68:c1:71:bc:40:aa:b7:5d:3d:da:38:52:
                    c4:05:07:ab:f5:8a:eb:27:94:4f:1d:3e:c8:b2:2c:
                    fd:f8:52:0c:e2:a9:35:ef:25:a3:69:00:1d:ec:4d:
                    5b:d3:e5:20:f1:03:ef:5c:df:37:23:db:91:61:75:
                    8b:47:fd:9f:d0:a8:89:95:2d:bd:b9:38:54:0c:db:
                    6a:e8:93:1f:1f:71:17:29:d1:c6:6f:53:df:b8:16:
                    0c:43:85:c1:12:d9:09:4c:14:50:dc:f9:ff:ce:13:
                    87:23:ed:02:09:e5:2d:9a:e6:7d:2b:72:46:31:2a:
                    d3:d0:cc:34:d2:f6:73:55:df:00:df:db:b5:3d:7c:
                    05:98:f0:a9:04:fb:ae:25:0a:70:a0:17:e5:bc:31:
                    21:64:01:63:a5:16:5c:93:9b:8a:3c:f8:ec:76:6f:
                    50:f5:62:33:e7:53:e6:d9:e8:f7:da:fb:d6:7d:9d:
                    bc:63:bc:c6:72:66:fb:25:4b:19:c6:bc:8c:99:98:
                    4f:b1:ed
                Exponent: 65537 (0x10001)
        X509v3 extensions:
            X509v3 Key Usage: critical
                Certificate Sign, CRL Sign
            X509v3 Basic Constraints: critical
                CA:TRUE
            X509v3 Subject Key Identifier: 
                00:11:43:1D:E6:19:23:C9:63:2B:E7:AF:75:D4:AB:2F:AA:EE:B0:3E
            X509v3 Authority Key Identifier: 
                00:11:43:1D:E6:19:23:C9:63:2B:E7:AF:75:D4:AB:2F:AA:EE:B0:3E
    Signature Algorithm: sha256WithRSAEncryption
    Signature Value:
        63:ec:f0:a2:32:84:eb:b9:cc:46:a4:4a:72:58:c4:89:29:1e:
        23:4a:23:7f:5c:56:4b:4f:37:42:42:4e:d1:82:02:e2:9e:4b:
        40:4c:1b:57:db:44:ee:9f:fc:16:14:fb:d7:1d:b1:05:d8:44:
        6d:5a:16:e6:35:f2:da:08:eb:f1:08:87:02:ea:6f:72:34:ec:
        1d:70:f8:5e:50:eb:c3:45:9d:3a:b0:e0:bf:fa:7a:c4:70:85:
        15:1d:5e:ff:f6:e4:9f:22:1c:54:27:5a:b9:ec:4f:de:50:20:
        f8:77:82:7d:d1:9a:ec:49:c7:b3:36:2c:45:1c:a5:77:fb:02:
        a2:3e:82:8e:d9:1a:db:89:11:04:7f:a4:87:fa:b1:4c:b3:69:
        79:ef:31:c3:d1:30:f3:68:be:76:84:ea:a5:50:7c:d5:ea:41:
        bf:a5:33:b6:67:c3:ff:29:f1:db:5f:e1:70:61:dc:b2:2e:ed:
        b8:7d:d1:7c:31:2b:e3:44:b1:81:6c:d3:1c:d0:d2:92:c6:4d:
        cb:ea:43:68:2f:d8:e2:a8:e1:82:f9:f4:e5:82:fb:80:06:29:
        e1:c0:02:cf:37:f4:b8:4e:6f:8b:61:91:d2:85:60:7e:42:09:
        14:db:21:88:6d:55:db:a1:76:4a:7d:5e:df:34:c7:1e:f3:8c:
        70:25:00:88:69:d1:c2:54:93:fc:cc:bb:f8:8a:33:07:32:fd:
        0c:1e:90:28:0e:e7:72:49:86:6f:c5:62:1e:63:ba:4a:d8:e1:
        b6:02:2f:f3:ba:78:4b:21:46:26:19:83:0f:e9:be:be:77:f6:
        90:a5:e9:e9:60:c0:55:07:99:65:f5:3b:7c:2e:55:58:05:86:
        fd:38:1a:02:98:ab:29:2e:e6:ed:98:15:b6:b0:d6:b6:58:99:
        1d:be:30:51:ec:ab:79:0b:d1:8c:16:86:ed:8a:6d:fb:44:1f:
        af:f2:1b:f8:1e:a6:60:de:a2:fb:11:75:60:e1:2b:bf:7f:5e:
        22:0d:14:e7:90:4b:ad:cf:7b:52:f9:12:85:49:d6:ba:34:09:
        2c:39:f7:5a:29:b9:2e:94:74:1d:56:6f:74:a3:b2:8d:2f:52:
        61:e8:29:98:30:84:d3:ef:1a:0c:a0:b8:dc:9d:85:67:55:7b:
        1c:c1:b8:60:08:d7:34:1d:a7:7d:c1:66:b0:ff:b1:64:ca:bc:
        7e:83:22:e5:ad:ff:4e:96:59:c5:a6:1a:e4:cc:98:58:c7:b7:
        51:86:ef:8b:d1:89:3b:90:29:44:1f:79:67:a5:8f:5a:a3:20:
        f2:37:88:1b:27:bf:f6:94:44:dd:ac:24:2c:bc:1e:6c:ca:57:
        de:1d:83:04:96:95:8c:b3
-----BEGIN CERTIFICATE-----
MIIF7DCCA9SgAwIBAgITC4NoQ+/3ylrUeMFZbwVFzEZoiDANBgkqhkiG9w0BAQsF
ADB+MRIwEAYKCZImiZPyLGQBGRYCY2ExFDASBgoJkiaJk/IsZAEZFgRsYWI1MRkw
FwYDVQQKDBBMYWI1IERldk9wcyBJbmMuMRQwEgYDVQQLDAt3d3cubGFiNS5jYTEh
MB8GA1UEAwwYTGFiNSBEZXZPcHMgSW5jLiBSb290IENBMB4XDTI0MDUyMTE3MTMz
OVoXDTM0MDUyMTE3MTMzOVowfjESMBAGCgmSJomT8ixkARkWAmNhMRQwEgYKCZIm
iZPyLGQBGRYEbGFiNTEZMBcGA1UECgwQTGFiNSBEZXZPcHMgSW5jLjEUMBIGA1UE
CwwLd3d3LmxhYjUuY2ExITAfBgNVBAMMGExhYjUgRGV2T3BzIEluYy4gUm9vdCBD
QTCCAiIwDQYJKoZIhvcNAQEBBQADggIPADCCAgoCggIBAKWF4b5mkWWeTeRPqueF
JAOaWJct8APR9bB04z+2vlP5WbvtLisa70r+nUca6FNH1ew8i7vBS+1AgE2z0uVQ
hcFwm4jwSHJqoxef8kYIpvMWII9neAIh4VQIqRIHQ6YjbpSnTVgOOALnGJxxdHNJ
iZGv53cbo3W4DU4GcqFjmjRAo36dBxxfUYFyckCv5rgtpyc/IdCU5EM2c58ME0Hv
fmlhJ3pY+lVG1RLWw+NsvOyTUkc4FaPeZDZ4DddM2pFuVGMmy/+b3ro/st2EZ2Lh
jq2/8GB3+PL7cunobg9zTkBoaYdYnbIyrACLl9/UfdRHf/9X5HtdfuPbVYYSmGED
czKsXYkHXd5NpRaP1Ri6mzA/HIbXlHEPRCS+ZVdnQrT75FEJeemz9kjL+1qts82m
fcP3t/1SNbV/NHBHGZj0aMFxvECqt1092jhSxAUHq/WK6yeUTx0+yLIs/fhSDOKp
Ne8lo2kAHexNW9PlIPED71zfNyPbkWF1i0f9n9CoiZUtvbk4VAzbauiTHx9xFynR
xm9T37gWDEOFwRLZCUwUUNz5/84ThyPtAgnlLZrmfStyRjEq09DMNNL2c1XfAN/b
tT18BZjwqQT7riUKcKAX5bwxIWQBY6UWXJObijz47HZvUPViM+dT5tno99r71n2d
vGO8xnJm+yVLGca8jJmYT7HtAgMBAAGjYzBhMA4GA1UdDwEB/wQEAwIBBjAPBgNV
HRMBAf8EBTADAQH/MB0GA1UdDgQWBBQAEUMd5hkjyWMr56911Ksvqu6wPjAfBgNV
HSMEGDAWgBQAEUMd5hkjyWMr56911Ksvqu6wPjANBgkqhkiG9w0BAQsFAAOCAgEA
Y+zwojKE67nMRqRKcljEiSkeI0ojf1xWS083QkJO0YIC4p5LQEwbV9tE7p/8FhT7
1x2xBdhEbVoW5jXy2gjr8QiHAupvcjTsHXD4XlDrw0WdOrDgv/p6xHCFFR1e//bk
nyIcVCdauexP3lAg+HeCfdGa7EnHszYsRRyld/sCoj6Cjtka24kRBH+kh/qxTLNp
ee8xw9Ew82i+doTqpVB81epBv6UztmfD/ynx21/hcGHcsi7tuH3RfDEr40SxgWzT
HNDSksZNy+pDaC/Y4qjhgvn05YL7gAYp4cACzzf0uE5vi2GR0oVgfkIJFNshiG1V
26F2Sn1e3zTHHvOMcCUAiGnRwlST/My7+IozBzL9DB6QKA7nckmGb8ViHmO6Stjh
tgIv87p4SyFGJhmDD+m+vnf2kKXp6WDAVQeZZfU7fC5VWAWG/TgaApirKS7m7ZgV
trDWtliZHb4wUeyreQvRjBaG7Ypt+0Qfr/Ib+B6mYN6i+xF1YOErv39eIg0U55BL
rc97UvkShUnWujQJLDn3Wim5LpR0HVZvdKOyjS9SYegpmDCE0+8aDKC43J2FZ1V7
HMG4YAjXNB2nfcFmsP+xZMq8foMi5a3/TpZZxaYa5MyYWMe3UYbvi9GJO5ApRB95
Z6WPWqMg8jeIGye/9pRE3awkLLwebMpX3h2DBJaVjLM=
-----END CERTIFICATE-----
