Certificate:
    Data:
        Version: 3 (0x2)
        Serial Number:
            0f:bf:7b:c4:e1:d5:90:c2:df:29:ca:48:15:ea:06:08:a4:d6:7d:ef
        Signature Algorithm: sha256WithRSAEncryption
        Issuer: DC=ca, DC=lab5, O=Lab5 DevOps Inc., OU=www.lab5.ca, CN=Lab5 DevOps Inc. Root CA
        Validity
            Not Before: May 20 10:56:12 2024 GMT
            Not After : May 20 10:56:12 2034 GMT
        Subject: DC=ca, DC=lab5, O=Lab5 DevOps Inc., OU=www.lab5.ca, CN=Lab5 DevOps Inc. Root CA
        Subject Public Key Info:
            Public Key Algorithm: rsaEncryption
                Public-Key: (4096 bit)
                Modulus:
                    00:91:36:8e:23:28:47:4c:a3:48:74:94:4f:7b:87:
                    8a:53:05:80:e0:85:11:56:8f:b7:ac:51:15:73:38:
                    47:d3:4e:a6:37:73:6f:ec:01:1f:5f:4b:f3:27:53:
                    fe:f9:4d:68:0d:aa:41:80:9c:a8:de:59:ec:bd:7d:
                    92:ac:37:56:45:f1:6c:14:da:33:86:d2:6f:39:d4:
                    b7:2c:17:4e:1a:cd:ab:e9:df:c7:35:05:ca:0e:af:
                    a3:10:3b:81:66:9d:fa:bc:1b:6d:95:94:d1:60:3d:
                    99:24:de:28:74:ea:1f:25:eb:eb:c3:aa:b2:5f:bb:
                    ef:11:7c:10:d1:16:b2:b8:3e:0a:7b:01:29:e2:c6:
                    9a:3b:ef:0c:6f:16:33:df:8b:22:e9:82:95:26:fb:
                    47:b8:df:1d:ca:d7:a5:3c:6d:c9:23:67:9a:fb:53:
                    99:db:ff:8e:89:51:7e:11:1b:8f:1c:31:e2:cc:e1:
                    d7:71:fd:06:35:dc:b6:11:35:85:fe:f4:94:fb:3f:
                    03:26:17:0e:4f:93:b0:d6:7f:9c:3a:57:fc:09:1a:
                    74:35:d6:92:da:17:95:b0:d7:5c:50:43:42:2d:59:
                    cf:f2:c6:42:bd:f3:c3:57:1b:9b:25:d6:c2:9a:74:
                    a1:05:81:60:94:b0:c9:4f:e4:88:5e:24:32:29:b8:
                    10:2a:c7:2e:cd:f1:4c:71:56:18:d5:07:01:8f:67:
                    29:8d:42:70:11:9e:1c:76:98:d6:49:d0:b8:5a:24:
                    e2:32:e5:77:0c:b3:f8:f8:81:2e:12:94:3c:10:47:
                    eb:8a:b3:fa:e3:7c:92:7b:52:b0:2b:fa:58:ac:43:
                    c2:46:66:aa:66:a2:07:42:32:d2:b4:f8:d3:83:20:
                    cc:cc:ea:0d:51:a8:1e:d3:22:8f:e2:d4:c5:87:2b:
                    bd:61:3f:fe:64:e9:74:cb:7f:de:ad:3b:47:2d:db:
                    7a:b5:b3:6a:d5:b4:5e:11:bd:f8:92:50:b9:4e:f3:
                    24:34:62:f1:8e:50:fa:64:0d:7c:4c:29:c3:cc:5a:
                    c1:64:52:b4:b5:3f:25:73:0d:e0:37:7a:86:7c:16:
                    72:40:2b:7a:50:39:8f:d4:8a:e7:e6:37:c9:04:cc:
                    16:a6:23:80:f0:93:f3:a9:bf:35:ee:68:85:b4:b9:
                    69:c6:dd:74:15:b0:71:a1:b1:7e:91:9b:b7:73:fa:
                    c0:9d:68:0f:c5:de:f6:89:4b:0e:37:d3:34:73:c3:
                    82:a6:d4:a5:51:fd:88:fd:f2:20:f9:6a:dd:e8:50:
                    1a:23:e3:e1:d8:1d:70:d6:91:62:d5:51:4c:74:ba:
                    9a:0f:c1:07:df:d5:69:99:e4:66:97:23:b1:3d:90:
                    da:48:4b
                Exponent: 65537 (0x10001)
        X509v3 extensions:
            X509v3 Key Usage: critical
                Certificate Sign, CRL Sign
            X509v3 Basic Constraints: critical
                CA:TRUE
            X509v3 Subject Key Identifier: 
                A1:AE:A5:B5:DC:47:46:E9:A0:B6:8A:A8:18:ED:60:45:AF:87:6A:FA
            X509v3 Authority Key Identifier: 
                A1:AE:A5:B5:DC:47:46:E9:A0:B6:8A:A8:18:ED:60:45:AF:87:6A:FA
    Signature Algorithm: sha256WithRSAEncryption
    Signature Value:
        14:78:a4:50:62:06:27:e9:ff:29:62:cb:5c:28:a1:19:a5:9e:
        df:f6:15:b4:a3:3f:2b:c1:cb:13:9c:12:6b:38:29:e5:ea:9e:
        46:6e:80:1c:42:b0:0b:9f:30:e9:14:ca:5c:ad:4d:2d:38:84:
        29:8a:10:5b:dd:ad:09:80:16:80:6f:dd:53:9d:53:de:21:e7:
        29:21:b9:1f:b5:9d:6b:6d:e2:2b:3a:6f:81:41:d1:e7:9f:0a:
        71:80:1c:39:1e:1d:4e:b3:13:ef:12:6f:81:6b:0c:2a:fb:52:
        3f:cb:c5:0a:81:67:01:df:c8:05:f6:6b:55:2e:f1:40:de:23:
        93:68:d6:99:01:20:be:2c:13:8c:19:5f:19:07:ba:e8:e1:a6:
        5f:39:95:de:a6:ab:f1:71:f2:8a:bf:1f:7b:06:9b:0f:aa:d9:
        88:0a:a9:87:3c:b7:12:5d:22:76:81:88:4d:5f:51:68:1f:1d:
        23:98:d2:d4:e3:c0:af:4f:43:5b:bd:e1:c2:9f:f8:76:9b:ee:
        d3:4e:28:31:bd:a8:33:88:47:f3:b8:72:30:4f:67:c3:5c:45:
        53:32:56:b4:fe:82:78:46:8c:38:5a:82:ad:7c:cb:e7:a2:4e:
        37:b0:f5:64:76:5d:80:38:67:47:d0:d8:57:36:87:b8:05:65:
        0d:08:ab:20:1f:b4:62:03:91:78:1b:49:6e:d4:64:36:34:1b:
        88:27:48:1a:2f:61:b6:99:76:51:b4:6c:bb:32:9c:56:5a:2b:
        d0:83:89:97:b3:5f:4a:cd:c7:a4:87:60:12:f4:90:d3:ff:82:
        49:88:a3:11:b2:06:52:16:54:20:f2:ae:15:71:40:e1:24:05:
        4f:11:f7:32:9d:79:cf:ee:52:57:ed:f8:94:94:1f:97:a9:0a:
        4d:6e:39:0b:68:b5:24:64:12:02:b5:d1:6f:07:50:66:e9:f7:
        23:54:43:52:f6:8e:44:e9:d9:dd:57:a2:eb:6d:57:c3:48:b4:
        a0:24:26:29:5d:b2:cb:fe:f6:33:9a:2f:c5:0b:3a:88:07:05:
        db:3c:4f:51:cc:93:f0:97:76:f6:af:4d:c1:5d:f4:0f:af:e3:
        6a:f8:d7:9a:e1:a6:dc:be:98:d1:a3:23:bd:d2:85:fa:98:f6:
        60:5d:f7:c0:c9:e9:9f:b6:5b:88:68:80:5c:9b:de:28:dc:f3:
        2e:e0:62:17:1d:64:a4:f8:78:e7:16:e8:7e:ed:12:06:c6:18:
        9a:73:73:25:5b:ad:3e:62:22:0f:b9:d1:ad:e0:c3:50:0b:0d:
        8f:37:88:ae:57:6b:0f:5e:c5:3a:02:f7:dc:b5:b2:4e:c1:44:
        5f:98:bd:4d:e9:4c:a0:da
-----BEGIN CERTIFICATE-----
MIIF7TCCA9WgAwIBAgIUD797xOHVkMLfKcpIFeoGCKTWfe8wDQYJKoZIhvcNAQEL
BQAwfjESMBAGCgmSJomT8ixkARkWAmNhMRQwEgYKCZImiZPyLGQBGRYEbGFiNTEZ
MBcGA1UECgwQTGFiNSBEZXZPcHMgSW5jLjEUMBIGA1UECwwLd3d3LmxhYjUuY2Ex
ITAfBgNVBAMMGExhYjUgRGV2T3BzIEluYy4gUm9vdCBDQTAeFw0yNDA1MjAxMDU2
MTJaFw0zNDA1MjAxMDU2MTJaMH4xEjAQBgoJkiaJk/IsZAEZFgJjYTEUMBIGCgmS
JomT8ixkARkWBGxhYjUxGTAXBgNVBAoMEExhYjUgRGV2T3BzIEluYy4xFDASBgNV
BAsMC3d3dy5sYWI1LmNhMSEwHwYDVQQDDBhMYWI1IERldk9wcyBJbmMuIFJvb3Qg
Q0EwggIiMA0GCSqGSIb3DQEBAQUAA4ICDwAwggIKAoICAQCRNo4jKEdMo0h0lE97
h4pTBYDghRFWj7esURVzOEfTTqY3c2/sAR9fS/MnU/75TWgNqkGAnKjeWey9fZKs
N1ZF8WwU2jOG0m851LcsF04azavp38c1BcoOr6MQO4Fmnfq8G22VlNFgPZkk3ih0
6h8l6+vDqrJfu+8RfBDRFrK4Pgp7ASnixpo77wxvFjPfiyLpgpUm+0e43x3K16U8
bckjZ5r7U5nb/46JUX4RG48cMeLM4ddx/QY13LYRNYX+9JT7PwMmFw5Pk7DWf5w6
V/wJGnQ11pLaF5Ww11xQQ0ItWc/yxkK988NXG5sl1sKadKEFgWCUsMlP5IheJDIp
uBAqxy7N8UxxVhjVBwGPZymNQnARnhx2mNZJ0LhaJOIy5XcMs/j4gS4SlDwQR+uK
s/rjfJJ7UrAr+lisQ8JGZqpmogdCMtK0+NODIMzM6g1RqB7TIo/i1MWHK71hP/5k
6XTLf96tO0ct23q1s2rVtF4RvfiSULlO8yQ0YvGOUPpkDXxMKcPMWsFkUrS1PyVz
DeA3eoZ8FnJAK3pQOY/UiufmN8kEzBamI4Dwk/OpvzXuaIW0uWnG3XQVsHGhsX6R
m7dz+sCdaA/F3vaJSw430zRzw4Km1KVR/Yj98iD5at3oUBoj4+HYHXDWkWLVUUx0
upoPwQff1WmZ5GaXI7E9kNpISwIDAQABo2MwYTAOBgNVHQ8BAf8EBAMCAQYwDwYD
VR0TAQH/BAUwAwEB/zAdBgNVHQ4EFgQUoa6ltdxHRumgtoqoGO1gRa+HavowHwYD
VR0jBBgwFoAUoa6ltdxHRumgtoqoGO1gRa+HavowDQYJKoZIhvcNAQELBQADggIB
ABR4pFBiBifp/yliy1wooRmlnt/2FbSjPyvByxOcEms4KeXqnkZugBxCsAufMOkU
ylytTS04hCmKEFvdrQmAFoBv3VOdU94h5ykhuR+1nWtt4is6b4FB0eefCnGAHDke
HU6zE+8Sb4FrDCr7Uj/LxQqBZwHfyAX2a1Uu8UDeI5No1pkBIL4sE4wZXxkHuujh
pl85ld6mq/Fx8oq/H3sGmw+q2YgKqYc8txJdInaBiE1fUWgfHSOY0tTjwK9PQ1u9
4cKf+Hab7tNOKDG9qDOIR/O4cjBPZ8NcRVMyVrT+gnhGjDhagq18y+eiTjew9WR2
XYA4Z0fQ2Fc2h7gFZQ0IqyAftGIDkXgbSW7UZDY0G4gnSBovYbaZdlG0bLsynFZa
K9CDiZezX0rNx6SHYBL0kNP/gkmIoxGyBlIWVCDyrhVxQOEkBU8R9zKdec/uUlft
+JSUH5epCk1uOQtotSRkEgK10W8HUGbp9yNUQ1L2jkTp2d1XouttV8NItKAkJild
ssv+9jOaL8ULOogHBds8T1HMk/CXdvavTcFd9A+v42r415rhpty+mNGjI73ShfqY
9mBd98DJ6Z+2W4hogFyb3ijc8y7gYhcdZKT4eOcW6H7tEgbGGJpzcyVbrT5iIg+5
0a3gw1ALDY83iK5Xaw9exToC99y1sk7BRF+YvU3pTKDa
-----END CERTIFICATE-----
