Certificate:
    Data:
        Version: 3 (0x2)
        Serial Number:
            1c:d8:bf:fa:6e:fc:ab:91:3d:a1:6a:ed:1a:ea:26:3c:de:1b:da:3c
        Signature Algorithm: sha256WithRSAEncryption
        Issuer: DC=ca, DC=lab5, O=Lab5 DevOps Inc., OU=www.lab5.ca, CN=Lab5 DevOps Inc. Root CA
        Validity
            Not Before: May 21 17:13:49 2024 GMT
            Not After : May 21 17:13:49 2034 GMT
        Subject: DC=ca, DC=lab5, O=Lab5 DevOps Inc., OU=www.lab5.ca, CN=Lab5 DevOps Inc. Issuing CA
        Subject Public Key Info:
            Public Key Algorithm: rsaEncryption
                Public-Key: (4096 bit)
                Modulus:
                    00:a6:5c:a9:cc:70:9e:1e:3c:22:f7:53:fd:3f:a4:
                    b4:2c:b1:5a:e3:55:a5:64:bf:45:18:dd:21:a0:52:
                    00:d0:ed:1e:54:40:77:31:b7:e1:25:b7:24:9e:42:
                    af:b4:25:9f:0d:4e:87:bb:ec:97:22:d6:9f:b5:ec:
                    17:76:e7:2c:23:d3:c2:bb:4d:20:87:c7:8d:71:79:
                    4d:8b:5a:da:8c:4b:7f:a0:67:4e:c6:9f:5b:91:a6:
                    66:d2:ad:07:e5:f1:44:e7:2b:e0:31:e8:8c:68:af:
                    5c:87:fa:e2:12:99:c3:26:86:0b:03:60:0b:59:b4:
                    f4:f4:2d:22:fe:91:d7:f4:7b:d5:72:fb:2b:07:37:
                    08:a5:c8:2b:6f:a2:01:65:89:64:76:78:37:11:9b:
                    be:7b:e4:98:79:39:96:55:b5:56:06:76:03:30:cc:
                    5c:37:fc:f7:e1:13:94:73:cc:67:39:f5:31:c2:5c:
                    9a:bc:f6:f5:2f:d7:c2:7c:af:78:f1:f3:2b:3a:d5:
                    86:52:98:de:36:64:d9:ce:a0:b3:aa:15:06:02:dc:
                    59:78:24:33:f1:db:89:c7:fb:eb:3e:6c:75:75:fd:
                    fc:76:bf:70:d5:f3:4f:a5:ae:2f:19:f5:c5:17:7a:
                    12:17:c9:f9:78:0f:4c:47:60:54:d5:fe:c5:d1:93:
                    d6:c9:20:5c:74:f2:81:6b:7b:53:17:f1:58:d4:0f:
                    b1:fd:49:ad:ce:9a:5c:e3:4b:83:9e:73:ff:bf:40:
                    4d:5b:f9:74:b1:7b:3d:ae:24:f3:ff:41:90:e0:c7:
                    ef:b2:2a:ee:88:f6:e4:a2:c4:a0:a4:d7:3e:f2:30:
                    f0:da:3c:3f:b0:d3:76:e8:3a:48:d1:2f:48:46:20:
                    e4:5c:d0:4a:2e:e6:16:6f:f9:1f:e9:ee:c8:05:fd:
                    91:49:90:a1:d2:55:1e:9d:66:06:69:df:b7:2b:a4:
                    d0:c7:86:d1:5b:8f:84:c0:9a:52:56:a3:14:58:80:
                    f5:5f:a7:fe:8b:d4:80:32:f9:32:1b:ec:09:07:6b:
                    80:74:ed:1d:25:77:86:af:48:4c:fc:bf:35:7e:05:
                    a7:43:5e:88:16:9f:e2:20:f0:58:64:74:a8:e0:b1:
                    6f:4f:a1:99:ab:61:43:c8:c9:49:29:1f:2b:b8:0b:
                    91:51:aa:fd:2f:dc:c5:b3:40:58:21:87:43:a1:96:
                    db:48:bd:c8:c3:91:88:a5:e2:27:e0:2a:b7:ee:2c:
                    90:00:42:b6:67:f7:c0:5e:b9:bd:ba:7c:11:c2:29:
                    c5:e3:dc:46:78:f6:2f:50:4d:94:0c:12:94:82:ac:
                    02:e8:18:0a:ae:14:33:20:c1:2f:48:ab:af:10:37:
                    e1:94:ad
                Exponent: 65537 (0x10001)
        X509v3 extensions:
            X509v3 Key Usage: critical
                Certificate Sign, CRL Sign
            X509v3 Basic Constraints: critical
                CA:TRUE, pathlen:0
            X509v3 Subject Key Identifier: 
                97:28:C5:D2:F9:A3:FC:DF:12:1B:6B:65:FF:41:C1:C5:2C:EE:5A:CC
            X509v3 Authority Key Identifier: 
                00:11:43:1D:E6:19:23:C9:63:2B:E7:AF:75:D4:AB:2F:AA:EE:B0:3E
    Signature Algorithm: sha256WithRSAEncryption
    Signature Value:
        73:bd:b3:7f:85:ad:a3:ed:42:37:34:c9:46:02:0a:4c:2d:b8:
        51:0f:f6:07:a5:94:73:3f:c7:db:1e:5f:ee:6c:9a:30:4e:f4:
        ec:e1:9d:71:ba:26:0f:c6:45:1a:b3:d2:99:a6:c4:d3:29:59:
        65:ed:d9:e8:89:ef:17:ae:0d:14:e7:42:5a:d4:86:7f:c1:4a:
        9a:3b:2a:42:66:8b:94:24:dd:03:8d:3e:42:9d:e0:c3:55:d6:
        eb:1d:dc:d1:92:2d:d9:e7:b2:4f:da:73:53:a4:73:35:f9:d4:
        4a:f7:c2:f0:7c:ac:0b:5d:5a:a3:69:3d:48:db:0a:a1:c0:ad:
        68:1d:9c:95:77:7b:0a:e0:54:09:ba:f3:e1:f1:f3:05:87:a0:
        3b:8c:9c:f4:16:3f:0f:a7:53:cb:a3:98:f8:5a:d0:f5:8c:e8:
        41:f4:8a:32:35:b3:81:74:7c:2b:8d:a5:c5:26:3f:64:0f:e6:
        3d:35:b2:46:a6:ad:56:3a:fe:c7:1c:78:15:c1:ff:f4:5a:19:
        46:99:34:1d:dc:e6:8e:3b:ad:6f:0f:e3:c3:0f:e4:40:ee:eb:
        3a:6c:a2:6e:c7:f6:44:cd:56:1a:95:dc:28:f9:0a:3c:8e:dd:
        93:34:af:6f:45:76:55:66:8a:83:9b:2d:16:73:90:6a:2c:c8:
        5b:89:2b:83:45:b8:12:fc:92:57:57:cd:fd:2e:d2:07:d7:6d:
        a2:49:eb:7e:a3:0f:2b:01:79:b7:cb:f3:98:dd:04:b1:f6:75:
        f1:6c:d5:80:b9:50:df:d6:a3:8f:13:fe:ef:47:f3:ce:8a:c6:
        c9:cf:32:8f:7d:5d:0a:12:53:22:a6:4c:ea:6d:b9:48:23:50:
        cd:3c:51:22:47:2a:08:2e:ef:e5:88:86:9e:3a:7c:52:0f:86:
        c9:e8:c0:61:63:e5:6d:c3:d7:98:cf:89:74:f3:d8:a8:37:79:
        8e:bc:b3:59:ef:5d:b3:68:bf:d0:f2:82:5a:73:dd:90:5a:36:
        07:0d:c7:2d:56:bd:e9:80:47:aa:97:f6:18:b3:b9:5c:94:3d:
        02:ca:d4:9d:31:4e:df:b1:0b:a6:91:87:ef:7b:7a:e3:8a:ae:
        fc:5e:27:10:f0:b7:45:14:3d:f6:49:ae:36:ee:a1:04:64:98:
        ea:e4:c0:90:4c:a6:6a:1c:bc:79:d1:47:c6:12:0c:e2:7e:29:
        1e:18:eb:99:df:60:ce:24:d1:23:f7:5b:8b:73:c3:0d:2d:c0:
        9c:c3:0f:23:9d:1d:7c:54:fd:d6:4c:61:1a:f9:36:46:8c:41:
        21:35:57:b5:ee:b2:cc:54:9c:ce:34:e4:c4:60:f0:5b:d5:85:
        1a:22:c8:6f:9a:03:2a:18
-----BEGIN CERTIFICATE-----
MIIF9DCCA9ygAwIBAgIUHNi/+m78q5E9oWrtGuomPN4b2jwwDQYJKoZIhvcNAQEL
BQAwfjESMBAGCgmSJomT8ixkARkWAmNhMRQwEgYKCZImiZPyLGQBGRYEbGFiNTEZ
MBcGA1UECgwQTGFiNSBEZXZPcHMgSW5jLjEUMBIGA1UECwwLd3d3LmxhYjUuY2Ex
ITAfBgNVBAMMGExhYjUgRGV2T3BzIEluYy4gUm9vdCBDQTAeFw0yNDA1MjExNzEz
NDlaFw0zNDA1MjExNzEzNDlaMIGBMRIwEAYKCZImiZPyLGQBGRYCY2ExFDASBgoJ
kiaJk/IsZAEZFgRsYWI1MRkwFwYDVQQKDBBMYWI1IERldk9wcyBJbmMuMRQwEgYD
VQQLDAt3d3cubGFiNS5jYTEkMCIGA1UEAwwbTGFiNSBEZXZPcHMgSW5jLiBJc3N1
aW5nIENBMIICIjANBgkqhkiG9w0BAQEFAAOCAg8AMIICCgKCAgEAplypzHCeHjwi
91P9P6S0LLFa41WlZL9FGN0hoFIA0O0eVEB3MbfhJbcknkKvtCWfDU6Hu+yXItaf
tewXducsI9PCu00gh8eNcXlNi1rajEt/oGdOxp9bkaZm0q0H5fFE5yvgMeiMaK9c
h/riEpnDJoYLA2ALWbT09C0i/pHX9HvVcvsrBzcIpcgrb6IBZYlkdng3EZu+e+SY
eTmWVbVWBnYDMMxcN/z34ROUc8xnOfUxwlyavPb1L9fCfK948fMrOtWGUpjeNmTZ
zqCzqhUGAtxZeCQz8duJx/vrPmx1df38dr9w1fNPpa4vGfXFF3oSF8n5eA9MR2BU
1f7F0ZPWySBcdPKBa3tTF/FY1A+x/Umtzppc40uDnnP/v0BNW/l0sXs9riTz/0GQ
4MfvsiruiPbkosSgpNc+8jDw2jw/sNN26DpI0S9IRiDkXNBKLuYWb/kf6e7IBf2R
SZCh0lUenWYGad+3K6TQx4bRW4+EwJpSVqMUWID1X6f+i9SAMvkyG+wJB2uAdO0d
JXeGr0hM/L81fgWnQ16IFp/iIPBYZHSo4LFvT6GZq2FDyMlJKR8ruAuRUar9L9zF
s0BYIYdDoZbbSL3Iw5GIpeIn4Cq37iyQAEK2Z/fAXrm9unwRwinF49xGePYvUE2U
DBKUgqwC6BgKrhQzIMEvSKuvEDfhlK0CAwEAAaNmMGQwDgYDVR0PAQH/BAQDAgEG
MBIGA1UdEwEB/wQIMAYBAf8CAQAwHQYDVR0OBBYEFJcoxdL5o/zfEhtrZf9BwcUs
7lrMMB8GA1UdIwQYMBaAFAARQx3mGSPJYyvnr3XUqy+q7rA+MA0GCSqGSIb3DQEB
CwUAA4ICAQBzvbN/ha2j7UI3NMlGAgpMLbhRD/YHpZRzP8fbHl/ubJowTvTs4Z1x
uiYPxkUas9KZpsTTKVll7dnoie8Xrg0U50Ja1IZ/wUqaOypCZouUJN0DjT5CneDD
VdbrHdzRki3Z57JP2nNTpHM1+dRK98LwfKwLXVqjaT1I2wqhwK1oHZyVd3sK4FQJ
uvPh8fMFh6A7jJz0Fj8Pp1PLo5j4WtD1jOhB9IoyNbOBdHwrjaXFJj9kD+Y9NbJG
pq1WOv7HHHgVwf/0WhlGmTQd3OaOO61vD+PDD+RA7us6bKJux/ZEzVYaldwo+Qo8
jt2TNK9vRXZVZoqDmy0Wc5BqLMhbiSuDRbgS/JJXV839LtIH122iSet+ow8rAXm3
y/OY3QSx9nXxbNWAuVDf1qOPE/7vR/POisbJzzKPfV0KElMipkzqbblII1DNPFEi
RyoILu/liIaeOnxSD4bJ6MBhY+Vtw9eYz4l089ioN3mOvLNZ712zaL/Q8oJac92Q
WjYHDcctVr3pgEeql/YYs7lclD0CytSdMU7fsQumkYfve3rjiq78XicQ8LdFFD32
Sa427qEEZJjq5MCQTKZqHLx50UfGEgzifikeGOuZ32DOJNEj91uLc8MNLcCcww8j
nR18VP3WTGEa+TZGjEEhNVe17rLMVJzONOTEYPBb1YUaIshvmgMqGA==
-----END CERTIFICATE-----
