Certificate:
    Data:
        Version: 3 (0x2)
        Serial Number:
            20:b6:75:9f:b3:66:e6:43:3f:3f:c4:24:b0:78:b6:a7:39:d7:91:d9
        Signature Algorithm: sha256WithRSAEncryption
        Issuer: DC=ca, DC=lab5, O=Lab5 DevOps Inc., OU=www.lab5.ca, CN=Lab5 DevOps Inc. Root CA
        Validity
            Not Before: Mar 29 12:16:55 2024 GMT
            Not After : Mar 29 12:16:55 2034 GMT
        Subject: DC=ca, DC=lab5, O=Lab5 DevOps Inc., OU=www.lab5.ca, CN=Lab5 DevOps Inc. Issuing CA
        Subject Public Key Info:
            Public Key Algorithm: rsaEncryption
                Public-Key: (4096 bit)
                Modulus:
                    00:ad:d0:12:d6:45:7d:ed:83:c7:0f:1f:5f:34:3d:
                    a5:bd:00:7c:45:b7:2c:39:60:99:f2:86:c5:5e:4a:
                    ff:61:52:61:0e:bb:aa:86:bb:f7:54:f6:90:4b:4f:
                    44:50:fe:2c:82:70:46:54:5b:1a:09:26:07:6c:a5:
                    dd:53:5b:a6:a9:a6:f1:18:f5:32:cc:0b:aa:c2:55:
                    f3:05:d8:9c:79:64:58:1b:0c:52:16:0b:fd:35:09:
                    7a:ae:b0:b5:53:82:66:d1:c9:1d:53:b8:76:7a:00:
                    12:ba:c1:dd:5d:79:8e:c9:42:b5:b5:97:9d:d5:ae:
                    64:2d:7d:35:ea:ce:af:ef:05:b8:30:9d:d0:88:c1:
                    81:74:22:1f:7b:8e:12:b5:55:58:8f:be:0f:29:6b:
                    a5:61:b2:a7:a3:ca:83:d9:fa:bc:a1:e0:3a:e2:87:
                    b2:98:d0:63:f1:0a:12:e4:ff:41:c5:93:ca:d9:31:
                    f5:09:a5:99:11:d5:a4:7c:fd:89:c9:09:a0:17:20:
                    4a:fb:39:cf:d0:ae:33:0f:8f:d0:85:1d:ba:a0:2b:
                    c7:28:d1:8f:c5:44:cf:4c:95:24:61:40:02:9c:5d:
                    66:4b:47:c3:cf:26:f3:d8:e1:08:36:ce:2f:fb:71:
                    4b:d2:7f:38:c2:bb:d7:ba:74:e9:b0:d2:eb:44:6c:
                    7d:15:01:f4:7e:fa:0b:1f:79:12:18:4f:21:4a:e8:
                    e9:ad:a8:91:80:00:79:3e:a5:8e:f8:fb:1d:48:ef:
                    41:cf:8b:23:20:4b:4f:82:56:6c:d8:12:51:fc:f5:
                    3a:19:d6:75:f5:6e:f4:ce:b7:ab:a3:29:d7:da:3a:
                    a1:0a:ee:08:44:d1:5b:0b:4b:12:18:8f:26:da:e6:
                    d2:bc:1c:36:0a:a8:6d:2d:e5:26:18:67:e5:3c:9d:
                    34:6c:b4:7e:e4:8c:51:52:da:80:33:ff:5f:f7:4b:
                    3d:da:d6:dc:a5:c4:9c:b5:60:4f:a1:4b:99:6d:85:
                    bf:b3:f0:19:40:5c:5c:cc:90:c1:1d:e4:d9:69:b6:
                    ec:a3:9b:0b:f2:b0:fb:7a:8a:9b:f4:68:40:f4:4a:
                    10:ef:9a:82:f6:76:4c:16:8f:f0:4f:d2:8b:2b:e7:
                    fb:18:60:71:04:43:d4:5c:e0:fd:f8:ad:71:d6:29:
                    a3:ac:af:1e:94:c7:e6:d2:44:ff:22:44:d5:cc:00:
                    56:cf:ec:82:9d:02:56:29:c2:60:f2:63:9d:40:2b:
                    52:2c:5d:1e:29:e0:9f:c3:f7:56:e5:61:ea:99:6a:
                    67:b5:98:dc:ed:c7:2e:5c:42:3d:6f:9d:4b:11:53:
                    47:12:19:75:9d:3c:34:a7:6d:c0:a2:ef:27:b9:e0:
                    72:18:37
                Exponent: 65537 (0x10001)
        X509v3 extensions:
            X509v3 Key Usage: critical
                Certificate Sign, CRL Sign
            X509v3 Basic Constraints: critical
                CA:TRUE, pathlen:0
            X509v3 Subject Key Identifier: 
                89:24:98:41:38:FE:3D:80:3B:D1:16:BE:9A:57:3B:5F:38:26:25:DF
            X509v3 Authority Key Identifier: 
                7F:B2:E0:AD:AB:01:1B:61:5E:FF:AE:48:7D:45:9F:38:A5:4C:02:26
    Signature Algorithm: sha256WithRSAEncryption
    Signature Value:
        62:27:60:e5:85:35:b2:82:56:b1:b8:03:70:63:71:f2:31:79:
        61:36:bf:80:57:3e:cd:e1:bd:b8:cd:e5:53:07:89:d0:1f:a1:
        1c:d0:31:b3:48:80:7f:97:6e:b0:2e:e8:28:b2:bb:f9:7c:1d:
        6b:d6:ab:1b:55:9c:01:7b:13:23:6a:8d:b5:b5:d0:22:c6:2c:
        cb:e4:a3:ad:08:3a:d8:e2:12:95:60:42:68:27:40:89:d7:91:
        76:a0:ad:5e:9d:3d:fd:68:8c:0b:40:7d:c2:a4:51:10:4a:88:
        02:f2:7e:45:a7:06:67:80:51:2a:8d:e8:99:04:54:0e:b5:7c:
        4d:fb:e1:b2:b1:68:9c:04:f0:6d:56:4d:eb:a7:1c:c3:3a:71:
        4c:08:7a:7e:2d:5b:34:ca:6e:54:4d:b2:24:75:0e:53:1d:f4:
        e3:65:8a:54:bd:21:ee:db:42:e5:65:2a:fd:9a:45:c2:f0:3d:
        bd:d7:c8:02:f4:7f:87:36:84:69:29:12:51:6c:0a:73:e1:01:
        1c:14:30:ba:ad:43:8c:4e:05:0f:bb:7f:72:ab:5a:00:9a:fb:
        41:95:97:93:90:23:22:12:40:ac:22:f8:91:71:51:b3:71:12:
        1c:4d:20:e9:86:ad:12:96:0d:79:c5:d4:32:f0:73:36:4e:94:
        28:97:64:f2:73:ad:25:a1:50:7a:3d:c9:20:22:e1:5d:1c:74:
        af:be:a5:7a:c5:97:5e:44:3a:f1:91:eb:84:0f:1d:82:66:18:
        66:1d:7b:63:75:0f:16:60:a0:48:e1:4d:52:01:27:db:a4:53:
        b1:57:c4:25:dc:f3:92:86:92:fe:0a:62:c5:71:32:96:a0:5f:
        c4:88:c9:bb:5b:56:cf:f2:9c:4d:10:c3:28:76:d6:e5:48:53:
        f3:51:f2:68:33:12:63:91:00:2b:fd:47:65:8b:60:d4:75:52:
        24:8c:59:96:93:3b:21:7b:77:e9:a8:4b:c6:54:fc:be:c8:a2:
        2c:70:94:8a:b7:03:a5:9e:2c:ea:b0:b7:99:a6:0f:64:74:d1:
        6f:5d:0b:52:39:65:cc:58:ce:53:cf:70:51:36:ee:6c:46:a8:
        ff:55:cf:3c:48:77:7a:07:4e:3a:00:d8:07:59:2d:88:05:2a:
        bb:c0:b4:aa:28:20:32:8d:0d:d7:82:e1:31:20:e1:bd:6a:78:
        a6:35:b6:44:f3:c7:49:2b:16:fc:34:43:1b:9c:1e:0d:43:91:
        83:22:9e:ef:06:05:74:f5:3f:28:5a:42:a7:aa:c9:9a:23:ba:
        c8:a9:7b:dc:4e:e2:60:0f:5a:4c:a9:cb:69:32:d9:90:c7:b2:
        ef:2e:f2:46:bd:f3:88:81
-----BEGIN CERTIFICATE-----
MIIF9DCCA9ygAwIBAgIUILZ1n7Nm5kM/P8QksHi2pznXkdkwDQYJKoZIhvcNAQEL
BQAwfjESMBAGCgmSJomT8ixkARkWAmNhMRQwEgYKCZImiZPyLGQBGRYEbGFiNTEZ
MBcGA1UECgwQTGFiNSBEZXZPcHMgSW5jLjEUMBIGA1UECwwLd3d3LmxhYjUuY2Ex
ITAfBgNVBAMMGExhYjUgRGV2T3BzIEluYy4gUm9vdCBDQTAeFw0yNDAzMjkxMjE2
NTVaFw0zNDAzMjkxMjE2NTVaMIGBMRIwEAYKCZImiZPyLGQBGRYCY2ExFDASBgoJ
kiaJk/IsZAEZFgRsYWI1MRkwFwYDVQQKDBBMYWI1IERldk9wcyBJbmMuMRQwEgYD
VQQLDAt3d3cubGFiNS5jYTEkMCIGA1UEAwwbTGFiNSBEZXZPcHMgSW5jLiBJc3N1
aW5nIENBMIICIjANBgkqhkiG9w0BAQEFAAOCAg8AMIICCgKCAgEArdAS1kV97YPH
Dx9fND2lvQB8RbcsOWCZ8obFXkr/YVJhDruqhrv3VPaQS09EUP4sgnBGVFsaCSYH
bKXdU1umqabxGPUyzAuqwlXzBdiceWRYGwxSFgv9NQl6rrC1U4Jm0ckdU7h2egAS
usHdXXmOyUK1tZed1a5kLX016s6v7wW4MJ3QiMGBdCIfe44StVVYj74PKWulYbKn
o8qD2fq8oeA64oeymNBj8QoS5P9BxZPK2TH1CaWZEdWkfP2JyQmgFyBK+znP0K4z
D4/QhR26oCvHKNGPxUTPTJUkYUACnF1mS0fDzybz2OEINs4v+3FL0n84wrvXunTp
sNLrRGx9FQH0fvoLH3kSGE8hSujpraiRgAB5PqWO+PsdSO9Bz4sjIEtPglZs2BJR
/PU6GdZ19W70zreroynX2jqhCu4IRNFbC0sSGI8m2ubSvBw2CqhtLeUmGGflPJ00
bLR+5IxRUtqAM/9f90s92tbcpcSctWBPoUuZbYW/s/AZQFxczJDBHeTZabbso5sL
8rD7eoqb9GhA9EoQ75qC9nZMFo/wT9KLK+f7GGBxBEPUXOD9+K1x1imjrK8elMfm
0kT/IkTVzABWz+yCnQJWKcJg8mOdQCtSLF0eKeCfw/dW5WHqmWpntZjc7ccuXEI9
b51LEVNHEhl1nTw0p23Aou8nueByGDcCAwEAAaNmMGQwDgYDVR0PAQH/BAQDAgEG
MBIGA1UdEwEB/wQIMAYBAf8CAQAwHQYDVR0OBBYEFIkkmEE4/j2AO9EWvppXO184
JiXfMB8GA1UdIwQYMBaAFH+y4K2rARthXv+uSH1FnzilTAImMA0GCSqGSIb3DQEB
CwUAA4ICAQBiJ2DlhTWyglaxuANwY3HyMXlhNr+AVz7N4b24zeVTB4nQH6Ec0DGz
SIB/l26wLugosrv5fB1r1qsbVZwBexMjao21tdAixizL5KOtCDrY4hKVYEJoJ0CJ
15F2oK1enT39aIwLQH3CpFEQSogC8n5FpwZngFEqjeiZBFQOtXxN++GysWicBPBt
Vk3rpxzDOnFMCHp+LVs0ym5UTbIkdQ5THfTjZYpUvSHu20LlZSr9mkXC8D2918gC
9H+HNoRpKRJRbApz4QEcFDC6rUOMTgUPu39yq1oAmvtBlZeTkCMiEkCsIviRcVGz
cRIcTSDphq0Slg15xdQy8HM2TpQol2Tyc60loVB6PckgIuFdHHSvvqV6xZdeRDrx
keuEDx2CZhhmHXtjdQ8WYKBI4U1SASfbpFOxV8Ql3POShpL+CmLFcTKWoF/EiMm7
W1bP8pxNEMModtblSFPzUfJoMxJjkQAr/Udli2DUdVIkjFmWkzshe3fpqEvGVPy+
yKIscJSKtwOlnizqsLeZpg9kdNFvXQtSOWXMWM5Tz3BRNu5sRqj/Vc88SHd6B046
ANgHWS2IBSq7wLSqKCAyjQ3XguExIOG9animNbZE88dJKxb8NEMbnB4NQ5GDIp7v
BgV09T8oWkKnqsmaI7rIqXvcTuJgD1pMqctpMtmQx7LvLvJGvfOIgQ==
-----END CERTIFICATE-----
