Certificate:
    Data:
        Version: 3 (0x2)
        Serial Number:
            22:5b:97:52:53:f2:36:d9:f6:c1:ac:57:5f:d0:f9:3d:75:5e:14:d4
        Signature Algorithm: ED25519
        Issuer: DC=ca, DC=lab5, O=Lab5 DevOps Inc., OU=www.lab5.ca, CN=Lab5 DevOps Inc. Root CA
        Validity
            Not Before: Mar 10 00:03:36 2024 GMT
            Not After : Mar 10 00:03:36 2034 GMT
        Subject: DC=ca, DC=lab5, O=Lab5 DevOps Inc., OU=www.lab5.ca, CN=Lab5 DevOps Inc. Issuing CA
        Subject Public Key Info:
            Public Key Algorithm: ED25519
                ED25519 Public-Key:
                pub:
                    45:4d:67:ac:eb:98:6c:27:7d:b0:14:22:b4:ef:ed:
                    79:27:c4:78:fc:f7:1a:b6:5a:ea:65:e7:3a:ce:16:
                    d9:f1
        X509v3 extensions:
            X509v3 Key Usage: critical
                Certificate Sign, CRL Sign
            X509v3 Basic Constraints: critical
                CA:TRUE, pathlen:0
            X509v3 Subject Key Identifier: 
                5C:A6:53:DD:75:8D:CE:A1:10:D6:C8:E5:CF:EC:3D:55:11:99:C6:F5
            X509v3 Authority Key Identifier: 
                B0:92:94:0D:06:2D:06:DA:9B:57:C1:E1:A8:AD:DB:98:4D:BD:EF:1E
    Signature Algorithm: ED25519
    Signature Value:
        80:a0:20:af:d9:da:c5:1c:31:2c:ee:3f:b1:c6:d1:c0:32:c6:
        5b:67:01:5d:79:33:cd:96:02:21:40:53:01:1d:23:70:a9:3b:
        60:1e:1e:51:31:b2:b1:20:c3:08:09:24:45:c5:42:32:9f:7b:
        37:a0:1b:b9:7c:23:d4:82:d9:09
-----BEGIN CERTIFICATE-----
MIICKDCCAdqgAwIBAgIUIluXUlPyNtn2waxXX9D5PXVeFNQwBQYDK2VwMH4xEjAQ
BgoJkiaJk/IsZAEZFgJjYTEUMBIGCgmSJomT8ixkARkWBGxhYjUxGTAXBgNVBAoM
EExhYjUgRGV2T3BzIEluYy4xFDASBgNVBAsMC3d3dy5sYWI1LmNhMSEwHwYDVQQD
DBhMYWI1IERldk9wcyBJbmMuIFJvb3QgQ0EwHhcNMjQwMzEwMDAwMzM2WhcNMzQw
MzEwMDAwMzM2WjCBgTESMBAGCgmSJomT8ixkARkWAmNhMRQwEgYKCZImiZPyLGQB
GRYEbGFiNTEZMBcGA1UECgwQTGFiNSBEZXZPcHMgSW5jLjEUMBIGA1UECwwLd3d3
LmxhYjUuY2ExJDAiBgNVBAMMG0xhYjUgRGV2T3BzIEluYy4gSXNzdWluZyBDQTAq
MAUGAytlcAMhAEVNZ6zrmGwnfbAUIrTv7XknxHj89xq2Wupl5zrOFtnxo2YwZDAO
BgNVHQ8BAf8EBAMCAQYwEgYDVR0TAQH/BAgwBgEB/wIBADAdBgNVHQ4EFgQUXKZT
3XWNzqEQ1sjlz+w9VRGZxvUwHwYDVR0jBBgwFoAUsJKUDQYtBtqbV8HhqK3bmE29
7x4wBQYDK2VwA0EAgKAgr9naxRwxLO4/scbRwDLGW2cBXXkzzZYCIUBTAR0jcKk7
YB4eUTGysSDDCAkkRcVCMp97N6AbuXwj1ILZCQ==
-----END CERTIFICATE-----
