Certificate:
    Data:
        Version: 3 (0x2)
        Serial Number:
            22:82:25:74:e3:fb:13:61:d4:47:5f:a6:6f:fc:a2:5e:d3:9d:8a:02
        Signature Algorithm: sha256WithRSAEncryption
        Issuer: DC=ca, DC=lab5, O=Lab5 DevOps Inc., OU=www.lab5.ca, CN=Lab5 DevOps Inc. Root CA
        Validity
            Not Before: May 20 11:57:06 2024 GMT
            Not After : May 20 11:57:06 2034 GMT
        Subject: DC=ca, DC=lab5, O=Lab5 DevOps Inc., OU=www.lab5.ca, CN=Lab5 DevOps Inc. Root CA
        Subject Public Key Info:
            Public Key Algorithm: rsaEncryption
                Public-Key: (4096 bit)
                Modulus:
                    00:9a:ca:43:ea:69:f5:3b:ff:28:a5:6f:46:6d:1a:
                    f7:b3:6d:4a:32:bb:c9:a1:05:7b:73:6f:96:38:51:
                    68:70:7f:13:a6:d3:38:63:ce:36:94:69:c7:8a:0d:
                    78:17:d6:5d:fd:0f:ad:c5:90:f2:e0:d3:24:4e:fe:
                    3c:da:99:d0:79:1b:93:a6:82:0e:b9:92:31:7e:10:
                    27:c2:7c:70:48:c3:38:d4:40:d2:59:e4:da:a2:98:
                    b7:97:70:07:af:3b:dd:26:75:67:39:87:7b:70:42:
                    cb:e8:42:99:8c:17:23:9a:fe:e4:76:62:70:4e:d9:
                    8f:05:2e:70:27:92:7a:5a:67:66:62:6b:eb:ee:4f:
                    46:db:95:4c:46:3d:7b:19:c7:41:41:6d:4e:4f:a4:
                    8a:89:45:f7:90:a2:f8:e1:83:36:ef:65:e9:d2:e3:
                    49:8b:09:ca:ff:a7:05:d2:06:23:51:19:09:9c:60:
                    19:fe:b4:d9:44:22:84:95:5e:57:d6:a5:07:75:4c:
                    21:63:72:b0:59:ed:5a:54:bc:07:20:50:b9:a6:89:
                    75:bf:2f:55:c9:23:bb:66:77:c8:ba:5f:bd:a3:46:
                    99:a0:58:8e:18:3f:48:87:a5:d4:c1:bb:32:77:60:
                    23:11:03:27:1a:ef:d9:7d:33:fb:8f:41:a1:6d:30:
                    06:c6:2b:26:fd:82:14:f3:9e:d5:d7:0b:03:f3:84:
                    37:48:cf:1f:92:86:d6:e6:b0:c4:43:27:2a:e2:cb:
                    ec:57:7a:e4:db:5c:2c:14:33:38:55:1f:c7:8c:95:
                    14:48:c9:b7:c4:dc:eb:51:aa:80:68:1e:4c:4d:1b:
                    57:de:ae:0b:d8:3e:6c:b5:8e:ee:fe:5a:eb:fc:7e:
                    0e:78:34:32:d9:77:90:d5:2a:fb:b3:dc:a8:17:11:
                    ce:6d:5a:89:30:3a:75:54:55:a0:cb:15:3f:ae:0f:
                    de:7d:e1:f8:54:03:8a:f3:1b:d7:13:39:34:67:d3:
                    77:28:93:df:6d:7f:33:6f:88:2f:68:27:43:03:69:
                    12:8a:b2:8a:c0:1b:2e:eb:46:30:e7:a0:9f:9b:62:
                    94:c9:d6:6f:25:3e:9b:59:82:4e:e4:71:70:c4:1b:
                    13:78:df:53:a9:73:13:35:8d:e9:14:13:c6:b2:df:
                    3a:4c:d7:f2:5f:dd:e3:ed:ef:ed:e1:7b:10:53:1f:
                    08:28:d1:17:53:70:d3:57:45:9f:97:fd:bf:69:b9:
                    fd:83:20:ea:8c:cd:7f:21:f0:63:42:ba:16:c8:2f:
                    c4:9a:04:c6:74:84:a6:bc:18:56:0e:26:41:9f:94:
                    0e:88:e2:92:bc:b7:30:ec:bc:23:26:7e:ba:58:e3:
                    e3:b3:b5
                Exponent: 65537 (0x10001)
        X509v3 extensions:
            X509v3 Key Usage: critical
                Certificate Sign, CRL Sign
            X509v3 Basic Constraints: critical
                CA:TRUE
            X509v3 Subject Key Identifier: 
                71:7F:E5:1E:10:15:47:56:05:74:37:77:E5:72:7B:BB:D2:3A:1B:9C
            X509v3 Authority Key Identifier: 
                71:7F:E5:1E:10:15:47:56:05:74:37:77:E5:72:7B:BB:D2:3A:1B:9C
    Signature Algorithm: sha256WithRSAEncryption
    Signature Value:
        58:eb:ea:ee:06:3d:20:9a:06:61:bf:a3:af:39:08:0d:f2:14:
        49:76:07:77:b7:2f:5f:07:4b:c7:d7:de:e1:d2:12:50:58:32:
        f9:83:5d:5a:34:d0:26:ef:50:b9:e5:d0:f6:df:45:0f:ae:b2:
        3c:13:6f:2a:3a:e7:0a:ba:3d:3b:7e:00:45:f5:ed:e7:f1:da:
        f0:68:b3:b8:92:b9:8d:12:c9:86:97:39:e3:49:84:8b:64:ec:
        6f:a5:d1:2a:72:34:7b:86:46:5a:ae:11:9d:c2:34:ec:91:e5:
        1f:5d:61:ac:c6:cd:e3:f8:4b:66:40:31:13:73:75:23:52:07:
        54:f9:40:31:cf:d2:47:bd:0d:ab:8a:16:fd:9a:d8:a7:e0:f2:
        8b:29:2a:b0:6d:dd:2d:78:fb:79:25:25:71:7c:73:db:46:2c:
        0f:82:52:b8:77:ce:77:8a:38:e8:58:5e:e4:37:e4:f8:c2:d4:
        4e:c1:07:74:98:7a:69:ce:15:23:11:85:42:c5:f6:8a:d1:a3:
        61:f4:41:67:59:92:e5:b4:dd:52:f4:20:d7:0f:15:45:5e:aa:
        12:ce:d4:57:eb:2a:e3:92:73:b4:ee:c8:e6:c8:00:fe:f2:f1:
        2b:7f:aa:1c:28:8c:a2:16:07:98:c9:2a:66:38:a2:43:7c:9f:
        36:86:e0:9d:0a:2b:33:28:2d:49:dd:c1:51:3e:19:d0:4a:d5:
        b9:ca:c1:68:0c:ff:30:09:14:a5:1b:1d:d2:90:a7:ba:05:b3:
        6a:dc:31:bc:24:4e:d7:af:87:ea:6f:3e:6f:92:38:ce:d9:df:
        01:4f:58:78:35:ce:43:1d:d1:69:09:e6:d5:37:80:43:be:6c:
        22:a0:23:b8:5a:b6:38:50:11:81:9a:85:63:07:14:af:0c:bf:
        47:d9:2f:9f:95:60:6c:89:13:9c:b9:fe:90:e8:d7:66:33:bc:
        2a:05:8f:05:fc:3b:07:39:41:11:8c:9b:14:c1:6d:3c:e1:22:
        2f:74:a2:b0:5d:42:8c:c1:71:a1:fd:3b:ec:45:0c:b5:21:f1:
        5d:58:0e:ed:ce:3c:1a:c4:7b:1b:04:10:0f:61:50:40:87:d2:
        53:56:54:ac:7c:65:24:b2:60:76:50:39:56:0f:42:e9:06:7c:
        61:5a:2c:a2:28:86:aa:87:be:a9:07:0b:bc:c5:74:a1:a7:47:
        c9:7c:9e:d3:96:1f:74:bd:15:e8:0e:83:c7:41:d5:32:37:75:
        6f:4b:8e:d7:5d:13:7e:50:7e:b7:ef:17:6d:3f:42:ca:57:b7:
        31:8b:c8:9a:76:49:24:ae:7f:08:b0:0f:3a:67:97:85:ce:44:
        f7:78:14:86:1d:fc:80:c6
-----BEGIN CERTIFICATE-----
MIIF7TCCA9WgAwIBAgIUIoIldOP7E2HUR1+mb/yiXtOdigIwDQYJKoZIhvcNAQEL
BQAwfjESMBAGCgmSJomT8ixkARkWAmNhMRQwEgYKCZImiZPyLGQBGRYEbGFiNTEZ
MBcGA1UECgwQTGFiNSBEZXZPcHMgSW5jLjEUMBIGA1UECwwLd3d3LmxhYjUuY2Ex
ITAfBgNVBAMMGExhYjUgRGV2T3BzIEluYy4gUm9vdCBDQTAeFw0yNDA1MjAxMTU3
MDZaFw0zNDA1MjAxMTU3MDZaMH4xEjAQBgoJkiaJk/IsZAEZFgJjYTEUMBIGCgmS
JomT8ixkARkWBGxhYjUxGTAXBgNVBAoMEExhYjUgRGV2T3BzIEluYy4xFDASBgNV
BAsMC3d3dy5sYWI1LmNhMSEwHwYDVQQDDBhMYWI1IERldk9wcyBJbmMuIFJvb3Qg
Q0EwggIiMA0GCSqGSIb3DQEBAQUAA4ICDwAwggIKAoICAQCaykPqafU7/yilb0Zt
GvezbUoyu8mhBXtzb5Y4UWhwfxOm0zhjzjaUaceKDXgX1l39D63FkPLg0yRO/jza
mdB5G5Omgg65kjF+ECfCfHBIwzjUQNJZ5NqimLeXcAevO90mdWc5h3twQsvoQpmM
FyOa/uR2YnBO2Y8FLnAnknpaZ2Zia+vuT0bblUxGPXsZx0FBbU5PpIqJRfeQovjh
gzbvZenS40mLCcr/pwXSBiNRGQmcYBn+tNlEIoSVXlfWpQd1TCFjcrBZ7VpUvAcg
ULmmiXW/L1XJI7tmd8i6X72jRpmgWI4YP0iHpdTBuzJ3YCMRAyca79l9M/uPQaFt
MAbGKyb9ghTzntXXCwPzhDdIzx+ShtbmsMRDJyriy+xXeuTbXCwUMzhVH8eMlRRI
ybfE3OtRqoBoHkxNG1fergvYPmy1ju7+Wuv8fg54NDLZd5DVKvuz3KgXEc5tWokw
OnVUVaDLFT+uD9594fhUA4rzG9cTOTRn03cok99tfzNviC9oJ0MDaRKKsorAGy7r
RjDnoJ+bYpTJ1m8lPptZgk7kcXDEGxN431OpcxM1jekUE8ay3zpM1/Jf3ePt7+3h
exBTHwgo0RdTcNNXRZ+X/b9puf2DIOqMzX8h8GNCuhbIL8SaBMZ0hKa8GFYOJkGf
lA6I4pK8tzDsvCMmfrpY4+OztQIDAQABo2MwYTAOBgNVHQ8BAf8EBAMCAQYwDwYD
VR0TAQH/BAUwAwEB/zAdBgNVHQ4EFgQUcX/lHhAVR1YFdDd35XJ7u9I6G5wwHwYD
VR0jBBgwFoAUcX/lHhAVR1YFdDd35XJ7u9I6G5wwDQYJKoZIhvcNAQELBQADggIB
AFjr6u4GPSCaBmG/o685CA3yFEl2B3e3L18HS8fX3uHSElBYMvmDXVo00CbvULnl
0PbfRQ+usjwTbyo65wq6PTt+AEX17efx2vBos7iSuY0SyYaXOeNJhItk7G+l0Spy
NHuGRlquEZ3CNOyR5R9dYazGzeP4S2ZAMRNzdSNSB1T5QDHP0ke9DauKFv2a2Kfg
8ospKrBt3S14+3klJXF8c9tGLA+CUrh3zneKOOhYXuQ35PjC1E7BB3SYemnOFSMR
hULF9orRo2H0QWdZkuW03VL0INcPFUVeqhLO1FfrKuOSc7TuyObIAP7y8St/qhwo
jKIWB5jJKmY4okN8nzaG4J0KKzMoLUndwVE+GdBK1bnKwWgM/zAJFKUbHdKQp7oF
s2rcMbwkTtevh+pvPm+SOM7Z3wFPWHg1zkMd0WkJ5tU3gEO+bCKgI7hatjhQEYGa
hWMHFK8Mv0fZL5+VYGyJE5y5/pDo12YzvCoFjwX8Owc5QRGMmxTBbTzhIi90orBd
QozBcaH9O+xFDLUh8V1YDu3OPBrEexsEEA9hUECH0lNWVKx8ZSSyYHZQOVYPQukG
fGFaLKIohqqHvqkHC7zFdKGnR8l8ntOWH3S9FegOg8dB1TI3dW9LjtddE35Qfrfv
F20/QspXtzGLyJp2SSSufwiwDzpnl4XORPd4FIYd/IDG
-----END CERTIFICATE-----
