Certificate:
    Data:
        Version: 3 (0x2)
        Serial Number:
            28:3a:f5:59:65:9d:72:25:83:18:0e:8b:31:f0:69:7b:bb:9c:a3:85
        Signature Algorithm: sha256WithRSAEncryption
        Issuer: DC=ca, DC=lab5, O=Lab5 DevOps Inc., OU=www.lab5.ca, CN=Lab5 DevOps Inc. Root CA
        Validity
            Not Before: Mar 17 21:19:20 2024 GMT
            Not After : Mar 17 21:19:20 2034 GMT
        Subject: DC=ca, DC=lab5, O=Lab5 DevOps Inc., OU=www.lab5.ca, CN=Lab5 DevOps Inc. Issuing CA
        Subject Public Key Info:
            Public Key Algorithm: rsaEncryption
                Public-Key: (2048 bit)
                Modulus:
                    00:bd:3a:e0:e6:00:e2:11:5e:6b:dd:e4:d8:14:b1:
                    fd:71:39:9b:0c:a8:84:38:32:fc:78:cf:73:1f:78:
                    64:68:4c:75:9d:12:19:dd:d5:9f:d2:79:cc:97:e3:
                    51:0a:5c:75:14:a8:22:66:2e:df:18:1a:6d:1e:8a:
                    5c:30:12:88:2a:ac:dc:af:40:8f:33:f9:c0:e1:b7:
                    65:29:ad:b9:59:97:92:78:2a:6f:9e:fb:75:6a:5a:
                    33:07:5e:03:87:13:cb:95:a0:93:0e:94:98:90:c8:
                    22:3c:2a:b2:f9:57:1a:b7:1a:9b:1f:19:3d:61:1a:
                    79:54:f6:19:73:36:21:4c:28:53:82:ca:66:82:3e:
                    83:73:6a:57:1b:fd:20:bd:1b:2b:5b:ee:04:46:d2:
                    b0:88:be:bb:3a:f7:4a:76:a2:2e:e8:bb:a4:2c:45:
                    45:7b:c7:2b:6e:e9:78:d4:6b:52:10:a9:53:35:3d:
                    73:26:fb:2c:98:1f:9e:6a:f2:d3:a3:68:87:f7:0e:
                    42:52:5d:7d:b0:6f:fd:d7:e0:7f:f8:c6:ec:3d:59:
                    58:1a:46:ca:67:95:a5:5d:2a:8b:53:44:16:08:3d:
                    29:10:d7:74:cb:4a:72:30:f9:49:aa:f6:88:72:54:
                    fc:3c:4b:35:24:0d:22:ab:1b:39:6d:70:8d:90:2d:
                    7a:f1
                Exponent: 65537 (0x10001)
        X509v3 extensions:
            X509v3 Key Usage: critical
                Certificate Sign, CRL Sign
            X509v3 Basic Constraints: critical
                CA:TRUE, pathlen:0
            X509v3 Subject Key Identifier: 
                9E:AD:B5:AC:D1:D7:CD:C7:0A:19:D7:DA:07:A3:A4:64:5A:D5:95:D4
            X509v3 Authority Key Identifier: 
                7A:EE:88:F9:71:BC:50:7E:DF:15:16:0A:08:D1:D2:43:CD:6F:B0:47
    Signature Algorithm: sha256WithRSAEncryption
    Signature Value:
        84:81:de:2d:71:00:ad:b6:58:7f:3b:73:82:fb:54:15:2e:07:
        16:c1:6f:68:30:b1:05:1f:4e:00:3c:7a:69:b5:fa:36:c7:91:
        db:5d:f8:3f:aa:9c:49:b0:f6:78:07:97:3e:b3:8a:a4:0e:e5:
        06:47:f2:2c:66:0f:11:ba:c8:65:60:7b:7c:e3:c7:a3:de:9f:
        f5:16:a2:da:9a:ff:0c:01:4f:54:6d:0b:0e:78:50:44:c5:16:
        ca:6e:9e:ff:fa:5f:33:05:78:3b:28:0d:27:19:f9:bf:f6:b4:
        56:a2:86:65:e4:ea:3e:b2:50:8c:04:43:07:bf:0c:2e:a3:0b:
        4b:9b:b4:b9:5b:2a:3b:64:51:68:75:d5:73:43:ec:89:ba:79:
        98:9b:50:02:99:01:2e:b4:d6:3e:c2:61:b4:9d:bd:7a:a7:fa:
        fa:72:f3:59:7f:11:09:32:b5:0f:89:0b:9e:e0:fb:11:45:47:
        59:cf:c2:10:ac:da:53:1b:a8:e5:84:86:0e:fe:44:75:51:ff:
        8a:26:20:e1:cf:06:42:7c:45:6b:43:e4:73:b3:c3:8d:28:6a:
        ec:af:58:c0:ca:44:c6:3a:14:13:98:c0:e1:ca:a3:7b:86:69:
        b0:50:c7:94:36:95:fb:fe:85:87:5b:05:13:ed:0c:82:54:41:
        41:83:ca:64
-----BEGIN CERTIFICATE-----
MIID9DCCAtygAwIBAgIUKDr1WWWdciWDGA6LMfBpe7uco4UwDQYJKoZIhvcNAQEL
BQAwfjESMBAGCgmSJomT8ixkARkWAmNhMRQwEgYKCZImiZPyLGQBGRYEbGFiNTEZ
MBcGA1UECgwQTGFiNSBEZXZPcHMgSW5jLjEUMBIGA1UECwwLd3d3LmxhYjUuY2Ex
ITAfBgNVBAMMGExhYjUgRGV2T3BzIEluYy4gUm9vdCBDQTAeFw0yNDAzMTcyMTE5
MjBaFw0zNDAzMTcyMTE5MjBaMIGBMRIwEAYKCZImiZPyLGQBGRYCY2ExFDASBgoJ
kiaJk/IsZAEZFgRsYWI1MRkwFwYDVQQKDBBMYWI1IERldk9wcyBJbmMuMRQwEgYD
VQQLDAt3d3cubGFiNS5jYTEkMCIGA1UEAwwbTGFiNSBEZXZPcHMgSW5jLiBJc3N1
aW5nIENBMIIBIjANBgkqhkiG9w0BAQEFAAOCAQ8AMIIBCgKCAQEAvTrg5gDiEV5r
3eTYFLH9cTmbDKiEODL8eM9zH3hkaEx1nRIZ3dWf0nnMl+NRClx1FKgiZi7fGBpt
HopcMBKIKqzcr0CPM/nA4bdlKa25WZeSeCpvnvt1alozB14DhxPLlaCTDpSYkMgi
PCqy+VcatxqbHxk9YRp5VPYZczYhTChTgspmgj6Dc2pXG/0gvRsrW+4ERtKwiL67
OvdKdqIu6LukLEVFe8crbul41GtSEKlTNT1zJvssmB+eavLTo2iH9w5CUl19sG/9
1+B/+MbsPVlYGkbKZ5WlXSqLU0QWCD0pENd0y0pyMPlJqvaIclT8PEs1JA0iqxs5
bXCNkC168QIDAQABo2YwZDAOBgNVHQ8BAf8EBAMCAQYwEgYDVR0TAQH/BAgwBgEB
/wIBADAdBgNVHQ4EFgQUnq21rNHXzccKGdfaB6OkZFrVldQwHwYDVR0jBBgwFoAU
eu6I+XG8UH7fFRYKCNHSQ81vsEcwDQYJKoZIhvcNAQELBQADggEBAISB3i1xAK22
WH87c4L7VBUuBxbBb2gwsQUfTgA8emm1+jbHkdtd+D+qnEmw9ngHlz6ziqQO5QZH
8ixmDxG6yGVge3zjx6Pen/UWotqa/wwBT1RtCw54UETFFspunv/6XzMFeDsoDScZ
+b/2tFaihmXk6j6yUIwEQwe/DC6jC0ubtLlbKjtkUWh11XND7Im6eZibUAKZAS60
1j7CYbSdvXqn+vpy81l/EQkytQ+JC57g+xFFR1nPwhCs2lMbqOWEhg7+RHVR/4om
IOHPBkJ8RWtD5HOzw40oauyvWMDKRMY6FBOYwOHKo3uGabBQx5Q2lfv+hYdbBRPt
DIJUQUGDymQ=
-----END CERTIFICATE-----
