Certificate:
    Data:
        Version: 3 (0x2)
        Serial Number:
            29:c2:31:44:c5:ba:23:69:9b:e8:53:10:d9:30:cb:57:66:69:28:f6
        Signature Algorithm: sha256WithRSAEncryption
        Issuer: DC=ca, DC=lab5, O=Lab5 DevOps Inc., OU=www.lab5.ca, CN=Lab5 DevOps Inc. Root CA
        Validity
            Not Before: Mar 28 23:41:28 2024 GMT
            Not After : Mar 28 23:41:28 2034 GMT
        Subject: DC=ca, DC=lab5, O=Lab5 DevOps Inc., OU=www.lab5.ca, CN=Lab5 DevOps Inc. Issuing CA
        Subject Public Key Info:
            Public Key Algorithm: rsaEncryption
                Public-Key: (2048 bit)
                Modulus:
                    00:d6:6d:dc:59:69:30:55:7d:41:0f:12:61:a1:86:
                    d7:5d:c6:15:3a:c9:1d:aa:92:32:91:01:fd:0b:9f:
                    fe:2d:eb:dd:b5:a8:03:41:46:b4:73:e2:54:a8:b9:
                    7b:77:21:1c:71:45:c0:96:42:73:4c:e5:37:78:87:
                    b5:b9:d5:5f:c9:9d:fe:1b:ec:6f:a7:04:fc:42:93:
                    fc:0c:a2:73:ad:a1:13:78:ae:a9:13:9f:68:09:30:
                    4f:3a:3b:66:5e:e1:94:f7:d7:d6:8d:04:f3:a9:7d:
                    e5:8c:b7:85:80:fd:6d:20:b8:69:5f:f9:ea:ed:cb:
                    19:f8:53:b9:35:e1:a3:41:2a:bf:3e:0e:f4:72:c8:
                    3a:4e:06:54:86:6e:fb:a9:08:28:8c:f5:76:8c:e2:
                    c0:59:37:6f:ae:5c:11:51:77:35:8b:ab:8d:11:69:
                    76:af:f4:80:ab:47:6f:ed:ef:ae:29:56:e0:eb:9e:
                    54:86:ab:e3:6a:32:47:48:9b:d9:24:42:7a:b3:e2:
                    8a:f6:1c:b2:f1:ef:cc:6f:4a:cc:0a:b5:d3:3a:04:
                    84:3c:68:f7:71:e3:d3:51:65:0b:8b:3b:32:9f:9a:
                    bd:81:94:74:04:a4:ac:4c:a5:e8:b4:e8:fc:ec:c3:
                    57:74:21:11:0a:bb:45:16:a1:17:b2:b3:d2:02:94:
                    9a:59
                Exponent: 65537 (0x10001)
        X509v3 extensions:
            X509v3 Key Usage: critical
                Certificate Sign, CRL Sign
            X509v3 Basic Constraints: critical
                CA:TRUE, pathlen:0
            X509v3 Subject Key Identifier: 
                AF:4B:C6:8F:BC:F9:19:AE:1D:11:C9:B9:AB:FF:FE:48:21:21:3F:F0
            X509v3 Authority Key Identifier: 
                78:A7:E0:FF:0D:C2:50:09:AF:B6:86:FB:FB:45:A7:7E:51:40:76:DD
    Signature Algorithm: sha256WithRSAEncryption
    Signature Value:
        9f:28:1e:0a:af:06:8e:d4:ee:73:9c:9e:d9:86:79:ae:02:4d:
        8d:f2:cf:d2:e6:64:4f:76:22:04:8d:12:66:de:2c:6b:14:a7:
        d8:39:78:12:20:02:f6:11:9d:da:5a:c5:1c:29:e7:85:77:16:
        b0:5c:c3:57:90:0e:72:12:64:76:3d:b3:25:be:2f:33:f2:14:
        66:20:a3:e2:65:d8:b4:a4:8a:3e:92:4a:5f:5a:0a:46:08:be:
        52:ff:9d:c2:58:b8:d5:64:a0:f4:2a:5b:0e:79:26:60:d9:a2:
        9d:31:d3:1a:2f:ff:85:60:56:80:5c:f6:9d:cf:29:83:76:30:
        bc:b7:e4:04:89:26:24:a3:36:95:bc:5c:20:17:3a:3c:f5:e7:
        db:c5:98:cd:65:a9:c7:95:58:84:aa:38:58:2b:1c:a6:d9:22:
        6a:f4:5d:a3:63:68:3c:47:21:1a:b7:e3:3d:c4:72:f7:4c:ba:
        e6:b4:dd:69:26:53:d2:c5:af:59:79:4b:4e:f7:bc:65:cc:04:
        09:fe:7b:85:8a:82:b1:2c:fa:40:28:56:76:11:fb:ce:5d:f4:
        f5:a7:4b:df:f6:9d:9e:19:69:db:a0:07:57:d2:8e:f2:24:12:
        a4:aa:7f:e4:80:e9:3e:82:25:1b:f8:fc:41:91:6d:b7:52:98:
        38:8b:fd:2f
-----BEGIN CERTIFICATE-----
MIID9DCCAtygAwIBAgIUKcIxRMW6I2mb6FMQ2TDLV2ZpKPYwDQYJKoZIhvcNAQEL
BQAwfjESMBAGCgmSJomT8ixkARkWAmNhMRQwEgYKCZImiZPyLGQBGRYEbGFiNTEZ
MBcGA1UECgwQTGFiNSBEZXZPcHMgSW5jLjEUMBIGA1UECwwLd3d3LmxhYjUuY2Ex
ITAfBgNVBAMMGExhYjUgRGV2T3BzIEluYy4gUm9vdCBDQTAeFw0yNDAzMjgyMzQx
MjhaFw0zNDAzMjgyMzQxMjhaMIGBMRIwEAYKCZImiZPyLGQBGRYCY2ExFDASBgoJ
kiaJk/IsZAEZFgRsYWI1MRkwFwYDVQQKDBBMYWI1IERldk9wcyBJbmMuMRQwEgYD
VQQLDAt3d3cubGFiNS5jYTEkMCIGA1UEAwwbTGFiNSBEZXZPcHMgSW5jLiBJc3N1
aW5nIENBMIIBIjANBgkqhkiG9w0BAQEFAAOCAQ8AMIIBCgKCAQEA1m3cWWkwVX1B
DxJhoYbXXcYVOskdqpIykQH9C5/+LevdtagDQUa0c+JUqLl7dyEccUXAlkJzTOU3
eIe1udVfyZ3+G+xvpwT8QpP8DKJzraETeK6pE59oCTBPOjtmXuGU99fWjQTzqX3l
jLeFgP1tILhpX/nq7csZ+FO5NeGjQSq/Pg70csg6TgZUhm77qQgojPV2jOLAWTdv
rlwRUXc1i6uNEWl2r/SAq0dv7e+uKVbg655UhqvjajJHSJvZJEJ6s+KK9hyy8e/M
b0rMCrXTOgSEPGj3cePTUWULizsyn5q9gZR0BKSsTKXotOj87MNXdCERCrtFFqEX
srPSApSaWQIDAQABo2YwZDAOBgNVHQ8BAf8EBAMCAQYwEgYDVR0TAQH/BAgwBgEB
/wIBADAdBgNVHQ4EFgQUr0vGj7z5Ga4dEcm5q//+SCEhP/AwHwYDVR0jBBgwFoAU
eKfg/w3CUAmvtob7+0WnflFAdt0wDQYJKoZIhvcNAQELBQADggEBAJ8oHgqvBo7U
7nOcntmGea4CTY3yz9LmZE92IgSNEmbeLGsUp9g5eBIgAvYRndpaxRwp54V3FrBc
w1eQDnISZHY9syW+LzPyFGYgo+Jl2LSkij6SSl9aCkYIvlL/ncJYuNVkoPQqWw55
JmDZop0x0xov/4VgVoBc9p3PKYN2MLy35ASJJiSjNpW8XCAXOjz159vFmM1lqceV
WISqOFgrHKbZImr0XaNjaDxHIRq34z3EcvdMuua03WkmU9LFr1l5S073vGXMBAn+
e4WKgrEs+kAoVnYR+85d9PWnS9/2nZ4ZadugB1fSjvIkEqSqf+SA6T6CJRv4/EGR
bbdSmDiL/S8=
-----END CERTIFICATE-----
