Certificate:
    Data:
        Version: 3 (0x2)
        Serial Number:
            37:23:3f:ab:d8:2b:33:c4:ca:e2:c1:47:95:92:53:d9:cc:81:43:cc
        Signature Algorithm: sha256WithRSAEncryption
        Issuer: DC=ca, DC=lab5, O=Lab5 DevOps Inc., OU=www.lab5.ca, CN=Lab5 DevOps Inc. Root CA
        Validity
            Not Before: May 19 17:35:49 2024 GMT
            Not After : May 19 17:35:49 2034 GMT
        Subject: DC=ca, DC=lab5, O=Lab5 DevOps Inc., OU=www.lab5.ca, CN=Lab5 DevOps Inc. Root CA
        Subject Public Key Info:
            Public Key Algorithm: rsaEncryption
                Public-Key: (4096 bit)
                Modulus:
                    00:d5:6a:3f:19:a1:e8:0a:fd:85:96:4e:51:06:af:
                    e1:51:f7:ce:e9:f2:c5:5d:4f:04:40:7e:1b:3b:27:
                    6c:70:da:5a:4c:a7:d3:a8:88:d3:22:01:d4:fa:a6:
                    9f:a3:b2:6a:a0:29:ea:41:2f:ef:40:e2:b7:28:5b:
                    81:8d:1c:a1:10:31:72:16:a5:4b:2f:c7:2c:03:1d:
                    a4:d3:5d:a0:f7:35:bd:d7:49:4a:2a:ce:ac:e3:78:
                    0b:56:a6:c5:e1:85:42:9c:66:96:be:9d:2e:fd:a9:
                    cd:61:58:f4:bc:8e:69:79:43:c7:f2:f6:40:4a:ae:
                    ef:99:cd:ec:44:e1:38:a3:60:a2:15:ad:b6:2b:a2:
                    ac:da:94:cd:2d:a4:d8:b2:e4:38:50:98:d9:ed:95:
                    d5:9c:3b:7f:99:13:9b:4b:04:06:cb:74:3d:a9:89:
                    bb:cc:fb:8d:83:71:86:92:0e:63:01:12:78:9b:02:
                    22:0e:cd:ad:57:fd:b3:66:7a:2d:4a:8e:d8:ee:b6:
                    88:59:9a:ac:e7:e3:d2:78:ce:29:55:da:cc:82:61:
                    9a:5d:ec:a5:0c:bb:23:6e:94:d0:06:e6:b2:cb:c0:
                    ee:8d:65:74:49:93:85:fe:99:8b:ce:10:0f:71:2d:
                    ff:9e:c4:29:33:ec:c7:aa:3c:0e:6c:64:b1:65:a8:
                    6a:dd:a4:69:54:47:5e:e1:f6:18:26:ef:6c:0a:c1:
                    c9:8a:9e:50:a3:6d:6c:72:4a:40:d0:49:c7:5b:69:
                    bb:20:d5:e4:9f:e7:47:4c:c1:74:9b:d4:b0:eb:da:
                    9e:17:27:ed:ee:0f:56:31:e8:76:f6:50:ae:2c:99:
                    34:7f:a3:f8:49:75:82:6d:02:80:36:72:df:52:57:
                    df:13:42:0c:d1:0c:49:52:4d:5e:9e:84:3b:7f:39:
                    2f:1c:ea:40:a9:67:de:dd:b8:d8:45:19:7c:d0:21:
                    79:a2:fc:ea:27:f5:20:93:4b:c4:a0:fe:d8:df:af:
                    52:79:5e:a2:d9:30:6d:9e:f0:a4:ae:4f:68:99:7d:
                    6f:22:a2:d0:c4:70:f1:79:03:8a:46:87:e0:7f:69:
                    22:c1:91:ac:9f:81:b8:77:6e:e5:b6:ef:90:68:a2:
                    f9:64:79:e8:e2:37:ca:aa:2c:da:62:7c:58:93:b9:
                    96:fe:42:bb:61:65:7c:b1:35:14:ce:f1:7d:30:49:
                    39:a0:6f:a1:70:23:95:6a:f5:98:4b:45:c1:ab:f2:
                    06:52:d2:b6:3e:b9:fb:90:ba:00:a0:c7:7b:1c:af:
                    f3:34:fa:55:dc:54:77:65:74:2a:8f:d3:35:8e:5f:
                    1e:f0:5f:3d:4a:27:70:20:fb:af:5d:41:e0:b4:c0:
                    52:6c:bf
                Exponent: 65537 (0x10001)
        X509v3 extensions:
            X509v3 Key Usage: critical
                Certificate Sign, CRL Sign
            X509v3 Basic Constraints: critical
                CA:TRUE
            X509v3 Subject Key Identifier: 
                6A:F1:1A:6E:C2:4D:B5:A0:BF:48:9E:C1:E1:B6:36:E1:C1:ED:17:89
            X509v3 Authority Key Identifier: 
                6A:F1:1A:6E:C2:4D:B5:A0:BF:48:9E:C1:E1:B6:36:E1:C1:ED:17:89
    Signature Algorithm: sha256WithRSAEncryption
    Signature Value:
        30:f4:3b:52:5f:55:92:46:d0:27:cc:28:dd:ea:65:5c:0c:da:
        41:a6:a6:fc:3b:88:1b:54:ea:f4:32:dc:81:75:06:eb:cf:79:
        b3:81:ae:e0:fe:65:8b:eb:94:b7:5a:5c:a4:8f:b8:69:7f:00:
        3e:74:32:00:7a:a2:86:d4:28:c8:c8:38:26:2b:3b:60:ab:21:
        60:f5:63:1a:d0:e9:55:33:62:14:16:b4:f3:dc:ad:db:3c:3f:
        17:26:7f:f9:39:39:1c:7d:4b:4e:72:7f:03:d2:ec:6c:6f:3e:
        49:ad:a3:54:62:6b:31:8f:eb:0f:3e:ad:03:d0:b8:c3:22:0b:
        20:cd:8d:7f:8c:b4:5f:bd:ee:24:a0:b3:a7:b6:23:76:67:92:
        b8:6f:e9:44:e9:2e:4e:2c:76:00:aa:27:5c:15:45:dc:4f:21:
        c1:01:d8:f7:75:bc:ec:59:b5:43:3d:e8:6d:af:b1:70:fc:a4:
        2b:49:30:2c:10:7a:dd:45:8a:e9:f8:6d:57:f7:0f:9f:fe:15:
        d3:f8:f9:0f:34:a2:4b:8f:bb:d2:2c:62:4b:aa:8b:0c:51:cf:
        a1:8b:f1:db:f4:ec:eb:b1:bf:2c:64:c7:ee:01:28:f2:68:9f:
        e1:73:8c:9c:48:c0:af:b8:7b:30:b5:c2:f5:bd:d3:2c:d0:58:
        a2:17:cb:74:41:ed:5c:b0:6e:0b:7b:62:28:82:80:12:70:a8:
        de:45:e4:52:80:4e:0d:f9:23:66:ab:df:27:d1:b8:d8:de:94:
        ea:5a:4d:4d:c1:ad:db:5b:b6:84:21:94:38:4d:fa:64:72:38:
        be:23:61:c5:34:48:0e:11:39:a0:b8:27:b0:59:13:5f:d9:f8:
        10:3b:0a:65:93:b8:b5:8a:72:73:34:bf:17:4c:2f:e4:91:a4:
        a4:90:bc:f7:a3:e9:15:46:61:77:49:35:5a:df:16:d1:0e:13:
        b2:d7:df:54:77:4a:5b:1b:2f:9e:24:56:db:d9:a4:39:9a:56:
        a6:47:fa:3b:ef:d6:8a:9d:57:f2:47:4b:b8:7c:f8:74:9e:f9:
        91:be:43:26:d5:e8:ef:9d:e4:d8:83:5c:86:ed:4b:b9:5d:3f:
        4c:04:53:39:0f:14:ac:41:76:d9:8c:45:b5:71:16:54:0c:9d:
        6f:35:fa:c0:24:1d:1c:00:4e:6e:0a:32:50:80:89:e8:cd:0d:
        21:50:77:b1:62:a2:7e:30:b6:9b:bf:b6:01:05:be:ab:68:7c:
        42:13:05:d8:e4:65:3e:76:0c:a7:08:2e:16:40:c7:e6:c2:8f:
        60:9f:62:b2:c0:db:ec:4b:e4:d9:f1:1f:b3:5b:1e:13:aa:41:
        d1:16:6e:5c:8e:16:1d:43
-----BEGIN CERTIFICATE-----
MIIF7TCCA9WgAwIBAgIUNyM/q9grM8TK4sFHlZJT2cyBQ8wwDQYJKoZIhvcNAQEL
BQAwfjESMBAGCgmSJomT8ixkARkWAmNhMRQwEgYKCZImiZPyLGQBGRYEbGFiNTEZ
MBcGA1UECgwQTGFiNSBEZXZPcHMgSW5jLjEUMBIGA1UECwwLd3d3LmxhYjUuY2Ex
ITAfBgNVBAMMGExhYjUgRGV2T3BzIEluYy4gUm9vdCBDQTAeFw0yNDA1MTkxNzM1
NDlaFw0zNDA1MTkxNzM1NDlaMH4xEjAQBgoJkiaJk/IsZAEZFgJjYTEUMBIGCgmS
JomT8ixkARkWBGxhYjUxGTAXBgNVBAoMEExhYjUgRGV2T3BzIEluYy4xFDASBgNV
BAsMC3d3dy5sYWI1LmNhMSEwHwYDVQQDDBhMYWI1IERldk9wcyBJbmMuIFJvb3Qg
Q0EwggIiMA0GCSqGSIb3DQEBAQUAA4ICDwAwggIKAoICAQDVaj8ZoegK/YWWTlEG
r+FR987p8sVdTwRAfhs7J2xw2lpMp9OoiNMiAdT6pp+jsmqgKepBL+9A4rcoW4GN
HKEQMXIWpUsvxywDHaTTXaD3Nb3XSUoqzqzjeAtWpsXhhUKcZpa+nS79qc1hWPS8
jml5Q8fy9kBKru+ZzexE4TijYKIVrbYroqzalM0tpNiy5DhQmNntldWcO3+ZE5tL
BAbLdD2pibvM+42DcYaSDmMBEnibAiIOza1X/bNmei1KjtjutohZmqzn49J4zilV
2syCYZpd7KUMuyNulNAG5rLLwO6NZXRJk4X+mYvOEA9xLf+exCkz7MeqPA5sZLFl
qGrdpGlUR17h9hgm72wKwcmKnlCjbWxySkDQScdbabsg1eSf50dMwXSb1LDr2p4X
J+3uD1Yx6Hb2UK4smTR/o/hJdYJtAoA2ct9SV98TQgzRDElSTV6ehDt/OS8c6kCp
Z97duNhFGXzQIXmi/Oon9SCTS8Sg/tjfr1J5XqLZMG2e8KSuT2iZfW8iotDEcPF5
A4pGh+B/aSLBkayfgbh3buW275BoovlkeejiN8qqLNpifFiTuZb+QrthZXyxNRTO
8X0wSTmgb6FwI5Vq9ZhLRcGr8gZS0rY+ufuQugCgx3scr/M0+lXcVHdldCqP0zWO
Xx7wXz1KJ3Ag+69dQeC0wFJsvwIDAQABo2MwYTAOBgNVHQ8BAf8EBAMCAQYwDwYD
VR0TAQH/BAUwAwEB/zAdBgNVHQ4EFgQUavEabsJNtaC/SJ7B4bY24cHtF4kwHwYD
VR0jBBgwFoAUavEabsJNtaC/SJ7B4bY24cHtF4kwDQYJKoZIhvcNAQELBQADggIB
ADD0O1JfVZJG0CfMKN3qZVwM2kGmpvw7iBtU6vQy3IF1BuvPebOBruD+ZYvrlLda
XKSPuGl/AD50MgB6oobUKMjIOCYrO2CrIWD1YxrQ6VUzYhQWtPPcrds8Pxcmf/k5
ORx9S05yfwPS7GxvPkmto1RiazGP6w8+rQPQuMMiCyDNjX+MtF+97iSgs6e2I3Zn
krhv6UTpLk4sdgCqJ1wVRdxPIcEB2Pd1vOxZtUM96G2vsXD8pCtJMCwQet1Fiun4
bVf3D5/+FdP4+Q80okuPu9IsYkuqiwxRz6GL8dv07Ouxvyxkx+4BKPJon+FzjJxI
wK+4ezC1wvW90yzQWKIXy3RB7Vywbgt7YiiCgBJwqN5F5FKATg35I2ar3yfRuNje
lOpaTU3BrdtbtoQhlDhN+mRyOL4jYcU0SA4ROaC4J7BZE1/Z+BA7CmWTuLWKcnM0
vxdML+SRpKSQvPej6RVGYXdJNVrfFtEOE7LX31R3SlsbL54kVtvZpDmaVqZH+jvv
1oqdV/JHS7h8+HSe+ZG+QybV6O+d5NiDXIbtS7ldP0wEUzkPFKxBdtmMRbVxFlQM
nW81+sAkHRwATm4KMlCAiejNDSFQd7Fion4wtpu/tgEFvqtofEITBdjkZT52DKcI
LhZAx+bCj2CfYrLA2+xL5NnxH7NbHhOqQdEWblyOFh1D
-----END CERTIFICATE-----
