Certificate:
    Data:
        Version: 3 (0x2)
        Serial Number:
            55:9c:6c:c6:b6:78:2d:7e:56:72:81:70:f0:41:38:9f:f6:6e:04:fe
        Signature Algorithm: sha256WithRSAEncryption
        Issuer: DC=ca, DC=lab5, O=Lab5 DevOps Inc., OU=www.lab5.ca, CN=Lab5 DevOps Inc. Root CA
        Validity
            Not Before: May 20 11:57:29 2024 GMT
            Not After : May 20 11:57:29 2034 GMT
        Subject: DC=ca, DC=lab5, O=Lab5 DevOps Inc., OU=www.lab5.ca, CN=Lab5 DevOps Inc. Issuing CA
        Subject Public Key Info:
            Public Key Algorithm: rsaEncryption
                Public-Key: (4096 bit)
                Modulus:
                    00:aa:80:b3:08:17:0b:58:c4:cf:00:9c:62:17:90:
                    75:ac:d5:8f:f9:17:be:8a:b1:ef:73:a7:1c:0e:af:
                    83:b0:f2:89:36:9f:df:f9:32:e2:15:c7:0a:28:24:
                    d2:00:be:06:ff:13:7f:b3:5e:55:f8:03:91:99:90:
                    3f:61:56:31:58:7d:f3:35:54:5f:bc:df:70:fe:07:
                    e8:13:85:01:e2:41:47:20:74:47:e5:fa:f9:4c:9a:
                    c2:f4:6c:06:be:d7:e0:13:d2:2c:92:6d:56:0d:96:
                    3b:94:61:f7:72:d3:0b:53:93:58:53:c1:9e:c5:72:
                    5e:ac:bf:31:0a:07:ce:36:d5:a5:1b:6f:6d:ad:81:
                    28:a8:94:b0:41:52:95:10:d7:7f:33:5d:ae:37:52:
                    80:06:18:9e:44:70:fd:8c:8e:07:fc:d4:c6:61:03:
                    74:b3:ee:e9:8d:d5:ba:5c:84:c1:2c:f2:7d:a0:5f:
                    61:1b:94:a9:39:c0:cd:57:da:13:c7:cd:0b:f5:13:
                    c0:56:19:b6:51:5c:b8:00:a8:b1:33:ed:96:9e:0d:
                    6b:13:d4:af:e8:af:46:08:0a:2b:6f:d0:cb:34:68:
                    d4:6b:e5:84:b0:06:29:11:07:4a:97:1a:6a:48:33:
                    16:a3:d5:c2:d2:42:8e:ac:b5:ec:71:ef:de:17:24:
                    2b:d9:0f:a6:73:18:02:18:5e:83:a0:82:eb:92:ca:
                    17:04:3c:0e:20:23:57:e5:da:c9:15:01:67:b4:45:
                    8d:bd:a2:4e:4f:cd:01:e0:15:23:59:60:7e:9e:64:
                    de:88:27:db:a5:6d:f3:97:5e:32:d5:cc:89:5e:fc:
                    21:31:6d:7c:16:43:5e:26:93:94:05:c1:c1:4c:da:
                    a7:c7:50:d5:9c:c9:3e:bb:b7:ca:d6:c8:c0:03:30:
                    9f:57:4d:4f:46:2b:ee:a3:2f:ec:79:ae:06:49:2b:
                    e4:81:b1:cb:8e:95:4b:9b:11:c4:68:e6:99:7c:34:
                    80:a3:bf:2d:34:d9:dd:12:4c:8c:fe:e7:ba:0a:f1:
                    73:29:74:40:d7:3e:4e:d9:14:3b:e5:55:67:84:ff:
                    90:37:d5:00:14:d5:bd:86:3c:96:05:af:ae:6f:dd:
                    48:5f:7b:27:13:b6:23:34:39:ae:bc:8c:94:2b:a3:
                    b6:78:e4:1b:23:8f:97:ba:05:f0:64:a1:0e:5f:e2:
                    7c:d8:dc:06:2f:9f:d2:69:d2:9a:f5:51:80:de:77:
                    f4:b5:c9:92:8c:81:c9:99:16:d0:98:18:df:9c:16:
                    94:b2:3c:6c:42:b8:16:66:4b:5d:90:74:d5:94:4a:
                    43:43:8a:21:db:07:d1:c4:43:95:39:a8:a4:1c:47:
                    4c:a1:01
                Exponent: 65537 (0x10001)
        X509v3 extensions:
            X509v3 Key Usage: critical
                Certificate Sign, CRL Sign
            X509v3 Basic Constraints: critical
                CA:TRUE, pathlen:0
            X509v3 Subject Key Identifier: 
                02:0E:3C:27:7B:64:6C:77:A6:B3:8E:F0:E0:49:1B:A9:0A:E1:C0:DC
            X509v3 Authority Key Identifier: 
                71:7F:E5:1E:10:15:47:56:05:74:37:77:E5:72:7B:BB:D2:3A:1B:9C
    Signature Algorithm: sha256WithRSAEncryption
    Signature Value:
        4a:c0:03:22:80:c4:bc:69:1e:ba:1d:43:30:33:fb:de:27:a6:
        ae:93:ad:03:7d:b7:66:7b:b7:5d:48:8f:66:b7:b6:ba:ac:e5:
        a5:b0:f8:03:9c:20:d1:b7:cf:fc:b0:13:8f:e3:ad:30:66:c5:
        ce:1a:39:0f:91:68:15:78:f2:ad:17:27:50:4e:69:6e:97:b0:
        58:15:d0:c3:e0:63:7b:8d:04:f2:92:6b:53:a9:20:87:ca:2a:
        d7:41:e7:08:1e:46:9b:47:9b:fa:7c:3f:7c:15:65:7a:30:91:
        e9:1d:29:19:e8:b0:61:8b:fd:f3:ba:9e:d5:5d:96:18:64:83:
        e5:0a:a5:01:6f:e2:70:7d:78:7a:a9:72:ba:e5:db:74:02:a6:
        52:f9:51:41:e0:67:2d:eb:1a:85:37:2e:07:ac:61:fd:3f:a7:
        22:18:22:1f:f6:13:6e:45:c8:fe:32:73:54:3b:d8:7a:2e:9c:
        83:68:28:9b:88:bb:94:ca:8e:2c:50:11:81:1b:37:2b:46:53:
        c1:71:eb:c4:99:30:2d:ce:d9:11:7e:df:2d:fd:e4:f3:04:ca:
        2e:c5:ae:57:f6:48:f7:79:73:60:4a:73:66:9f:cb:8f:e6:a9:
        eb:14:b9:e2:fc:04:09:3e:5b:19:f9:1e:96:66:6f:5f:bb:5b:
        7e:88:70:0c:3b:2e:15:d4:c6:62:62:9f:82:c8:d5:ff:51:0a:
        b9:9a:1a:0d:3c:57:6b:2b:34:ed:e8:b0:c5:1d:f2:3d:c2:5e:
        1f:98:b0:f1:01:fa:e1:c9:48:40:e8:d2:0f:5f:40:df:de:83:
        2c:80:1d:fb:2a:15:c3:01:0d:19:6c:0e:e2:ac:76:e0:20:a8:
        9f:90:b3:40:fd:17:81:7b:43:03:82:11:fd:8a:a1:a7:e1:74:
        ba:b0:21:93:21:a1:da:29:25:41:c9:f7:70:78:3d:07:96:53:
        05:bd:8e:46:a4:47:4a:30:86:77:b2:73:7a:36:e4:13:4a:14:
        82:46:26:b8:f3:80:60:1f:60:2e:11:33:2f:34:eb:26:a0:ba:
        da:ad:51:72:55:03:c2:67:70:17:f6:96:d5:69:1b:ab:7a:2a:
        2e:ea:7c:ed:50:dc:06:15:cb:99:4f:0a:17:c2:af:3c:5b:1b:
        72:1f:7e:24:6c:67:79:2b:22:9f:16:b5:19:52:6d:85:44:3a:
        fe:14:09:02:c2:f8:37:f1:ac:04:72:c0:df:17:22:eb:07:1f:
        dc:ba:88:db:4f:f7:fb:d5:cf:7a:8d:5a:f6:bc:ae:72:58:cd:
        2f:01:3c:48:1e:b3:f0:53:19:ff:cf:4c:38:3b:85:9e:00:c7:
        5d:c6:a0:0d:93:c9:38:1c
-----BEGIN CERTIFICATE-----
MIIF9DCCA9ygAwIBAgIUVZxsxrZ4LX5WcoFw8EE4n/ZuBP4wDQYJKoZIhvcNAQEL
BQAwfjESMBAGCgmSJomT8ixkARkWAmNhMRQwEgYKCZImiZPyLGQBGRYEbGFiNTEZ
MBcGA1UECgwQTGFiNSBEZXZPcHMgSW5jLjEUMBIGA1UECwwLd3d3LmxhYjUuY2Ex
ITAfBgNVBAMMGExhYjUgRGV2T3BzIEluYy4gUm9vdCBDQTAeFw0yNDA1MjAxMTU3
MjlaFw0zNDA1MjAxMTU3MjlaMIGBMRIwEAYKCZImiZPyLGQBGRYCY2ExFDASBgoJ
kiaJk/IsZAEZFgRsYWI1MRkwFwYDVQQKDBBMYWI1IERldk9wcyBJbmMuMRQwEgYD
VQQLDAt3d3cubGFiNS5jYTEkMCIGA1UEAwwbTGFiNSBEZXZPcHMgSW5jLiBJc3N1
aW5nIENBMIICIjANBgkqhkiG9w0BAQEFAAOCAg8AMIICCgKCAgEAqoCzCBcLWMTP
AJxiF5B1rNWP+Re+irHvc6ccDq+DsPKJNp/f+TLiFccKKCTSAL4G/xN/s15V+AOR
mZA/YVYxWH3zNVRfvN9w/gfoE4UB4kFHIHRH5fr5TJrC9GwGvtfgE9Iskm1WDZY7
lGH3ctMLU5NYU8GexXJerL8xCgfONtWlG29trYEoqJSwQVKVENd/M12uN1KABhie
RHD9jI4H/NTGYQN0s+7pjdW6XITBLPJ9oF9hG5SpOcDNV9oTx80L9RPAVhm2UVy4
AKixM+2Wng1rE9Sv6K9GCAorb9DLNGjUa+WEsAYpEQdKlxpqSDMWo9XC0kKOrLXs
ce/eFyQr2Q+mcxgCGF6DoILrksoXBDwOICNX5drJFQFntEWNvaJOT80B4BUjWWB+
nmTeiCfbpW3zl14y1cyJXvwhMW18FkNeJpOUBcHBTNqnx1DVnMk+u7fK1sjAAzCf
V01PRivuoy/sea4GSSvkgbHLjpVLmxHEaOaZfDSAo78tNNndEkyM/ue6CvFzKXRA
1z5O2RQ75VVnhP+QN9UAFNW9hjyWBa+ub91IX3snE7YjNDmuvIyUK6O2eOQbI4+X
ugXwZKEOX+J82NwGL5/SadKa9VGA3nf0tcmSjIHJmRbQmBjfnBaUsjxsQrgWZktd
kHTVlEpDQ4oh2wfRxEOVOaikHEdMoQECAwEAAaNmMGQwDgYDVR0PAQH/BAQDAgEG
MBIGA1UdEwEB/wQIMAYBAf8CAQAwHQYDVR0OBBYEFAIOPCd7ZGx3prOO8OBJG6kK
4cDcMB8GA1UdIwQYMBaAFHF/5R4QFUdWBXQ3d+Vye7vSOhucMA0GCSqGSIb3DQEB
CwUAA4ICAQBKwAMigMS8aR66HUMwM/veJ6auk60Dfbdme7ddSI9mt7a6rOWlsPgD
nCDRt8/8sBOP460wZsXOGjkPkWgVePKtFydQTmlul7BYFdDD4GN7jQTykmtTqSCH
yirXQecIHkabR5v6fD98FWV6MJHpHSkZ6LBhi/3zup7VXZYYZIPlCqUBb+JwfXh6
qXK65dt0AqZS+VFB4Gct6xqFNy4HrGH9P6ciGCIf9hNuRcj+MnNUO9h6LpyDaCib
iLuUyo4sUBGBGzcrRlPBcevEmTAtztkRft8t/eTzBMouxa5X9kj3eXNgSnNmn8uP
5qnrFLni/AQJPlsZ+R6WZm9fu1t+iHAMOy4V1MZiYp+CyNX/UQq5mhoNPFdrKzTt
6LDFHfI9wl4fmLDxAfrhyUhA6NIPX0Df3oMsgB37KhXDAQ0ZbA7irHbgIKifkLNA
/ReBe0MDghH9iqGn4XS6sCGTIaHaKSVByfdweD0HllMFvY5GpEdKMIZ3snN6NuQT
ShSCRia484BgH2AuETMvNOsmoLrarVFyVQPCZ3AX9pbVaRureiou6nztUNwGFcuZ
TwoXwq88WxtyH34kbGd5KyKfFrUZUm2FRDr+FAkCwvg38awEcsDfFyLrBx/cuojb
T/f71c96jVr2vK5yWM0vATxIHrPwUxn/z0w4O4WeAMddxqANk8k4HA==
-----END CERTIFICATE-----
