Certificate:
    Data:
        Version: 3 (0x2)
        Serial Number:
            57:f6:bb:41:54:87:a7:3a:1d:2c:93:e2:f8:fc:99:f5:7e:0d:35:6a
        Signature Algorithm: sha256WithRSAEncryption
        Issuer: DC=ca, DC=lab5, O=Lab5 DevOps Inc., OU=www.lab5.ca, CN=Lab5 DevOps Inc. Root CA
        Validity
            Not Before: Mar 28 23:41:23 2024 GMT
            Not After : Mar 28 23:41:23 2034 GMT
        Subject: DC=ca, DC=lab5, O=Lab5 DevOps Inc., OU=www.lab5.ca, CN=Lab5 DevOps Inc. Root CA
        Subject Public Key Info:
            Public Key Algorithm: rsaEncryption
                Public-Key: (2048 bit)
                Modulus:
                    00:b3:38:0e:f9:54:0f:f9:77:2e:dd:2d:6c:d2:a5:
                    0a:d9:7f:cc:a4:7c:51:cf:ef:d3:da:2e:bd:2c:07:
                    ae:68:bd:86:4c:79:42:cf:f8:49:2d:9b:fc:dd:7b:
                    03:b8:97:51:fc:8f:77:e6:aa:3b:a9:fd:06:e1:e0:
                    6b:96:de:e4:fc:c0:00:fd:d9:e4:3f:a5:2f:76:e4:
                    8e:53:52:ee:a0:51:88:29:d6:52:eb:00:45:ca:06:
                    6b:c0:6e:b8:e3:bf:96:33:ff:25:e3:c6:e9:04:29:
                    92:44:1f:19:94:fe:f9:53:ad:64:ea:5b:c1:00:58:
                    7f:3a:88:b8:71:43:23:3d:2d:f0:9d:85:4e:c8:6a:
                    ef:7c:45:d8:37:85:bd:ff:f2:40:28:d8:0a:ca:45:
                    f0:99:36:6d:11:ea:ac:85:82:b7:ee:b3:9a:3d:b9:
                    e3:6e:91:2f:37:98:32:1e:36:a5:d6:28:97:52:ad:
                    ed:b5:fe:09:f7:1b:96:25:93:5d:65:1a:43:46:fc:
                    dc:4e:31:2b:48:a3:07:14:f5:79:d1:b8:de:96:ae:
                    bc:b2:cd:e5:e4:59:e4:99:87:c3:3d:36:f2:ff:40:
                    88:0a:a2:42:e4:a9:a5:83:91:47:b2:ea:ee:c4:c5:
                    bf:62:4a:1e:b4:c4:d6:0d:c9:27:cc:f2:7d:fe:d6:
                    9f:e7
                Exponent: 65537 (0x10001)
        X509v3 extensions:
            X509v3 Key Usage: critical
                Certificate Sign, CRL Sign
            X509v3 Basic Constraints: critical
                CA:TRUE
            X509v3 Subject Key Identifier: 
                78:A7:E0:FF:0D:C2:50:09:AF:B6:86:FB:FB:45:A7:7E:51:40:76:DD
            X509v3 Authority Key Identifier: 
                78:A7:E0:FF:0D:C2:50:09:AF:B6:86:FB:FB:45:A7:7E:51:40:76:DD
    Signature Algorithm: sha256WithRSAEncryption
    Signature Value:
        9d:a0:e1:92:fd:64:cb:e4:3a:0d:d0:d4:83:24:34:7e:36:e5:
        88:98:43:4e:bf:c6:92:de:02:21:92:37:92:a8:2d:75:d8:94:
        00:4b:d0:5c:cd:99:3a:f1:6f:4e:4f:ee:cf:51:68:80:5d:68:
        bb:d1:fc:33:0a:29:9c:76:d7:81:3e:6a:d1:44:a7:99:3c:a2:
        a6:ff:02:dd:b9:82:45:09:8f:1d:e4:25:69:cd:99:b9:5c:e5:
        43:2a:3f:a5:33:fa:90:27:2f:88:df:bc:1b:93:aa:a5:8b:b0:
        8c:0f:a8:c3:4d:54:b1:91:31:4a:ec:d8:be:aa:5a:cb:4b:67:
        9f:fb:07:ab:6d:34:8d:ae:32:3b:77:d2:4c:4c:4f:44:71:61:
        9b:e1:19:0a:f7:12:37:7a:f0:a8:35:6b:0f:61:13:87:45:df:
        c9:70:63:33:55:39:d6:a1:cc:1b:56:ee:90:f2:80:28:ca:73:
        a6:50:79:41:0f:4b:02:6e:19:b1:be:93:61:e5:57:4d:62:67:
        c4:90:4f:f1:55:f6:1e:28:7f:a9:eb:a5:65:40:5f:38:4f:fd:
        09:3b:db:bd:24:46:bb:6e:b2:c1:34:16:c9:63:d8:28:46:92:
        85:72:ee:7a:21:c5:49:f8:5f:54:b3:04:7c:c1:8c:93:d3:1a:
        0b:fd:13:7e
-----BEGIN CERTIFICATE-----
MIID7TCCAtWgAwIBAgIUV/a7QVSHpzodLJPi+PyZ9X4NNWowDQYJKoZIhvcNAQEL
BQAwfjESMBAGCgmSJomT8ixkARkWAmNhMRQwEgYKCZImiZPyLGQBGRYEbGFiNTEZ
MBcGA1UECgwQTGFiNSBEZXZPcHMgSW5jLjEUMBIGA1UECwwLd3d3LmxhYjUuY2Ex
ITAfBgNVBAMMGExhYjUgRGV2T3BzIEluYy4gUm9vdCBDQTAeFw0yNDAzMjgyMzQx
MjNaFw0zNDAzMjgyMzQxMjNaMH4xEjAQBgoJkiaJk/IsZAEZFgJjYTEUMBIGCgmS
JomT8ixkARkWBGxhYjUxGTAXBgNVBAoMEExhYjUgRGV2T3BzIEluYy4xFDASBgNV
BAsMC3d3dy5sYWI1LmNhMSEwHwYDVQQDDBhMYWI1IERldk9wcyBJbmMuIFJvb3Qg
Q0EwggEiMA0GCSqGSIb3DQEBAQUAA4IBDwAwggEKAoIBAQCzOA75VA/5dy7dLWzS
pQrZf8ykfFHP79PaLr0sB65ovYZMeULP+Ektm/zdewO4l1H8j3fmqjup/Qbh4GuW
3uT8wAD92eQ/pS925I5TUu6gUYgp1lLrAEXKBmvAbrjjv5Yz/yXjxukEKZJEHxmU
/vlTrWTqW8EAWH86iLhxQyM9LfCdhU7Iau98Rdg3hb3/8kAo2ArKRfCZNm0R6qyF
grfus5o9ueNukS83mDIeNqXWKJdSre21/gn3G5Ylk11lGkNG/NxOMStIowcU9XnR
uN6WrryyzeXkWeSZh8M9NvL/QIgKokLkqaWDkUey6u7Exb9iSh60xNYNySfM8n3+
1p/nAgMBAAGjYzBhMA4GA1UdDwEB/wQEAwIBBjAPBgNVHRMBAf8EBTADAQH/MB0G
A1UdDgQWBBR4p+D/DcJQCa+2hvv7Rad+UUB23TAfBgNVHSMEGDAWgBR4p+D/DcJQ
Ca+2hvv7Rad+UUB23TANBgkqhkiG9w0BAQsFAAOCAQEAnaDhkv1ky+Q6DdDUgyQ0
fjbliJhDTr/Gkt4CIZI3kqgtddiUAEvQXM2ZOvFvTk/uz1FogF1ou9H8MwopnHbX
gT5q0USnmTyipv8C3bmCRQmPHeQlac2ZuVzlQyo/pTP6kCcviN+8G5OqpYuwjA+o
w01UsZExSuzYvqpay0tnn/sHq200ja4yO3fSTExPRHFhm+EZCvcSN3rwqDVrD2ET
h0XfyXBjM1U51qHMG1bukPKAKMpzplB5QQ9LAm4Zsb6TYeVXTWJnxJBP8VX2Hih/
qeulZUBfOE/9CTvbvSRGu26ywTQWyWPYKEaShXLueiHFSfhfVLMEfMGMk9MaC/0T
fg==
-----END CERTIFICATE-----
