Certificate:
    Data:
        Version: 3 (0x2)
        Serial Number:
            5a:09:20:8b:6c:50:8b:80:80:1d:37:94:30:96:5e:ca:3d:ad:cc:65
        Signature Algorithm: sha256WithRSAEncryption
        Issuer: DC=ca, DC=lab5, O=Lab5 DevOps Inc., OU=www.lab5.ca, CN=Lab5 DevOps Inc. Root CA
        Validity
            Not Before: May 21 05:20:38 2024 GMT
            Not After : May 21 05:20:38 2034 GMT
        Subject: DC=ca, DC=lab5, O=Lab5 DevOps Inc., OU=www.lab5.ca, CN=Lab5 DevOps Inc. Root CA
        Subject Public Key Info:
            Public Key Algorithm: rsaEncryption
                Public-Key: (4096 bit)
                Modulus:
                    00:e4:f8:33:a9:54:2b:89:cf:ef:b3:4c:a7:03:c3:
                    d8:9a:a1:05:95:04:c5:9e:66:91:a5:65:6e:20:68:
                    49:77:81:8c:8d:43:17:cf:b0:02:3f:a7:82:f7:0a:
                    46:10:3e:84:ec:03:95:ca:e2:aa:57:a3:96:24:fe:
                    2c:40:27:26:91:b2:48:6d:30:9d:c5:a5:68:f8:00:
                    bc:9d:8a:ec:85:74:e4:6d:d3:dd:3a:04:61:13:53:
                    14:70:fe:cd:8f:57:9a:7a:91:7d:2f:2a:b9:75:86:
                    ce:65:dd:a7:4d:5d:96:eb:32:a8:bd:e0:33:5d:58:
                    f0:70:c5:50:40:a7:e9:7f:86:34:66:34:1a:af:18:
                    ee:67:28:75:62:60:e6:50:5b:f4:66:d5:32:f1:bb:
                    5b:4b:fd:75:cd:ec:30:0b:dc:5b:b4:a6:c9:11:ab:
                    8e:08:a8:7a:41:b3:9a:19:69:51:8f:7a:1b:2a:a6:
                    a8:4d:1c:2b:24:90:29:5e:6a:83:c3:5a:22:dd:4c:
                    ad:d3:a5:4d:25:25:f4:96:ae:fc:04:dc:f7:cc:a4:
                    68:10:d9:d1:05:1b:e2:cb:36:53:43:c4:5b:54:44:
                    91:71:fb:5c:03:24:15:fc:eb:4a:5e:41:a0:8c:6b:
                    46:a8:57:b2:15:a8:d3:4d:2a:3e:8d:e1:46:16:a7:
                    0d:e2:e5:65:42:53:0e:04:45:91:cd:40:e8:95:ec:
                    e9:83:08:b7:de:48:e6:96:5e:22:6a:ed:97:26:33:
                    73:5b:a1:fd:a5:cb:ae:60:32:0b:0d:08:36:0a:48:
                    b0:e4:29:6d:1b:f1:5f:1a:3d:c6:87:4e:dc:a2:e0:
                    22:34:5a:fd:f7:28:9b:0c:af:94:d0:df:39:d6:37:
                    79:23:b9:e2:de:6b:5a:dd:16:9a:ef:a3:98:ee:d0:
                    4e:91:4d:44:f8:9c:85:68:18:f7:55:d8:72:86:99:
                    e5:ea:3d:0d:4c:63:66:22:d0:3a:23:2a:39:9b:5c:
                    4d:4d:8e:2b:d1:b9:01:ab:55:72:23:5c:f9:a5:b3:
                    0d:1d:ce:24:53:35:65:60:a9:01:a3:43:68:10:15:
                    be:ca:93:84:c4:a7:e9:6d:4f:bb:71:02:7d:0e:28:
                    68:ac:1c:c1:e1:e5:61:63:81:48:e8:89:2e:90:68:
                    94:74:3a:d6:f5:fd:3c:10:4e:2a:d8:a2:ff:15:44:
                    ab:29:be:e7:86:48:e0:67:1e:12:1f:97:26:a8:97:
                    fb:db:cf:1f:8d:35:1d:94:59:75:55:d0:61:91:1f:
                    30:36:c9:03:24:23:b1:b7:60:cd:4d:40:60:00:81:
                    c6:8f:c2:bf:22:69:64:1f:0e:45:d5:6c:a0:d2:1e:
                    bd:28:bf
                Exponent: 65537 (0x10001)
        X509v3 extensions:
            X509v3 Key Usage: critical
                Certificate Sign, CRL Sign
            X509v3 Basic Constraints: critical
                CA:TRUE
            X509v3 Subject Key Identifier: 
                70:A2:0E:40:D8:E7:AD:06:6F:F6:C3:08:94:72:EF:40:77:82:42:EC
            X509v3 Authority Key Identifier: 
                70:A2:0E:40:D8:E7:AD:06:6F:F6:C3:08:94:72:EF:40:77:82:42:EC
    Signature Algorithm: sha256WithRSAEncryption
    Signature Value:
        99:de:5c:53:0b:ad:7d:0a:55:77:2f:3c:d7:22:61:d6:57:e3:
        31:c3:98:c0:f9:dc:d1:9c:c9:fc:57:f0:73:3b:ec:1f:c7:4f:
        93:cc:1d:76:85:fd:22:96:a1:17:04:11:e1:f5:32:c1:b9:2c:
        5d:6c:e4:8e:53:ac:28:89:14:80:b3:0e:0d:a8:24:59:61:72:
        83:a3:eb:f2:71:f7:98:7f:27:3e:17:eb:7d:5f:ab:f3:00:c6:
        99:db:e0:fc:0d:0a:68:1c:85:10:a4:e4:5e:fa:42:67:80:af:
        14:74:68:d3:67:12:a1:05:d9:e8:ac:11:43:5d:56:d8:a0:5a:
        18:cd:c5:c5:98:91:c5:ee:f1:93:0a:7a:91:bb:e9:2e:5d:fe:
        7b:83:c4:ec:1f:f6:19:a3:67:31:4d:c0:00:de:c6:fb:06:e2:
        f1:97:8a:dd:b3:6d:cd:16:82:7e:42:8a:01:30:72:66:37:49:
        7e:fb:22:35:df:b3:c7:ff:d0:11:06:1c:b7:93:30:9e:89:bb:
        3e:02:41:94:3f:c5:9d:ff:55:b2:3f:73:3c:63:31:36:f2:02:
        bc:e2:af:db:34:3a:77:da:31:43:17:08:4b:42:94:ae:84:a4:
        f4:d0:8d:ce:fa:7f:6f:4c:5e:41:51:da:eb:c9:cc:b9:3b:b6:
        bc:7d:4d:5d:9c:90:83:46:db:04:ae:0b:a8:b7:5c:0b:d6:5a:
        2a:eb:54:bb:b0:08:88:e0:74:a7:f5:28:88:45:64:5b:2f:f1:
        8d:81:83:16:ba:f9:4a:a5:3e:14:0d:f5:ee:bb:74:1b:1b:e2:
        28:3d:45:e7:10:b9:9f:e8:29:86:54:94:f6:c4:38:17:a4:9d:
        00:25:17:ab:b7:dc:a7:c3:5f:54:8a:50:8c:14:d9:86:ce:e6:
        fa:16:8a:0d:30:6c:7c:ea:b9:b2:a8:aa:6a:5f:a9:e0:17:f6:
        c5:2f:74:9b:1d:06:9e:3d:80:5b:26:d3:8c:91:88:37:c3:ad:
        68:fb:af:0f:64:27:44:2a:55:5e:83:5f:b2:71:d0:9e:5e:ea:
        33:e3:6a:f7:c1:1b:60:dc:3a:00:df:36:a8:42:d6:f7:b0:4e:
        bc:19:9f:0b:3d:d5:3f:9d:e5:49:ac:7d:5c:c1:de:9f:fc:0b:
        f7:1d:83:07:4d:77:bb:49:03:f5:e4:ce:60:da:7f:8e:a2:72:
        4b:a3:f2:68:cc:e4:c5:e9:72:7b:0e:21:a5:f4:dc:aa:14:6a:
        29:55:ac:ce:3b:b3:6a:15:03:c6:d4:53:84:19:36:7d:b0:5b:
        b2:dd:c9:22:15:bf:26:cb:16:b6:e2:ec:d7:f1:2a:db:32:3c:
        0e:3b:b7:d1:36:d3:36:5f
-----BEGIN CERTIFICATE-----
MIIF7TCCA9WgAwIBAgIUWgkgi2xQi4CAHTeUMJZeyj2tzGUwDQYJKoZIhvcNAQEL
BQAwfjESMBAGCgmSJomT8ixkARkWAmNhMRQwEgYKCZImiZPyLGQBGRYEbGFiNTEZ
MBcGA1UECgwQTGFiNSBEZXZPcHMgSW5jLjEUMBIGA1UECwwLd3d3LmxhYjUuY2Ex
ITAfBgNVBAMMGExhYjUgRGV2T3BzIEluYy4gUm9vdCBDQTAeFw0yNDA1MjEwNTIw
MzhaFw0zNDA1MjEwNTIwMzhaMH4xEjAQBgoJkiaJk/IsZAEZFgJjYTEUMBIGCgmS
JomT8ixkARkWBGxhYjUxGTAXBgNVBAoMEExhYjUgRGV2T3BzIEluYy4xFDASBgNV
BAsMC3d3dy5sYWI1LmNhMSEwHwYDVQQDDBhMYWI1IERldk9wcyBJbmMuIFJvb3Qg
Q0EwggIiMA0GCSqGSIb3DQEBAQUAA4ICDwAwggIKAoICAQDk+DOpVCuJz++zTKcD
w9iaoQWVBMWeZpGlZW4gaEl3gYyNQxfPsAI/p4L3CkYQPoTsA5XK4qpXo5Yk/ixA
JyaRskhtMJ3FpWj4ALydiuyFdORt0906BGETUxRw/s2PV5p6kX0vKrl1hs5l3adN
XZbrMqi94DNdWPBwxVBAp+l/hjRmNBqvGO5nKHViYOZQW/Rm1TLxu1tL/XXN7DAL
3Fu0pskRq44IqHpBs5oZaVGPehsqpqhNHCskkCleaoPDWiLdTK3TpU0lJfSWrvwE
3PfMpGgQ2dEFG+LLNlNDxFtURJFx+1wDJBX860peQaCMa0aoV7IVqNNNKj6N4UYW
pw3i5WVCUw4ERZHNQOiV7OmDCLfeSOaWXiJq7ZcmM3Nbof2ly65gMgsNCDYKSLDk
KW0b8V8aPcaHTtyi4CI0Wv33KJsMr5TQ3znWN3kjueLea1rdFprvo5ju0E6RTUT4
nIVoGPdV2HKGmeXqPQ1MY2Yi0DojKjmbXE1NjivRuQGrVXIjXPmlsw0dziRTNWVg
qQGjQ2gQFb7Kk4TEp+ltT7txAn0OKGisHMHh5WFjgUjoiS6QaJR0Otb1/TwQTirY
ov8VRKspvueGSOBnHhIflyaol/vbzx+NNR2UWXVV0GGRHzA2yQMkI7G3YM1NQGAA
gcaPwr8iaWQfDkXVbKDSHr0ovwIDAQABo2MwYTAOBgNVHQ8BAf8EBAMCAQYwDwYD
VR0TAQH/BAUwAwEB/zAdBgNVHQ4EFgQUcKIOQNjnrQZv9sMIlHLvQHeCQuwwHwYD
VR0jBBgwFoAUcKIOQNjnrQZv9sMIlHLvQHeCQuwwDQYJKoZIhvcNAQELBQADggIB
AJneXFMLrX0KVXcvPNciYdZX4zHDmMD53NGcyfxX8HM77B/HT5PMHXaF/SKWoRcE
EeH1MsG5LF1s5I5TrCiJFICzDg2oJFlhcoOj6/Jx95h/Jz4X631fq/MAxpnb4PwN
CmgchRCk5F76QmeArxR0aNNnEqEF2eisEUNdVtigWhjNxcWYkcXu8ZMKepG76S5d
/nuDxOwf9hmjZzFNwADexvsG4vGXit2zbc0Wgn5CigEwcmY3SX77IjXfs8f/0BEG
HLeTMJ6Juz4CQZQ/xZ3/VbI/czxjMTbyArzir9s0OnfaMUMXCEtClK6EpPTQjc76
f29MXkFR2uvJzLk7trx9TV2ckING2wSuC6i3XAvWWirrVLuwCIjgdKf1KIhFZFsv
8Y2Bgxa6+UqlPhQN9e67dBsb4ig9RecQuZ/oKYZUlPbEOBeknQAlF6u33KfDX1SK
UIwU2YbO5voWig0wbHzqubKoqmpfqeAX9sUvdJsdBp49gFsm04yRiDfDrWj7rw9k
J0QqVV6DX7Jx0J5e6jPjavfBG2DcOgDfNqhC1vewTrwZnws91T+d5UmsfVzB3p/8
C/cdgwdNd7tJA/XkzmDaf46ickuj8mjM5MXpcnsOIaX03KoUailVrM47s2oVA8bU
U4QZNn2wW7LdySIVvybLFrbi7NfxKtsyPA47t9E20zZf
-----END CERTIFICATE-----
