Certificate:
    Data:
        Version: 3 (0x2)
        Serial Number:
            5b:1d:68:33:0d:54:92:e9:6d:b0:da:2f:3d:93:85:5b:90:f6:7b:5c
        Signature Algorithm: sha256WithRSAEncryption
        Issuer: DC=ca, DC=lab5, O=Lab5 DevOps Inc., OU=www.lab5.ca, CN=Lab5 DevOps Inc. Root CA
        Validity
            Not Before: May 21 14:41:19 2024 GMT
            Not After : May 21 14:41:19 2034 GMT
        Subject: DC=ca, DC=lab5, O=Lab5 DevOps Inc., OU=www.lab5.ca, CN=Lab5 DevOps Inc. Issuing CA
        Subject Public Key Info:
            Public Key Algorithm: rsaEncryption
                Public-Key: (4096 bit)
                Modulus:
                    00:ab:78:e7:a8:1d:33:81:80:af:ba:d9:8d:91:d4:
                    4c:24:f0:7c:b8:61:5e:4d:6f:85:cf:9e:ae:b9:d7:
                    43:20:5c:b6:42:c1:f0:90:8f:47:84:01:ba:cd:a5:
                    46:d0:ea:52:90:30:ce:83:e5:a8:cc:14:42:5c:b6:
                    0e:bb:ee:90:49:d1:b0:36:c6:31:51:88:a6:e0:12:
                    ea:04:04:75:ba:55:1c:41:84:6e:11:d8:17:36:ab:
                    75:54:9c:e3:0a:84:7c:b9:e1:e1:a1:f8:cf:0e:ad:
                    d7:83:29:01:20:52:ee:6f:34:e0:13:46:a4:89:3c:
                    32:9b:8f:a2:b3:be:9a:3b:ab:d1:b7:3c:0c:a4:7e:
                    fd:11:1d:8b:bc:6c:39:09:3c:62:76:47:6b:ad:fe:
                    bc:6b:d2:49:fd:4f:5c:31:f4:2a:84:54:d0:5e:7b:
                    07:cd:7d:9a:37:5d:26:91:ca:ec:05:b6:fc:4c:d0:
                    3d:b0:34:56:2e:35:8f:13:74:75:f1:c7:81:d1:d7:
                    cf:07:a4:7d:c6:73:10:61:2d:4a:0c:d1:be:1c:7f:
                    cb:ab:83:79:18:82:4b:84:75:f2:9f:b6:c5:82:bf:
                    ad:27:30:c6:b7:90:d0:61:e8:44:05:57:59:9e:58:
                    f8:ae:45:be:45:de:02:60:a6:d1:56:a2:6b:64:6a:
                    04:9c:67:09:ea:b6:c0:ed:6e:f3:01:d2:a8:1f:b9:
                    df:c6:77:1e:37:13:8c:fc:73:32:6e:e7:c7:a4:45:
                    8f:da:fd:f9:3c:ee:32:0a:72:90:0e:48:cd:9b:6c:
                    b8:fc:e6:58:f4:db:4a:2f:2c:ad:13:cc:50:9a:90:
                    34:07:92:cd:f2:c9:24:76:fe:a2:cb:76:ef:6f:40:
                    77:25:f7:18:59:c5:80:d2:81:e7:33:0d:28:0e:d4:
                    b2:cb:4c:a9:1c:11:ba:6b:3a:e3:8c:d5:38:74:61:
                    3d:d7:18:55:72:65:d1:63:b9:09:84:82:2c:c9:a5:
                    ae:6e:35:23:e1:ec:2a:01:78:69:69:c9:a8:12:28:
                    d7:4e:88:8b:27:12:12:42:e7:5a:a6:cc:3d:38:79:
                    e2:f6:d7:8e:32:1e:be:57:7b:9a:85:12:62:53:30:
                    2a:e8:f4:ea:41:4e:b0:5c:cb:5f:35:83:ee:d9:1b:
                    5d:71:57:58:22:2e:b6:32:d4:c7:96:ff:30:c4:97:
                    30:d5:8d:82:dc:44:b4:3e:9b:d1:42:dc:8e:30:b7:
                    fb:c3:b1:90:ce:9d:5a:71:49:9a:5b:25:3d:30:ad:
                    ed:6f:8a:25:ee:d2:98:4a:68:d7:72:b9:ad:55:a7:
                    da:db:55:9e:b4:97:cd:15:1b:bc:e0:25:24:06:5b:
                    3f:5e:03
                Exponent: 65537 (0x10001)
        X509v3 extensions:
            X509v3 Key Usage: critical
                Certificate Sign, CRL Sign
            X509v3 Basic Constraints: critical
                CA:TRUE, pathlen:0
            X509v3 Subject Key Identifier: 
                C5:41:EB:27:A5:6D:15:33:5E:72:6C:51:13:5B:50:66:8D:C6:63:19
            X509v3 Authority Key Identifier: 
                16:D9:79:9C:0B:D3:43:1C:20:A0:B3:DA:4C:87:6E:B6:26:33:1F:59
    Signature Algorithm: sha256WithRSAEncryption
    Signature Value:
        54:e9:77:f4:ac:41:72:90:ac:f3:76:31:ab:dd:1a:22:26:9b:
        54:83:ae:64:4c:e4:46:a5:48:81:cc:48:d5:ba:ee:32:7f:13:
        8e:4a:b0:81:57:e2:e1:34:b9:c4:a8:11:d6:4e:83:f9:85:65:
        43:a6:68:27:f8:b9:ad:c9:11:f0:3b:16:dc:6e:9c:8b:3b:09:
        23:8e:cc:9f:62:53:9c:a5:a0:30:66:e5:6b:a8:09:ff:a2:8e:
        49:d8:08:70:f1:e1:5e:30:1b:bd:61:4c:f8:ab:e7:80:b0:83:
        78:cd:54:d5:66:a7:c2:86:d2:d6:b2:f5:0b:90:c7:9e:8d:eb:
        9c:fb:3d:0b:6f:9c:ff:87:b5:91:36:8d:f5:d2:aa:3f:ac:b7:
        8d:d8:f1:3b:87:1a:50:fa:c0:45:74:cb:34:5b:dd:03:0b:8b:
        78:81:0e:c5:f4:7a:8e:d5:62:63:de:10:9b:2c:ad:1b:c2:68:
        1f:55:75:56:5a:96:ae:56:81:e4:f4:a5:9f:08:94:09:06:86:
        2c:2f:6d:83:23:73:0a:1b:a4:ee:83:c3:4a:c1:ce:68:b8:28:
        d4:ec:6f:6d:f2:59:dc:ab:02:85:07:7b:6b:af:be:52:b7:6a:
        dc:7a:6e:39:ba:7f:ac:8f:39:47:e7:f7:40:61:32:b3:50:a3:
        e9:f9:73:15:4a:16:64:15:a7:8f:f2:d9:6e:4c:60:f8:fc:43:
        65:8d:05:db:fe:9a:a5:69:32:e3:74:ad:a5:d6:fb:ab:32:8c:
        4c:36:75:84:1d:9c:4a:0d:04:e1:d7:23:a5:22:29:28:cd:b5:
        59:45:d1:f3:69:30:87:ac:3d:71:27:a4:c8:f0:fe:d1:24:6b:
        0c:62:66:b4:d8:94:5f:3a:36:ad:f1:16:ae:0c:85:93:e5:ee:
        4c:83:5d:17:1c:65:3b:6b:e7:00:81:ae:0c:95:de:03:44:c0:
        7a:1f:93:72:ff:5e:36:f2:01:3e:18:34:25:70:53:f2:16:42:
        68:62:2a:a6:a7:70:15:51:5f:22:a1:1e:8a:d6:9c:a8:94:e3:
        39:19:70:53:db:7e:52:3a:f7:78:f8:36:b5:96:c7:c6:61:b2:
        ba:e2:ba:46:21:89:1d:f4:ab:92:b2:98:aa:05:27:eb:75:8e:
        f9:5c:0c:95:e4:21:62:8c:0e:6f:35:d3:8c:4e:41:12:89:4d:
        d4:ef:0f:80:4d:96:9e:c1:df:42:55:ce:6f:0c:ef:d4:47:19:
        42:97:58:e4:dd:16:99:3f:39:80:b7:be:5a:0a:2a:2b:ec:c8:
        ad:b8:9c:b7:ba:56:5c:19:f4:fc:a0:15:96:88:4a:eb:2f:f7:
        f2:7b:b6:37:cf:6d:ec:12
-----BEGIN CERTIFICATE-----
MIIF9DCCA9ygAwIBAgIUWx1oMw1UkultsNovPZOFW5D2e1wwDQYJKoZIhvcNAQEL
BQAwfjESMBAGCgmSJomT8ixkARkWAmNhMRQwEgYKCZImiZPyLGQBGRYEbGFiNTEZ
MBcGA1UECgwQTGFiNSBEZXZPcHMgSW5jLjEUMBIGA1UECwwLd3d3LmxhYjUuY2Ex
ITAfBgNVBAMMGExhYjUgRGV2T3BzIEluYy4gUm9vdCBDQTAeFw0yNDA1MjExNDQx
MTlaFw0zNDA1MjExNDQxMTlaMIGBMRIwEAYKCZImiZPyLGQBGRYCY2ExFDASBgoJ
kiaJk/IsZAEZFgRsYWI1MRkwFwYDVQQKDBBMYWI1IERldk9wcyBJbmMuMRQwEgYD
VQQLDAt3d3cubGFiNS5jYTEkMCIGA1UEAwwbTGFiNSBEZXZPcHMgSW5jLiBJc3N1
aW5nIENBMIICIjANBgkqhkiG9w0BAQEFAAOCAg8AMIICCgKCAgEAq3jnqB0zgYCv
utmNkdRMJPB8uGFeTW+Fz56uuddDIFy2QsHwkI9HhAG6zaVG0OpSkDDOg+WozBRC
XLYOu+6QSdGwNsYxUYim4BLqBAR1ulUcQYRuEdgXNqt1VJzjCoR8ueHhofjPDq3X
gykBIFLubzTgE0akiTwym4+is76aO6vRtzwMpH79ER2LvGw5CTxidkdrrf68a9JJ
/U9cMfQqhFTQXnsHzX2aN10mkcrsBbb8TNA9sDRWLjWPE3R18ceB0dfPB6R9xnMQ
YS1KDNG+HH/Lq4N5GIJLhHXyn7bFgr+tJzDGt5DQYehEBVdZnlj4rkW+Rd4CYKbR
VqJrZGoEnGcJ6rbA7W7zAdKoH7nfxnceNxOM/HMybufHpEWP2v35PO4yCnKQDkjN
m2y4/OZY9NtKLyytE8xQmpA0B5LN8skkdv6iy3bvb0B3JfcYWcWA0oHnMw0oDtSy
y0ypHBG6azrjjNU4dGE91xhVcmXRY7kJhIIsyaWubjUj4ewqAXhpacmoEijXToiL
JxISQudapsw9OHni9teOMh6+V3uahRJiUzAq6PTqQU6wXMtfNYPu2RtdcVdYIi62
MtTHlv8wxJcw1Y2C3ES0PpvRQtyOMLf7w7GQzp1acUmaWyU9MK3tb4ol7tKYSmjX
crmtVafa21WetJfNFRu84CUkBls/XgMCAwEAAaNmMGQwDgYDVR0PAQH/BAQDAgEG
MBIGA1UdEwEB/wQIMAYBAf8CAQAwHQYDVR0OBBYEFMVB6yelbRUzXnJsURNbUGaN
xmMZMB8GA1UdIwQYMBaAFBbZeZwL00McIKCz2kyHbrYmMx9ZMA0GCSqGSIb3DQEB
CwUAA4ICAQBU6Xf0rEFykKzzdjGr3RoiJptUg65kTORGpUiBzEjVuu4yfxOOSrCB
V+LhNLnEqBHWToP5hWVDpmgn+LmtyRHwOxbcbpyLOwkjjsyfYlOcpaAwZuVrqAn/
oo5J2Ahw8eFeMBu9YUz4q+eAsIN4zVTVZqfChtLWsvULkMeejeuc+z0Lb5z/h7WR
No310qo/rLeN2PE7hxpQ+sBFdMs0W90DC4t4gQ7F9HqO1WJj3hCbLK0bwmgfVXVW
WpauVoHk9KWfCJQJBoYsL22DI3MKG6Tug8NKwc5ouCjU7G9t8lncqwKFB3trr75S
t2rcem45un+sjzlH5/dAYTKzUKPp+XMVShZkFaeP8tluTGD4/ENljQXb/pqlaTLj
dK2l1vurMoxMNnWEHZxKDQTh1yOlIikozbVZRdHzaTCHrD1xJ6TI8P7RJGsMYma0
2JRfOjat8RauDIWT5e5Mg10XHGU7a+cAga4Mld4DRMB6H5Ny/1428gE+GDQlcFPy
FkJoYiqmp3AVUV8ioR6K1pyolOM5GXBT235SOvd4+Da1lsfGYbK64rpGIYkd9KuS
spiqBSfrdY75XAyV5CFijA5vNdOMTkESiU3U7w+ATZaewd9CVc5vDO/URxlCl1jk
3RaZPzmAt75aCior7MituJy3ulZcGfT8oBWWiErrL/fye7Y3z23sEg==
-----END CERTIFICATE-----
