Certificate:
    Data:
        Version: 3 (0x2)
        Serial Number:
            5d:7d:af:a4:0b:97:2a:2b:40:96:17:bf:59:bc:07:f8:c5:8a:a2:b1
        Signature Algorithm: sha256WithRSAEncryption
        Issuer: DC=ca, DC=lab5, O=Lab5 DevOps Inc., OU=www.lab5.ca, CN=Lab5 DevOps Inc. Root CA
        Validity
            Not Before: May 21 15:46:37 2024 GMT
            Not After : May 21 15:46:37 2034 GMT
        Subject: DC=ca, DC=lab5, O=Lab5 DevOps Inc., OU=www.lab5.ca, CN=Lab5 DevOps Inc. Root CA
        Subject Public Key Info:
            Public Key Algorithm: rsaEncryption
                Public-Key: (4096 bit)
                Modulus:
                    00:9c:e6:f9:6f:40:3a:e7:30:5f:8d:b3:3d:16:95:
                    84:63:67:43:06:04:9b:d4:4d:4b:49:7e:55:41:46:
                    ec:9c:be:47:19:cb:60:25:97:75:bf:b5:be:5a:44:
                    7f:f5:c6:26:10:41:1f:65:f0:44:29:2c:a6:6d:67:
                    07:b4:d1:80:e2:df:15:49:f3:1f:67:6d:bb:9b:4c:
                    46:3b:30:90:c4:70:d3:60:42:2a:17:48:3d:e9:fa:
                    31:be:13:b1:59:36:0b:ed:dd:0e:bb:ba:d5:9a:e6:
                    46:44:e4:a5:1f:2f:78:62:e1:a7:9d:41:23:0c:31:
                    4c:b4:a4:01:26:69:3f:9b:04:f8:96:11:e1:7b:00:
                    12:50:3b:2f:68:a7:6f:07:e6:1a:b5:ef:2b:78:fc:
                    12:d6:b6:a5:79:32:dc:ec:00:ab:9a:b9:f5:8c:94:
                    75:98:da:95:74:f4:8e:69:3c:2b:6a:66:fb:d8:29:
                    55:3a:f5:bf:6d:56:59:94:57:e2:c7:1d:87:16:d5:
                    14:92:8e:3b:8c:6c:95:cb:7f:08:c3:6e:84:4b:a2:
                    b8:a7:51:c6:40:66:ed:18:6d:62:f5:02:6a:af:a1:
                    1e:b3:e3:59:e2:58:0b:44:e3:15:e5:2f:4b:c4:3b:
                    8a:fe:88:7c:b8:92:4b:19:ca:0d:17:f5:97:c8:98:
                    9f:40:9b:94:a4:3a:e6:22:e7:0c:ba:72:eb:fd:21:
                    f2:a2:1d:57:4c:76:05:a8:2e:f4:06:48:23:70:58:
                    1f:33:60:d7:f0:88:47:f5:da:11:16:0f:93:81:c8:
                    34:b0:38:f6:68:3f:8f:d6:11:4c:83:54:51:1c:d6:
                    2a:48:85:6d:cd:b7:b0:a1:f4:f5:79:36:55:5a:30:
                    67:2a:79:65:01:d3:6f:4e:0a:83:61:42:10:ec:c9:
                    b2:0f:6b:dd:ec:6d:ae:d0:64:6a:88:62:65:2f:66:
                    4f:52:2b:99:d9:24:9b:74:92:a3:d7:13:e1:a2:6c:
                    b5:07:96:f4:b0:f1:27:d0:1a:4f:bd:0f:d1:bf:0f:
                    a3:45:f8:4d:f4:30:a0:57:7b:0e:db:b7:03:0e:21:
                    ad:22:6b:e9:10:e5:a4:98:40:4a:fc:5e:5e:bd:f1:
                    5c:73:ff:d0:1b:9a:36:ec:03:10:d4:9c:a4:97:d2:
                    61:75:bd:11:45:fb:4b:d1:9a:32:b9:dd:6f:68:c1:
                    db:5a:37:79:fa:67:e6:9d:5a:cb:73:e2:d3:af:0d:
                    75:5e:35:33:3d:cc:f7:b0:56:02:47:ef:0f:a9:18:
                    cb:60:11:e3:e8:da:d5:cc:2d:81:5b:4a:95:bb:9b:
                    98:b4:9b:b0:52:2c:9d:4b:cc:c7:9d:a1:f5:9a:61:
                    7a:dc:73
                Exponent: 65537 (0x10001)
        X509v3 extensions:
            X509v3 Key Usage: critical
                Certificate Sign, CRL Sign
            X509v3 Basic Constraints: critical
                CA:TRUE
            X509v3 Subject Key Identifier: 
                14:85:0B:05:4E:AA:4D:0A:40:FA:61:A5:1E:84:3D:F2:8D:C5:88:E6
            X509v3 Authority Key Identifier: 
                14:85:0B:05:4E:AA:4D:0A:40:FA:61:A5:1E:84:3D:F2:8D:C5:88:E6
    Signature Algorithm: sha256WithRSAEncryption
    Signature Value:
        75:17:06:a3:96:9f:fe:5c:18:11:72:3a:64:83:4c:6e:af:16:
        72:1f:4f:8c:11:a3:13:82:a7:92:d4:71:fb:f7:8c:ef:5d:65:
        c9:87:bc:8e:55:47:62:d2:40:db:b4:04:9e:9d:c6:3a:18:15:
        9b:9e:d8:19:78:fb:aa:32:e3:e7:fd:d1:93:92:3f:cb:db:a1:
        18:67:9a:22:21:b9:97:ca:6d:76:ea:11:27:4f:19:58:80:b0:
        47:be:15:e8:4c:0f:6f:fa:16:05:20:7b:99:6f:17:17:36:aa:
        1e:49:10:95:24:07:5b:95:7c:bc:dc:8f:8a:5b:a1:1c:1c:f6:
        ca:2b:34:b0:8b:2d:a1:22:74:0e:de:5f:02:e2:b8:a9:c2:dd:
        b2:44:d6:cb:bb:1c:d4:67:03:d1:8f:9c:87:c1:04:6f:e9:84:
        e6:69:14:31:e1:ef:6d:2c:04:2d:fa:4b:73:c6:08:e5:9f:18:
        89:86:e4:e6:ed:fc:ac:ef:25:c2:57:18:34:53:f0:83:ad:f2:
        ad:74:5b:ae:d1:86:d8:44:30:98:c5:30:23:2f:6b:60:fb:e4:
        19:83:07:9d:67:4c:b0:36:8d:cc:a1:f1:77:b1:3f:39:d7:10:
        db:50:0c:b7:4f:d1:75:d4:7a:25:9e:e2:e3:82:71:94:ae:a2:
        85:75:a8:95:a5:15:13:df:6f:8f:ed:1b:2e:bc:fa:63:20:fb:
        28:cf:d9:43:94:71:af:9c:de:68:0b:8e:ec:41:98:42:1e:65:
        f2:34:6f:a8:0d:5c:de:9b:be:4c:70:1d:ba:a8:33:ef:61:75:
        39:cf:30:f6:06:5b:c7:de:1c:dd:a6:26:db:3b:e4:f4:f9:26:
        d6:85:ff:57:04:67:e7:3b:89:e3:d6:08:ef:c5:3d:ab:f9:5b:
        6d:d6:5f:90:6d:a8:6f:3c:8b:6f:b0:73:e1:97:86:7f:e9:79:
        e2:43:e8:d3:8a:50:48:d4:f1:1d:f3:d7:7d:dd:c5:43:b2:4b:
        39:3e:f0:95:85:80:fa:cd:b2:31:b6:97:f5:78:57:de:a1:ad:
        dc:c6:b9:59:dd:24:22:f1:a3:46:6b:58:10:eb:f4:06:e8:0b:
        9c:3a:5f:be:8e:7f:95:47:9f:08:30:b8:4d:bb:91:d4:7c:2f:
        89:10:ce:0f:8f:fe:2c:de:1a:90:51:20:c1:62:38:0f:df:c1:
        79:50:87:81:d1:72:fe:d4:20:89:94:49:43:b1:02:51:ce:d0:
        50:cd:07:a3:1d:9c:e1:39:de:60:eb:99:5e:ed:96:ac:05:5b:
        d7:20:5c:93:18:eb:06:09:21:c4:28:89:0c:2c:29:0c:b2:78:
        be:c3:79:0c:d5:b1:23:2e
-----BEGIN CERTIFICATE-----
MIIF7TCCA9WgAwIBAgIUXX2vpAuXKitAlhe/WbwH+MWKorEwDQYJKoZIhvcNAQEL
BQAwfjESMBAGCgmSJomT8ixkARkWAmNhMRQwEgYKCZImiZPyLGQBGRYEbGFiNTEZ
MBcGA1UECgwQTGFiNSBEZXZPcHMgSW5jLjEUMBIGA1UECwwLd3d3LmxhYjUuY2Ex
ITAfBgNVBAMMGExhYjUgRGV2T3BzIEluYy4gUm9vdCBDQTAeFw0yNDA1MjExNTQ2
MzdaFw0zNDA1MjExNTQ2MzdaMH4xEjAQBgoJkiaJk/IsZAEZFgJjYTEUMBIGCgmS
JomT8ixkARkWBGxhYjUxGTAXBgNVBAoMEExhYjUgRGV2T3BzIEluYy4xFDASBgNV
BAsMC3d3dy5sYWI1LmNhMSEwHwYDVQQDDBhMYWI1IERldk9wcyBJbmMuIFJvb3Qg
Q0EwggIiMA0GCSqGSIb3DQEBAQUAA4ICDwAwggIKAoICAQCc5vlvQDrnMF+Nsz0W
lYRjZ0MGBJvUTUtJflVBRuycvkcZy2All3W/tb5aRH/1xiYQQR9l8EQpLKZtZwe0
0YDi3xVJ8x9nbbubTEY7MJDEcNNgQioXSD3p+jG+E7FZNgvt3Q67utWa5kZE5KUf
L3hi4aedQSMMMUy0pAEmaT+bBPiWEeF7ABJQOy9op28H5hq17yt4/BLWtqV5Mtzs
AKuaufWMlHWY2pV09I5pPCtqZvvYKVU69b9tVlmUV+LHHYcW1RSSjjuMbJXLfwjD
boRLorinUcZAZu0YbWL1AmqvoR6z41niWAtE4xXlL0vEO4r+iHy4kksZyg0X9ZfI
mJ9Am5SkOuYi5wy6cuv9IfKiHVdMdgWoLvQGSCNwWB8zYNfwiEf12hEWD5OByDSw
OPZoP4/WEUyDVFEc1ipIhW3Nt7Ch9PV5NlVaMGcqeWUB029OCoNhQhDsybIPa93s
ba7QZGqIYmUvZk9SK5nZJJt0kqPXE+GibLUHlvSw8SfQGk+9D9G/D6NF+E30MKBX
ew7btwMOIa0ia+kQ5aSYQEr8Xl698Vxz/9AbmjbsAxDUnKSX0mF1vRFF+0vRmjK5
3W9owdtaN3n6Z+adWstz4tOvDXVeNTM9zPewVgJH7w+pGMtgEePo2tXMLYFbSpW7
m5i0m7BSLJ1LzMedofWaYXrccwIDAQABo2MwYTAOBgNVHQ8BAf8EBAMCAQYwDwYD
VR0TAQH/BAUwAwEB/zAdBgNVHQ4EFgQUFIULBU6qTQpA+mGlHoQ98o3FiOYwHwYD
VR0jBBgwFoAUFIULBU6qTQpA+mGlHoQ98o3FiOYwDQYJKoZIhvcNAQELBQADggIB
AHUXBqOWn/5cGBFyOmSDTG6vFnIfT4wRoxOCp5LUcfv3jO9dZcmHvI5VR2LSQNu0
BJ6dxjoYFZue2Bl4+6oy4+f90ZOSP8vboRhnmiIhuZfKbXbqESdPGViAsEe+FehM
D2/6FgUge5lvFxc2qh5JEJUkB1uVfLzcj4pboRwc9sorNLCLLaEidA7eXwLiuKnC
3bJE1su7HNRnA9GPnIfBBG/phOZpFDHh720sBC36S3PGCOWfGImG5Obt/KzvJcJX
GDRT8IOt8q10W67RhthEMJjFMCMva2D75BmDB51nTLA2jcyh8XexPznXENtQDLdP
0XXUeiWe4uOCcZSuooV1qJWlFRPfb4/tGy68+mMg+yjP2UOUca+c3mgLjuxBmEIe
ZfI0b6gNXN6bvkxwHbqoM+9hdTnPMPYGW8feHN2mJts75PT5JtaF/1cEZ+c7iePW
CO/FPav5W23WX5BtqG88i2+wc+GXhn/peeJD6NOKUEjU8R3z133dxUOySzk+8JWF
gPrNsjG2l/V4V96hrdzGuVndJCLxo0ZrWBDr9AboC5w6X76Of5VHnwgwuE27kdR8
L4kQzg+P/izeGpBRIMFiOA/fwXlQh4HRcv7UIImUSUOxAlHO0FDNB6MdnOE53mDr
mV7tlqwFW9cgXJMY6wYJIcQoiQwsKQyyeL7DeQzVsSMu
-----END CERTIFICATE-----
