Certificate:
    Data:
        Version: 3 (0x2)
        Serial Number:
            5e:27:15:e3:6f:35:a9:54:6e:8f:9c:56:2c:a3:8d:1c:9e:db:27:45
        Signature Algorithm: sha256WithRSAEncryption
        Issuer: DC=ca, DC=lab5, O=Lab5 DevOps Inc., OU=www.lab5.ca, CN=Lab5 DevOps Inc. Root CA
        Validity
            Not Before: Mar 29 12:34:35 2024 GMT
            Not After : Mar 29 12:34:35 2034 GMT
        Subject: DC=ca, DC=lab5, O=Lab5 DevOps Inc., OU=www.lab5.ca, CN=Lab5 DevOps Inc. Issuing CA
        Subject Public Key Info:
            Public Key Algorithm: rsaEncryption
                Public-Key: (4096 bit)
                Modulus:
                    00:c8:0e:0c:8e:72:7b:89:06:ac:3b:84:a7:d1:6c:
                    d2:f5:b1:bd:4c:61:29:61:5e:61:9e:43:60:3f:fd:
                    9d:94:54:30:5c:7a:f0:04:0e:8b:69:a3:f4:4d:f9:
                    ca:c9:b7:9f:79:40:c6:f4:01:3c:c1:80:d3:a0:5f:
                    28:3c:90:99:3a:d5:dc:85:f5:79:45:68:f2:61:bf:
                    5d:96:a8:38:55:3d:08:5c:1a:34:f2:18:3d:8f:6a:
                    01:cd:3a:22:86:9a:33:f7:94:d1:3b:42:38:1e:0a:
                    42:4d:b3:a3:27:de:57:87:66:ae:98:c5:b8:71:d6:
                    24:5b:c7:62:33:be:66:bd:7b:f5:07:25:bf:81:8b:
                    de:5d:c1:8a:b3:58:a5:1a:12:55:30:c8:9f:ff:b1:
                    e6:7e:d5:e1:3e:fb:30:dc:46:8c:d3:17:b6:a5:fb:
                    06:84:ed:2a:4f:53:76:4b:1c:22:7c:d4:71:f5:f1:
                    50:0b:6b:73:fd:0d:eb:63:d9:7a:45:57:fc:1f:69:
                    75:4b:f8:ea:47:6a:b3:b3:87:1d:01:76:37:8b:77:
                    6a:e6:ec:68:15:23:d7:6a:e6:5d:b4:6f:6b:2d:cd:
                    fe:fe:57:d5:2e:a9:39:69:2d:7b:6b:2a:c5:47:f4:
                    45:6f:f6:7b:27:94:6c:46:ee:90:a8:d9:79:de:9b:
                    fd:65:f2:ef:42:76:7d:bc:04:e6:25:57:69:bc:72:
                    78:44:c8:82:f5:6d:47:49:84:2e:70:31:d1:c4:c2:
                    e6:74:66:aa:bc:5c:c7:db:9b:19:e3:b7:a1:e6:0d:
                    0c:b2:13:6a:11:95:c6:49:56:43:33:15:47:14:9d:
                    53:6a:bb:61:e7:56:92:d4:30:ba:94:bd:69:5c:00:
                    18:dc:f0:e8:90:02:0d:b9:6f:f3:2a:a3:d1:1f:9b:
                    09:df:3b:88:c5:5b:b4:ab:cd:82:ff:92:48:fe:9a:
                    e6:ee:2d:c8:ce:df:c8:cf:c5:df:e5:5f:6c:36:01:
                    2d:77:83:6b:7b:1c:9a:77:a2:37:a1:6c:9b:0c:09:
                    e2:52:b9:85:df:97:c6:89:c1:b6:cd:d0:b0:fd:7e:
                    0a:7c:25:f0:64:7d:8c:d8:2c:7f:bd:25:c3:e8:ec:
                    0b:9a:36:42:37:23:b8:ff:1f:19:b7:d9:e4:86:f6:
                    54:38:6b:ad:97:66:39:c9:7c:d7:2b:71:20:c2:c7:
                    9f:38:5a:79:ac:ad:a9:f9:8b:3c:8b:78:8a:8c:c7:
                    4d:9c:c9:38:25:34:b3:cd:94:16:0e:62:ac:e0:99:
                    a8:68:2f:b9:4d:92:8e:17:fc:6f:71:9b:63:ea:e5:
                    18:ce:17:e3:8d:97:43:a2:04:14:4c:bf:db:f7:67:
                    91:f4:51
                Exponent: 65537 (0x10001)
        X509v3 extensions:
            X509v3 Key Usage: critical
                Certificate Sign, CRL Sign
            X509v3 Basic Constraints: critical
                CA:TRUE, pathlen:0
            X509v3 Subject Key Identifier: 
                50:D9:15:D1:2E:4B:13:4A:FC:32:A5:BE:B6:C7:AE:F6:29:B8:3C:E7
            X509v3 Authority Key Identifier: 
                E9:3A:A2:3D:7F:1E:99:46:11:51:5D:C8:54:CB:F2:A3:C9:82:48:27
    Signature Algorithm: sha256WithRSAEncryption
    Signature Value:
        c5:e3:7d:d9:4c:c5:6b:3e:48:cf:5b:d0:f6:98:ca:21:e4:03:
        be:de:80:43:45:a9:7c:2a:f3:3e:b3:96:e6:98:61:f3:de:95:
        eb:8a:af:06:bc:d4:06:b0:68:d5:75:8a:4b:85:13:e3:9c:d1:
        c0:93:81:db:bd:5a:fb:15:b8:c8:cd:d6:63:42:82:e5:3d:ec:
        ae:ad:36:5d:43:a7:d1:81:c4:69:ca:fc:a3:b9:a2:0a:dd:55:
        d1:a9:c6:c0:ac:3c:cb:32:40:e8:d4:47:36:5e:94:35:cb:e5:
        04:50:ae:5d:e4:59:a0:22:ee:6f:29:01:9d:31:08:31:86:ef:
        57:3b:80:2c:6e:26:89:2d:25:8a:cb:07:34:65:d6:53:15:b2:
        f4:91:80:05:46:71:8f:58:b4:ac:a9:45:cf:30:95:bd:0f:02:
        88:69:9e:f0:17:bc:ab:07:fa:a5:0f:cc:29:01:19:28:cd:14:
        65:fa:6f:22:93:5d:66:07:81:4b:6f:ca:6d:96:b6:09:ad:6f:
        1b:e2:a1:b2:cc:3d:57:90:04:66:20:11:68:fb:b0:96:41:46:
        ca:22:dc:7d:54:14:b2:72:a5:a7:4e:02:eb:6e:96:ad:94:c6:
        eb:5e:b8:d7:33:c8:97:41:5b:3f:31:b8:c9:69:a4:84:c3:2d:
        f6:8d:da:d8:40:48:4c:aa:52:9c:1b:f6:8c:4e:7a:fc:c6:8f:
        bc:96:ee:0f:a5:10:ac:77:4a:8e:ec:36:33:ba:bc:9b:cf:ca:
        c9:26:36:d0:8c:e0:90:ba:75:8e:94:5d:bc:3b:3f:d8:8d:dd:
        ee:32:6a:7d:fc:51:68:ae:8a:e9:39:66:a5:3f:42:9f:ec:46:
        f6:c1:8c:03:aa:58:e8:ca:ab:71:8c:01:44:b3:2c:10:24:7e:
        83:f6:bc:6c:1c:86:6b:9d:12:a9:24:e6:27:81:38:9e:e5:bc:
        58:c5:7a:27:76:10:95:c4:63:15:ff:0f:26:7e:d2:f6:5e:fa:
        31:61:00:67:47:56:89:db:06:ae:96:84:2f:3a:3d:11:9e:56:
        66:69:49:2b:7d:de:af:a0:71:13:fd:b4:b3:01:4a:fe:ae:a8:
        3b:d9:2c:df:52:9b:01:09:c5:dc:4a:24:29:d1:d0:cd:c3:14:
        51:30:05:30:35:01:43:3b:a0:5b:ee:c5:49:d4:5f:28:5e:ff:
        51:48:69:d7:60:43:7b:6a:06:66:f9:29:6a:a1:4f:ac:52:50:
        03:57:0e:93:73:65:36:03:6f:b3:bd:1b:a9:ec:2a:7d:de:86:
        69:fd:ae:ea:c9:fc:a5:b3:d0:a7:05:9c:c7:cc:6b:19:4e:89:
        43:f3:81:9a:c0:43:ad:ee
-----BEGIN CERTIFICATE-----
MIIF9DCCA9ygAwIBAgIUXicV4281qVRuj5xWLKONHJ7bJ0UwDQYJKoZIhvcNAQEL
BQAwfjESMBAGCgmSJomT8ixkARkWAmNhMRQwEgYKCZImiZPyLGQBGRYEbGFiNTEZ
MBcGA1UECgwQTGFiNSBEZXZPcHMgSW5jLjEUMBIGA1UECwwLd3d3LmxhYjUuY2Ex
ITAfBgNVBAMMGExhYjUgRGV2T3BzIEluYy4gUm9vdCBDQTAeFw0yNDAzMjkxMjM0
MzVaFw0zNDAzMjkxMjM0MzVaMIGBMRIwEAYKCZImiZPyLGQBGRYCY2ExFDASBgoJ
kiaJk/IsZAEZFgRsYWI1MRkwFwYDVQQKDBBMYWI1IERldk9wcyBJbmMuMRQwEgYD
VQQLDAt3d3cubGFiNS5jYTEkMCIGA1UEAwwbTGFiNSBEZXZPcHMgSW5jLiBJc3N1
aW5nIENBMIICIjANBgkqhkiG9w0BAQEFAAOCAg8AMIICCgKCAgEAyA4MjnJ7iQas
O4Sn0WzS9bG9TGEpYV5hnkNgP/2dlFQwXHrwBA6LaaP0TfnKybefeUDG9AE8wYDT
oF8oPJCZOtXchfV5RWjyYb9dlqg4VT0IXBo08hg9j2oBzToihpoz95TRO0I4HgpC
TbOjJ95Xh2aumMW4cdYkW8diM75mvXv1ByW/gYveXcGKs1ilGhJVMMif/7HmftXh
Pvsw3EaM0xe2pfsGhO0qT1N2SxwifNRx9fFQC2tz/Q3rY9l6RVf8H2l1S/jqR2qz
s4cdAXY3i3dq5uxoFSPXauZdtG9rLc3+/lfVLqk5aS17ayrFR/RFb/Z7J5RsRu6Q
qNl53pv9ZfLvQnZ9vATmJVdpvHJ4RMiC9W1HSYQucDHRxMLmdGaqvFzH25sZ47eh
5g0MshNqEZXGSVZDMxVHFJ1Tarth51aS1DC6lL1pXAAY3PDokAINuW/zKqPRH5sJ
3zuIxVu0q82C/5JI/prm7i3Izt/Iz8Xf5V9sNgEtd4Nrexyad6I3oWybDAniUrmF
35fGicG2zdCw/X4KfCXwZH2M2Cx/vSXD6OwLmjZCNyO4/x8Zt9nkhvZUOGutl2Y5
yXzXK3EgwsefOFp5rK2p+Ys8i3iKjMdNnMk4JTSzzZQWDmKs4JmoaC+5TZKOF/xv
cZtj6uUYzhfjjZdDogQUTL/b92eR9FECAwEAAaNmMGQwDgYDVR0PAQH/BAQDAgEG
MBIGA1UdEwEB/wQIMAYBAf8CAQAwHQYDVR0OBBYEFFDZFdEuSxNK/DKlvrbHrvYp
uDznMB8GA1UdIwQYMBaAFOk6oj1/HplGEVFdyFTL8qPJgkgnMA0GCSqGSIb3DQEB
CwUAA4ICAQDF433ZTMVrPkjPW9D2mMoh5AO+3oBDRal8KvM+s5bmmGHz3pXriq8G
vNQGsGjVdYpLhRPjnNHAk4HbvVr7FbjIzdZjQoLlPeyurTZdQ6fRgcRpyvyjuaIK
3VXRqcbArDzLMkDo1Ec2XpQ1y+UEUK5d5FmgIu5vKQGdMQgxhu9XO4AsbiaJLSWK
ywc0ZdZTFbL0kYAFRnGPWLSsqUXPMJW9DwKIaZ7wF7yrB/qlD8wpARkozRRl+m8i
k11mB4FLb8ptlrYJrW8b4qGyzD1XkARmIBFo+7CWQUbKItx9VBSycqWnTgLrbpat
lMbrXrjXM8iXQVs/MbjJaaSEwy32jdrYQEhMqlKcG/aMTnr8xo+8lu4PpRCsd0qO
7DYzurybz8rJJjbQjOCQunWOlF28Oz/Yjd3uMmp9/FFororpOWalP0Kf7Eb2wYwD
qljoyqtxjAFEsywQJH6D9rxsHIZrnRKpJOYngTie5bxYxXondhCVxGMV/w8mftL2
XvoxYQBnR1aJ2wauloQvOj0RnlZmaUkrfd6voHET/bSzAUr+rqg72SzfUpsBCcXc
SiQp0dDNwxRRMAUwNQFDO6Bb7sVJ1F8oXv9RSGnXYEN7agZm+SlqoU+sUlADVw6T
c2U2A2+zvRup7Cp93oZp/a7qyfyls9CnBZzHzGsZTolD84GawEOt7g==
-----END CERTIFICATE-----
