Certificate:
    Data:
        Version: 3 (0x2)
        Serial Number:
            61:e2:82:15:c4:24:8d:df:63:42:54:87:1c:5a:ed:57:13:e1:26:76
        Signature Algorithm: ED25519
        Issuer: DC=ca, DC=lab5, O=Lab5 DevOps Inc., OU=www.lab5.ca, CN=Lab5 DevOps Inc. Root CA
        Validity
            Not Before: Mar  2 15:06:10 2024 GMT
            Not After : Mar  2 15:06:10 2034 GMT
        Subject: DC=ca, DC=lab5, O=Lab5 DevOps Inc., OU=www.lab5.ca, CN=Lab5 DevOps Inc. Issuing CA
        Subject Public Key Info:
            Public Key Algorithm: ED25519
                ED25519 Public-Key:
                pub:
                    d0:ed:45:f8:da:57:47:77:a7:bf:8d:2b:8a:94:51:
                    0f:66:ef:01:49:f9:11:4c:a7:39:3a:18:89:a4:33:
                    31:89
        X509v3 extensions:
            X509v3 Key Usage: critical
                Certificate Sign, CRL Sign
            X509v3 Basic Constraints: critical
                CA:TRUE, pathlen:0
            X509v3 Subject Key Identifier: 
                73:EE:1D:17:BD:6B:FF:B1:1F:97:87:5D:9B:0D:DA:08:72:B4:EF:2B
            X509v3 Authority Key Identifier: 
                59:16:9A:CF:E3:6B:4B:9D:EE:91:F8:24:24:9A:93:4B:DA:A6:C5:D2
    Signature Algorithm: ED25519
    Signature Value:
        7b:d2:9a:44:63:ed:3a:2d:cf:41:b0:65:8c:bc:e3:0e:bf:da:
        61:59:4a:fd:f5:d5:a3:b5:ff:4b:50:f8:3e:da:e9:72:a9:19:
        e4:f1:b5:f6:2a:3d:dc:8d:7c:66:47:97:fb:7f:7c:22:c8:e2:
        cc:b9:88:2a:5b:1c:6a:2f:78:0f
-----BEGIN CERTIFICATE-----
MIICKDCCAdqgAwIBAgIUYeKCFcQkjd9jQlSHHFrtVxPhJnYwBQYDK2VwMH4xEjAQ
BgoJkiaJk/IsZAEZFgJjYTEUMBIGCgmSJomT8ixkARkWBGxhYjUxGTAXBgNVBAoM
EExhYjUgRGV2T3BzIEluYy4xFDASBgNVBAsMC3d3dy5sYWI1LmNhMSEwHwYDVQQD
DBhMYWI1IERldk9wcyBJbmMuIFJvb3QgQ0EwHhcNMjQwMzAyMTUwNjEwWhcNMzQw
MzAyMTUwNjEwWjCBgTESMBAGCgmSJomT8ixkARkWAmNhMRQwEgYKCZImiZPyLGQB
GRYEbGFiNTEZMBcGA1UECgwQTGFiNSBEZXZPcHMgSW5jLjEUMBIGA1UECwwLd3d3
LmxhYjUuY2ExJDAiBgNVBAMMG0xhYjUgRGV2T3BzIEluYy4gSXNzdWluZyBDQTAq
MAUGAytlcAMhANDtRfjaV0d3p7+NK4qUUQ9m7wFJ+RFMpzk6GImkMzGJo2YwZDAO
BgNVHQ8BAf8EBAMCAQYwEgYDVR0TAQH/BAgwBgEB/wIBADAdBgNVHQ4EFgQUc+4d
F71r/7Efl4ddmw3aCHK07yswHwYDVR0jBBgwFoAUWRaaz+NrS53ukfgkJJqTS9qm
xdIwBQYDK2VwA0EAe9KaRGPtOi3PQbBljLzjDr/aYVlK/fXVo7X/S1D4PtrpcqkZ
5PG19io93I18ZkeX+398IsjizLmIKlscai94Dw==
-----END CERTIFICATE-----
