Certificate:
    Data:
        Version: 3 (0x2)
        Serial Number:
            65:a1:6f:ee:4d:8a:7e:d5:2e:62:c7:90:27:ad:b9:25:bb:6d:93:18
        Signature Algorithm: ED25519
        Issuer: DC=ca, DC=lab5, O=Lab5 DevOps Inc., OU=www.lab5.ca, CN=Lab5 DevOps Inc. Root CA
        Validity
            Not Before: Mar 10 00:03:32 2024 GMT
            Not After : Mar 10 00:03:32 2034 GMT
        Subject: DC=ca, DC=lab5, O=Lab5 DevOps Inc., OU=www.lab5.ca, CN=Lab5 DevOps Inc. Root CA
        Subject Public Key Info:
            Public Key Algorithm: ED25519
                ED25519 Public-Key:
                pub:
                    37:c3:50:66:ae:98:11:27:3d:41:4e:22:f0:a2:20:
                    db:28:4e:ac:d8:6d:72:5c:b5:7b:e8:cb:d0:e2:59:
                    d1:33
        X509v3 extensions:
            X509v3 Key Usage: critical
                Certificate Sign, CRL Sign
            X509v3 Basic Constraints: critical
                CA:TRUE
            X509v3 Subject Key Identifier: 
                B0:92:94:0D:06:2D:06:DA:9B:57:C1:E1:A8:AD:DB:98:4D:BD:EF:1E
            X509v3 Authority Key Identifier: 
                B0:92:94:0D:06:2D:06:DA:9B:57:C1:E1:A8:AD:DB:98:4D:BD:EF:1E
    Signature Algorithm: ED25519
    Signature Value:
        a7:2d:41:41:74:8e:15:b1:4f:5f:b4:27:c3:25:59:7d:86:c3:
        2b:6e:b6:03:cf:0e:67:75:f3:84:8b:bf:89:2f:4b:71:e4:c3:
        4d:1e:54:c2:cf:2e:71:bc:49:be:ca:ac:b9:67:f8:1d:cb:43:
        08:ee:48:d8:21:e5:11:98:20:0d
-----BEGIN CERTIFICATE-----
MIICITCCAdOgAwIBAgIUZaFv7k2KftUuYseQJ625JbttkxgwBQYDK2VwMH4xEjAQ
BgoJkiaJk/IsZAEZFgJjYTEUMBIGCgmSJomT8ixkARkWBGxhYjUxGTAXBgNVBAoM
EExhYjUgRGV2T3BzIEluYy4xFDASBgNVBAsMC3d3dy5sYWI1LmNhMSEwHwYDVQQD
DBhMYWI1IERldk9wcyBJbmMuIFJvb3QgQ0EwHhcNMjQwMzEwMDAwMzMyWhcNMzQw
MzEwMDAwMzMyWjB+MRIwEAYKCZImiZPyLGQBGRYCY2ExFDASBgoJkiaJk/IsZAEZ
FgRsYWI1MRkwFwYDVQQKDBBMYWI1IERldk9wcyBJbmMuMRQwEgYDVQQLDAt3d3cu
bGFiNS5jYTEhMB8GA1UEAwwYTGFiNSBEZXZPcHMgSW5jLiBSb290IENBMCowBQYD
K2VwAyEAN8NQZq6YESc9QU4i8KIg2yhOrNhtcly1e+jL0OJZ0TOjYzBhMA4GA1Ud
DwEB/wQEAwIBBjAPBgNVHRMBAf8EBTADAQH/MB0GA1UdDgQWBBSwkpQNBi0G2ptX
weGorduYTb3vHjAfBgNVHSMEGDAWgBSwkpQNBi0G2ptXweGorduYTb3vHjAFBgMr
ZXADQQCnLUFBdI4VsU9ftCfDJVl9hsMrbrYDzw5ndfOEi7+JL0tx5MNNHlTCzy5x
vEm+yqy5Z/gdy0MI7kjYIeURmCAN
-----END CERTIFICATE-----
