Certificate:
    Data:
        Version: 3 (0x2)
        Serial Number:
            66:ae:bf:8e:5c:e5:69:4b:9d:ad:95:b3:30:99:85:79:80:44:67:61
        Signature Algorithm: sha256WithRSAEncryption
        Issuer: DC=ca, DC=lab5, O=Lab5 DevOps Inc., OU=www.lab5.ca, CN=Lab5 DevOps Inc. Root CA
        Validity
            Not Before: May 21 05:20:46 2024 GMT
            Not After : May 21 05:20:46 2034 GMT
        Subject: DC=ca, DC=lab5, O=Lab5 DevOps Inc., OU=www.lab5.ca, CN=Lab5 DevOps Inc. Issuing CA
        Subject Public Key Info:
            Public Key Algorithm: rsaEncryption
                Public-Key: (4096 bit)
                Modulus:
                    00:b9:9e:42:2b:61:b7:ec:eb:7a:9b:6c:f5:3a:1a:
                    ca:8f:c8:aa:7c:26:dd:82:f4:b5:ca:32:8f:66:4e:
                    75:92:d6:2a:09:60:44:46:a6:85:ee:29:92:2a:ed:
                    b1:04:23:de:1e:7c:43:d1:3f:5e:2d:68:42:c1:09:
                    61:25:cd:4a:d7:af:df:ef:b3:b9:f7:f6:cf:61:7a:
                    22:5c:a3:d5:79:bb:75:fb:1f:79:5d:1b:56:a2:77:
                    ff:72:19:c9:f8:ff:62:66:0f:d5:b3:72:0e:d8:ce:
                    0d:06:93:c7:c3:76:81:1c:5c:49:e7:24:b7:9a:d8:
                    01:25:be:1a:8e:45:cb:89:f1:34:f7:e8:77:61:51:
                    ec:cd:2b:1d:54:aa:45:a1:31:82:7d:f8:3c:d9:d9:
                    ad:79:48:39:87:1b:fe:3d:fa:69:37:a9:99:d9:4f:
                    07:37:56:66:4c:04:11:66:07:23:77:56:f7:fc:d9:
                    df:91:35:db:15:5b:5e:26:24:57:8c:2e:5b:54:a7:
                    3c:75:03:59:f7:b2:47:62:84:3d:5d:34:83:4e:8a:
                    9d:9c:74:76:ec:7e:13:5b:f9:67:49:04:fd:d5:4b:
                    89:20:c0:00:15:90:7d:15:32:7b:4d:1f:63:ea:79:
                    31:c3:4b:9a:19:0f:97:99:5e:32:8a:1a:93:ae:ea:
                    59:62:e5:3b:8a:88:9c:cd:c9:d9:09:33:11:fa:20:
                    cf:63:89:ae:0f:bf:ea:0e:66:8f:fc:a4:1b:63:82:
                    5e:52:9c:c0:92:65:02:b8:5d:76:c7:b0:13:53:7a:
                    1b:5a:99:51:1b:49:66:36:78:d0:33:1c:5f:85:97:
                    3f:fe:e9:f8:79:a1:3f:f5:ee:27:66:f6:12:0f:78:
                    11:5e:3c:9b:ff:38:9d:8f:7e:81:84:2c:a0:06:de:
                    a7:1a:f7:85:68:13:fa:20:3c:5a:a5:b1:dd:f3:5b:
                    74:f4:41:fc:84:da:f2:02:84:1d:46:18:ce:c1:f2:
                    ab:12:7b:da:38:35:79:50:2c:40:da:9f:e2:10:49:
                    d2:41:b2:b9:51:08:72:d5:66:00:37:d0:fd:28:23:
                    b7:43:3c:46:ab:48:fc:9c:1e:d2:6d:55:a4:10:ee:
                    e7:40:c6:ac:93:14:95:51:cd:e6:6a:f0:93:2a:17:
                    0e:81:6b:35:af:d6:6e:2f:5e:6b:43:b1:b8:9d:4a:
                    fe:0d:9a:51:c4:55:02:a6:ec:ae:48:5c:61:1b:a2:
                    2f:8e:c4:85:78:a1:8c:6d:79:7c:5f:d9:2c:b6:80:
                    14:b4:27:b3:6e:95:c5:53:39:ce:02:74:2c:4f:37:
                    d7:e3:6b:f1:48:e0:02:49:26:b5:97:70:61:b8:79:
                    4a:b4:43
                Exponent: 65537 (0x10001)
        X509v3 extensions:
            X509v3 Key Usage: critical
                Certificate Sign, CRL Sign
            X509v3 Basic Constraints: critical
                CA:TRUE, pathlen:0
            X509v3 Subject Key Identifier: 
                4E:84:73:4A:C4:B1:1F:59:9B:84:1C:98:2A:B3:4B:E6:82:6D:1F:D2
            X509v3 Authority Key Identifier: 
                70:A2:0E:40:D8:E7:AD:06:6F:F6:C3:08:94:72:EF:40:77:82:42:EC
    Signature Algorithm: sha256WithRSAEncryption
    Signature Value:
        00:cf:7b:53:d8:e6:11:36:1c:03:4b:7f:57:e5:49:0a:ba:be:
        3a:f0:20:96:55:ee:b0:cc:a9:f7:b7:c3:c4:7d:2f:bd:d4:96:
        bd:14:e4:44:62:f5:13:5f:f4:38:0c:18:2a:84:00:62:b1:9c:
        5e:01:ba:dc:04:82:bb:0c:ac:5a:a3:4c:3a:65:e8:90:ab:45:
        d4:04:94:67:da:da:bd:82:77:e6:26:ff:ea:a7:c4:e4:c6:7d:
        a8:25:dd:a1:0d:8f:ae:5e:b6:5b:70:ee:02:98:82:9e:1b:51:
        88:d3:a2:6d:18:a5:c6:7a:a2:db:bb:52:90:bc:55:e5:12:7f:
        b4:3b:75:c8:b1:3c:e4:6f:05:cc:34:04:35:6f:9f:3a:da:c8:
        64:f8:84:25:4c:7d:06:bf:3e:c4:67:22:6c:c9:c1:83:9e:8d:
        35:17:2b:75:2b:a8:48:3d:a9:63:b4:0e:5d:0f:67:97:29:97:
        b4:69:4c:2c:43:f3:95:7d:dc:15:b4:54:7d:7d:f3:85:3d:fb:
        b4:94:db:3a:8e:cc:ca:d7:55:91:cc:60:c6:f3:fe:41:df:00:
        65:9b:81:43:18:73:e0:bb:f5:b5:a5:9e:c9:b6:a9:0a:f1:c1:
        cc:83:86:6e:ec:cc:6b:5b:c3:35:35:12:c6:d8:69:32:39:7c:
        33:d1:d7:59:ab:36:f2:99:d4:fb:e5:aa:f8:c6:b5:cf:e0:81:
        83:34:cd:79:8f:3e:6c:8e:3e:f5:77:6a:1e:e3:c2:65:07:52:
        be:63:1e:1e:1f:18:5b:3b:20:dc:73:3c:00:0e:1c:4c:63:7c:
        c1:61:81:41:26:a7:a6:e4:17:b9:00:dc:8f:38:df:e2:39:2c:
        cc:15:e6:75:3a:4c:f3:1c:0f:79:08:ef:c6:4d:f9:ef:a8:82:
        ad:f9:bf:63:3b:c0:ba:d0:21:a5:9a:60:60:e4:91:e3:b8:2f:
        90:34:2c:2d:1b:0a:92:72:21:5c:24:c0:ce:3b:55:c9:88:13:
        c7:98:a0:12:57:c6:8a:e8:86:78:6a:71:61:9d:3f:63:21:0b:
        6a:6b:a2:88:42:05:cd:14:e1:fa:93:e5:52:29:e4:51:71:c0:
        e9:66:59:97:a8:ab:e1:bd:e9:a3:83:57:1b:ba:87:2a:e4:08:
        e8:74:b3:be:6d:00:8e:9f:7f:fa:0c:58:88:23:79:e8:2c:38:
        41:ba:6a:78:f6:0c:23:dc:ae:32:94:f3:fd:af:86:52:c8:35:
        31:e3:a7:cd:2d:6e:86:e6:c0:ab:24:8f:df:28:f8:37:28:c9:
        19:3b:1e:f8:eb:16:d8:66:60:d7:fd:35:0f:6a:1b:bc:7d:2c:
        65:a8:8e:bf:91:ad:21:e5
-----BEGIN CERTIFICATE-----
MIIF9DCCA9ygAwIBAgIUZq6/jlzlaUudrZWzMJmFeYBEZ2EwDQYJKoZIhvcNAQEL
BQAwfjESMBAGCgmSJomT8ixkARkWAmNhMRQwEgYKCZImiZPyLGQBGRYEbGFiNTEZ
MBcGA1UECgwQTGFiNSBEZXZPcHMgSW5jLjEUMBIGA1UECwwLd3d3LmxhYjUuY2Ex
ITAfBgNVBAMMGExhYjUgRGV2T3BzIEluYy4gUm9vdCBDQTAeFw0yNDA1MjEwNTIw
NDZaFw0zNDA1MjEwNTIwNDZaMIGBMRIwEAYKCZImiZPyLGQBGRYCY2ExFDASBgoJ
kiaJk/IsZAEZFgRsYWI1MRkwFwYDVQQKDBBMYWI1IERldk9wcyBJbmMuMRQwEgYD
VQQLDAt3d3cubGFiNS5jYTEkMCIGA1UEAwwbTGFiNSBEZXZPcHMgSW5jLiBJc3N1
aW5nIENBMIICIjANBgkqhkiG9w0BAQEFAAOCAg8AMIICCgKCAgEAuZ5CK2G37Ot6
m2z1OhrKj8iqfCbdgvS1yjKPZk51ktYqCWBERqaF7imSKu2xBCPeHnxD0T9eLWhC
wQlhJc1K16/f77O59/bPYXoiXKPVebt1+x95XRtWonf/chnJ+P9iZg/Vs3IO2M4N
BpPHw3aBHFxJ5yS3mtgBJb4ajkXLifE09+h3YVHszSsdVKpFoTGCffg82dmteUg5
hxv+PfppN6mZ2U8HN1ZmTAQRZgcjd1b3/NnfkTXbFVteJiRXjC5bVKc8dQNZ97JH
YoQ9XTSDToqdnHR27H4TW/lnSQT91UuJIMAAFZB9FTJ7TR9j6nkxw0uaGQ+XmV4y
ihqTrupZYuU7ioiczcnZCTMR+iDPY4muD7/qDmaP/KQbY4JeUpzAkmUCuF12x7AT
U3obWplRG0lmNnjQMxxfhZc//un4eaE/9e4nZvYSD3gRXjyb/zidj36BhCygBt6n
GveFaBP6IDxapbHd81t09EH8hNryAoQdRhjOwfKrEnvaODV5UCxA2p/iEEnSQbK5
UQhy1WYAN9D9KCO3QzxGq0j8nB7SbVWkEO7nQMaskxSVUc3mavCTKhcOgWs1r9Zu
L15rQ7G4nUr+DZpRxFUCpuyuSFxhG6IvjsSFeKGMbXl8X9kstoAUtCezbpXFUznO
AnQsTzfX42vxSOACSSa1l3BhuHlKtEMCAwEAAaNmMGQwDgYDVR0PAQH/BAQDAgEG
MBIGA1UdEwEB/wQIMAYBAf8CAQAwHQYDVR0OBBYEFE6Ec0rEsR9Zm4QcmCqzS+aC
bR/SMB8GA1UdIwQYMBaAFHCiDkDY560Gb/bDCJRy70B3gkLsMA0GCSqGSIb3DQEB
CwUAA4ICAQAAz3tT2OYRNhwDS39X5UkKur468CCWVe6wzKn3t8PEfS+91Ja9FORE
YvUTX/Q4DBgqhABisZxeAbrcBIK7DKxao0w6ZeiQq0XUBJRn2tq9gnfmJv/qp8Tk
xn2oJd2hDY+uXrZbcO4CmIKeG1GI06JtGKXGeqLbu1KQvFXlEn+0O3XIsTzkbwXM
NAQ1b5862shk+IQlTH0Gvz7EZyJsycGDno01Fyt1K6hIPaljtA5dD2eXKZe0aUws
Q/OVfdwVtFR9ffOFPfu0lNs6jszK11WRzGDG8/5B3wBlm4FDGHPgu/W1pZ7JtqkK
8cHMg4Zu7MxrW8M1NRLG2GkyOXwz0ddZqzbymdT75ar4xrXP4IGDNM15jz5sjj71
d2oe48JlB1K+Yx4eHxhbOyDcczwADhxMY3zBYYFBJqem5Be5ANyPON/iOSzMFeZ1
OkzzHA95CO/GTfnvqIKt+b9jO8C60CGlmmBg5JHjuC+QNCwtGwqSciFcJMDOO1XJ
iBPHmKASV8aK6IZ4anFhnT9jIQtqa6KIQgXNFOH6k+VSKeRRccDpZlmXqKvhvemj
g1cbuocq5AjodLO+bQCOn3/6DFiII3noLDhBump49gwj3K4ylPP9r4ZSyDUx46fN
LW6G5sCrJI/fKPg3KMkZOx746xbYZmDX/TUPahu8fSxlqI6/ka0h5Q==
-----END CERTIFICATE-----
