Certificate:
    Data:
        Version: 3 (0x2)
        Serial Number:
            68:27:c1:4d:bd:13:b2:e9:b6:c4:2f:b9:57:18:35:b6:47:78:e5:f2
        Signature Algorithm: sha256WithRSAEncryption
        Issuer: DC=ca, DC=lab5, O=Lab5 DevOps Inc., OU=www.lab5.ca, CN=Lab5 DevOps Inc. Root CA
        Validity
            Not Before: Mar 17 21:19:16 2024 GMT
            Not After : Mar 17 21:19:16 2034 GMT
        Subject: DC=ca, DC=lab5, O=Lab5 DevOps Inc., OU=www.lab5.ca, CN=Lab5 DevOps Inc. Root CA
        Subject Public Key Info:
            Public Key Algorithm: rsaEncryption
                Public-Key: (2048 bit)
                Modulus:
                    00:ad:9b:80:4f:db:fa:7e:ee:81:0c:4d:78:f5:7f:
                    af:16:e7:11:99:b9:30:a2:1c:68:f0:87:18:18:07:
                    ec:c9:24:43:05:02:81:ed:d0:ac:cf:73:71:ff:b2:
                    31:18:10:62:73:88:bb:36:fb:01:51:39:3e:6e:b2:
                    24:37:ba:ed:10:74:6d:cb:04:b3:ec:7b:e5:8b:78:
                    79:67:c4:52:70:39:08:43:e8:87:3a:b3:2a:43:33:
                    70:aa:56:2a:49:3e:95:16:a0:1f:14:1b:c5:af:56:
                    da:fc:5a:78:3b:80:7c:8d:49:b0:e1:fa:35:5d:38:
                    ea:e2:8c:1d:41:3a:ce:9c:56:94:3f:24:2e:67:03:
                    1b:03:66:9c:ea:8f:b0:9a:fe:c0:c3:3c:4a:45:83:
                    9a:b1:25:fd:d7:1c:07:73:d9:0c:3e:70:6d:eb:64:
                    98:0a:81:b3:b9:04:73:cd:b5:aa:0d:55:a0:d8:84:
                    6a:60:f0:2a:61:ec:c0:a4:eb:34:2a:11:ae:3c:ff:
                    da:38:f5:31:53:98:89:68:3e:d2:c1:9c:6e:49:69:
                    d5:ef:e4:e9:dc:54:f3:65:52:a9:bf:8d:fd:d2:ba:
                    1b:6a:22:aa:03:6d:47:d7:6e:0e:f8:9d:fb:6e:b8:
                    30:5c:7e:49:57:77:b9:2c:e8:b6:84:0f:a6:2c:e2:
                    a2:e3
                Exponent: 65537 (0x10001)
        X509v3 extensions:
            X509v3 Key Usage: critical
                Certificate Sign, CRL Sign
            X509v3 Basic Constraints: critical
                CA:TRUE
            X509v3 Subject Key Identifier: 
                7A:EE:88:F9:71:BC:50:7E:DF:15:16:0A:08:D1:D2:43:CD:6F:B0:47
            X509v3 Authority Key Identifier: 
                7A:EE:88:F9:71:BC:50:7E:DF:15:16:0A:08:D1:D2:43:CD:6F:B0:47
    Signature Algorithm: sha256WithRSAEncryption
    Signature Value:
        76:9b:2b:33:d6:8d:dd:64:30:89:f4:05:9a:cb:0e:87:c0:63:
        e1:92:e9:a7:4e:5b:fc:76:22:86:a9:89:a9:13:1e:10:6b:73:
        2d:cf:cc:8a:d4:68:0a:b0:a1:a7:7d:d9:fd:57:d0:5f:63:5f:
        b9:9c:eb:57:9e:1f:e6:a4:83:ac:4b:b8:bc:9b:7a:21:e5:b9:
        0d:19:fa:84:1a:67:64:d0:e2:b5:b7:f2:7f:25:47:6c:d4:e8:
        72:5b:ce:03:29:53:69:3f:71:34:18:eb:1d:8f:13:80:0b:6d:
        c8:6d:cd:9b:0b:62:d9:37:34:5a:a4:e0:aa:a8:1e:71:c2:9c:
        21:9f:d5:7b:ba:70:c6:f5:66:39:09:55:dd:14:99:7b:a0:d8:
        9a:5b:42:81:5b:20:02:ab:24:9a:2d:7d:0d:29:65:4a:9c:40:
        67:fd:c3:65:80:f1:b3:8e:45:3e:d9:3e:95:f3:c8:ed:b2:a7:
        01:ba:9a:3c:0f:6f:d2:7d:b1:99:98:be:8a:91:04:53:16:5e:
        e4:37:fb:64:7b:a8:77:fe:05:3d:f3:97:01:26:4f:14:5c:64:
        1f:7b:cf:2e:14:e9:7a:68:97:fb:e8:61:be:34:22:ae:cd:63:
        3d:52:68:9c:3a:a7:1b:b2:19:be:d0:0a:b2:8a:d9:52:38:9c:
        26:84:ca:49
-----BEGIN CERTIFICATE-----
MIID7TCCAtWgAwIBAgIUaCfBTb0Tsum2xC+5Vxg1tkd45fIwDQYJKoZIhvcNAQEL
BQAwfjESMBAGCgmSJomT8ixkARkWAmNhMRQwEgYKCZImiZPyLGQBGRYEbGFiNTEZ
MBcGA1UECgwQTGFiNSBEZXZPcHMgSW5jLjEUMBIGA1UECwwLd3d3LmxhYjUuY2Ex
ITAfBgNVBAMMGExhYjUgRGV2T3BzIEluYy4gUm9vdCBDQTAeFw0yNDAzMTcyMTE5
MTZaFw0zNDAzMTcyMTE5MTZaMH4xEjAQBgoJkiaJk/IsZAEZFgJjYTEUMBIGCgmS
JomT8ixkARkWBGxhYjUxGTAXBgNVBAoMEExhYjUgRGV2T3BzIEluYy4xFDASBgNV
BAsMC3d3dy5sYWI1LmNhMSEwHwYDVQQDDBhMYWI1IERldk9wcyBJbmMuIFJvb3Qg
Q0EwggEiMA0GCSqGSIb3DQEBAQUAA4IBDwAwggEKAoIBAQCtm4BP2/p+7oEMTXj1
f68W5xGZuTCiHGjwhxgYB+zJJEMFAoHt0KzPc3H/sjEYEGJziLs2+wFROT5usiQ3
uu0QdG3LBLPse+WLeHlnxFJwOQhD6Ic6sypDM3CqVipJPpUWoB8UG8WvVtr8Wng7
gHyNSbDh+jVdOOrijB1BOs6cVpQ/JC5nAxsDZpzqj7Ca/sDDPEpFg5qxJf3XHAdz
2Qw+cG3rZJgKgbO5BHPNtaoNVaDYhGpg8Cph7MCk6zQqEa48/9o49TFTmIloPtLB
nG5JadXv5OncVPNlUqm/jf3SuhtqIqoDbUfXbg74nftuuDBcfklXd7ks6LaED6Ys
4qLjAgMBAAGjYzBhMA4GA1UdDwEB/wQEAwIBBjAPBgNVHRMBAf8EBTADAQH/MB0G
A1UdDgQWBBR67oj5cbxQft8VFgoI0dJDzW+wRzAfBgNVHSMEGDAWgBR67oj5cbxQ
ft8VFgoI0dJDzW+wRzANBgkqhkiG9w0BAQsFAAOCAQEAdpsrM9aN3WQwifQFmssO
h8Bj4ZLpp05b/HYihqmJqRMeEGtzLc/MitRoCrChp33Z/VfQX2NfuZzrV54f5qSD
rEu4vJt6IeW5DRn6hBpnZNDitbfyfyVHbNToclvOAylTaT9xNBjrHY8TgAttyG3N
mwti2Tc0WqTgqqgeccKcIZ/Ve7pwxvVmOQlV3RSZe6DYmltCgVsgAqskmi19DSll
SpxAZ/3DZYDxs45FPtk+lfPI7bKnAbqaPA9v0n2xmZi+ipEEUxZe5Df7ZHuod/4F
PfOXASZPFFxkH3vPLhTpemiX++hhvjQirs1jPVJonDqnG7IZvtAKsorZUjicJoTK
SQ==
-----END CERTIFICATE-----
