Certificate:
    Data:
        Version: 3 (0x2)
        Serial Number:
            6c:7f:0e:2d:1e:bd:80:a7:7c:d9:b6:fe:42:75:3e:00:38:dd:75
        Signature Algorithm: ED25519
        Issuer: DC=ca, DC=lab5, O=Lab5 DevOps Inc., OU=www.lab5.ca, CN=Lab5 DevOps Inc. Root CA
        Validity
            Not Before: Mar  2 15:06:07 2024 GMT
            Not After : Mar  2 15:06:07 2034 GMT
        Subject: DC=ca, DC=lab5, O=Lab5 DevOps Inc., OU=www.lab5.ca, CN=Lab5 DevOps Inc. Root CA
        Subject Public Key Info:
            Public Key Algorithm: ED25519
                ED25519 Public-Key:
                pub:
                    e2:62:91:48:4f:f9:08:fa:83:a9:06:ca:bd:f6:86:
                    18:15:a2:ec:d3:b2:ac:4d:f1:b8:da:f8:ac:12:92:
                    ef:83
        X509v3 extensions:
            X509v3 Key Usage: critical
                Certificate Sign, CRL Sign
            X509v3 Basic Constraints: critical
                CA:TRUE
            X509v3 Subject Key Identifier: 
                59:16:9A:CF:E3:6B:4B:9D:EE:91:F8:24:24:9A:93:4B:DA:A6:C5:D2
            X509v3 Authority Key Identifier: 
                59:16:9A:CF:E3:6B:4B:9D:EE:91:F8:24:24:9A:93:4B:DA:A6:C5:D2
    Signature Algorithm: ED25519
    Signature Value:
        fc:4f:9a:ff:89:4e:ac:01:0a:5c:21:46:1a:5a:1a:fb:5e:bb:
        76:36:f5:2f:fb:b3:5e:9b:17:10:93:bd:19:1b:3c:26:16:6b:
        5a:b5:e1:8e:f1:d4:75:53:ab:4d:d5:6d:4e:02:2d:49:66:d9:
        ea:7a:60:bf:f6:93:de:af:da:03
-----BEGIN CERTIFICATE-----
MIICIDCCAdKgAwIBAgITbH8OLR69gKd82bb+QnU+ADjddTAFBgMrZXAwfjESMBAG
CgmSJomT8ixkARkWAmNhMRQwEgYKCZImiZPyLGQBGRYEbGFiNTEZMBcGA1UECgwQ
TGFiNSBEZXZPcHMgSW5jLjEUMBIGA1UECwwLd3d3LmxhYjUuY2ExITAfBgNVBAMM
GExhYjUgRGV2T3BzIEluYy4gUm9vdCBDQTAeFw0yNDAzMDIxNTA2MDdaFw0zNDAz
MDIxNTA2MDdaMH4xEjAQBgoJkiaJk/IsZAEZFgJjYTEUMBIGCgmSJomT8ixkARkW
BGxhYjUxGTAXBgNVBAoMEExhYjUgRGV2T3BzIEluYy4xFDASBgNVBAsMC3d3dy5s
YWI1LmNhMSEwHwYDVQQDDBhMYWI1IERldk9wcyBJbmMuIFJvb3QgQ0EwKjAFBgMr
ZXADIQDiYpFIT/kI+oOpBsq99oYYFaLs07KsTfG42visEpLvg6NjMGEwDgYDVR0P
AQH/BAQDAgEGMA8GA1UdEwEB/wQFMAMBAf8wHQYDVR0OBBYEFFkWms/ja0ud7pH4
JCSak0vapsXSMB8GA1UdIwQYMBaAFFkWms/ja0ud7pH4JCSak0vapsXSMAUGAytl
cANBAPxPmv+JTqwBClwhRhpaGvteu3Y29S/7s16bFxCTvRkbPCYWa1q14Y7x1HVT
q03VbU4CLUlm2ep6YL/2k96v2gM=
-----END CERTIFICATE-----
