Certificate:
    Data:
        Version: 3 (0x2)
        Serial Number:
            7d:e9:42:d4:83:10:50:55:04:98:59:81:a0:54:78:d1:0e:4e:74:eb
        Signature Algorithm: sha256WithRSAEncryption
        Issuer: DC=ca, DC=lab5, O=Lab5 DevOps Inc., OU=www.lab5.ca, CN=Lab5 DevOps Inc. Root CA
        Validity
            Not Before: May 20 10:56:18 2024 GMT
            Not After : May 20 10:56:18 2034 GMT
        Subject: DC=ca, DC=lab5, O=Lab5 DevOps Inc., OU=www.lab5.ca, CN=Lab5 DevOps Inc. Issuing CA
        Subject Public Key Info:
            Public Key Algorithm: rsaEncryption
                Public-Key: (4096 bit)
                Modulus:
                    00:b6:44:72:10:56:b5:6b:c2:0d:00:87:3b:cc:8d:
                    73:22:20:0b:1b:b0:74:d3:d9:31:58:fb:c9:45:45:
                    0b:b9:d1:88:1b:70:4b:bb:bd:d7:4e:13:15:4e:63:
                    be:33:fb:3a:49:66:a6:f9:bc:f9:2b:06:82:a9:4f:
                    c6:c2:ce:32:30:09:06:1f:2d:4e:91:2d:25:1b:d2:
                    89:e1:88:4b:1b:8c:87:3d:77:c2:d3:00:6d:b4:d9:
                    8a:90:06:f8:fe:84:2a:4d:07:fd:1e:02:d1:4d:b8:
                    61:7f:cd:c8:65:22:3f:cf:65:95:3f:9a:7c:f8:6c:
                    b0:c3:a5:bf:c0:b4:fc:8b:16:57:a1:3c:20:dc:9e:
                    db:ac:73:50:91:14:35:e3:c1:f7:eb:a5:35:2a:8c:
                    50:34:68:89:c0:f6:98:5c:2e:0c:b2:eb:b6:41:79:
                    1b:6b:be:3c:a7:47:d0:54:de:68:0e:7c:1c:f5:64:
                    d2:63:5b:a8:82:8c:fa:53:92:57:cb:4c:3c:30:99:
                    e1:53:7f:f5:b9:2a:76:23:5c:33:99:04:b9:35:c6:
                    87:c8:ff:13:c2:7c:3f:cb:12:4c:62:65:00:ca:1f:
                    8f:d9:6d:f1:a2:ab:f3:60:84:99:62:61:ef:f6:dc:
                    2e:94:f4:b2:89:fe:92:30:f6:a3:78:b8:d8:d7:27:
                    f6:c8:81:e2:75:cc:9e:69:b9:bf:63:05:06:c9:eb:
                    04:dd:fd:50:59:24:95:1b:49:81:04:67:af:04:e6:
                    e6:7d:35:a7:8f:84:5e:71:be:7c:ac:88:c2:67:43:
                    d0:70:fc:ff:14:27:c6:3c:37:fb:62:be:2f:63:c1:
                    fb:6d:97:e6:59:c1:07:de:a8:c0:3f:15:db:66:3b:
                    17:f0:a1:6f:66:ef:de:3e:73:fc:2d:b0:50:95:5c:
                    24:24:b3:40:c0:b7:24:03:58:3e:c9:42:37:49:9f:
                    55:9d:46:40:e7:9d:ad:8e:df:06:44:55:36:c0:90:
                    25:ca:6d:a2:ac:1d:66:79:c4:95:47:d3:36:80:47:
                    68:12:eb:6c:ee:55:52:a0:80:08:b7:0f:71:33:c2:
                    5d:55:8d:3f:52:e0:7e:33:1c:4a:fc:7d:3f:df:dd:
                    a6:de:4b:2d:9c:95:cd:50:52:1f:9c:47:a3:ad:f6:
                    d6:99:4e:a3:d8:bf:9c:51:f9:ff:22:e7:b3:57:65:
                    43:83:b2:8b:a9:8d:2e:d3:39:83:4b:b8:9a:76:25:
                    7b:8a:9f:7b:dd:60:4b:2a:67:12:98:20:01:a6:cb:
                    7a:88:ae:3d:7c:83:60:55:72:87:ec:76:a6:8b:7e:
                    a2:7f:bd:99:13:61:48:48:e9:f3:98:9b:25:79:43:
                    4d:1a:cb
                Exponent: 65537 (0x10001)
        X509v3 extensions:
            X509v3 Key Usage: critical
                Certificate Sign, CRL Sign
            X509v3 Basic Constraints: critical
                CA:TRUE, pathlen:0
            X509v3 Subject Key Identifier: 
                99:BF:D9:34:61:DC:FF:C0:54:67:6B:62:3A:AF:BF:46:AC:C2:1F:D4
            X509v3 Authority Key Identifier: 
                A1:AE:A5:B5:DC:47:46:E9:A0:B6:8A:A8:18:ED:60:45:AF:87:6A:FA
    Signature Algorithm: sha256WithRSAEncryption
    Signature Value:
        27:df:4e:a2:3f:a4:4b:5b:01:3a:42:8e:96:35:cf:56:33:65:
        e9:59:ed:1b:6e:3a:09:eb:c6:ae:6b:23:32:12:e2:61:6d:25:
        4e:df:90:86:8b:ee:6b:01:f7:13:27:7a:95:be:4c:c5:59:ed:
        60:ce:3d:c5:ec:c1:99:2a:f7:39:fa:83:e9:78:9a:d2:78:fc:
        9e:67:ca:0b:3f:28:0c:b1:5a:11:d2:0b:43:81:30:4c:57:07:
        97:0a:87:23:a9:9b:67:e2:c0:d4:36:f9:bb:a9:99:00:c2:f7:
        4d:38:90:47:bd:d1:d3:b2:6c:e2:0c:5d:6e:e7:ca:a1:7b:2e:
        03:a8:26:63:bd:a8:35:90:5b:70:9b:5f:f5:c7:27:0f:a4:e0:
        94:9d:5b:63:b4:fd:49:07:2e:bc:c5:e3:ea:5b:d1:b6:90:8e:
        f5:59:0e:e8:45:1e:15:e5:35:e8:44:53:d9:4e:a7:83:ad:e7:
        79:74:49:1b:88:74:86:b4:63:97:ca:44:0f:77:2f:d0:ac:fa:
        7e:d4:31:2f:50:c0:23:9e:4c:44:8f:98:15:b6:4f:64:1a:a2:
        e0:73:12:f7:17:f2:3f:92:a1:6a:b6:d5:c0:03:70:f7:0a:29:
        10:35:f0:23:00:3c:a3:49:dc:52:84:88:31:0e:56:dc:28:38:
        8c:42:e6:32:92:a0:af:9f:e7:22:b2:08:8c:6d:25:f4:e3:83:
        2f:60:c1:1f:52:82:69:6e:73:c7:99:ce:99:e1:43:9a:c7:74:
        8a:dd:75:4e:67:c2:ed:85:30:c5:20:61:4d:68:6a:1e:42:bd:
        3b:1c:d7:b3:33:e1:f6:1a:5f:0b:8a:f5:9f:4e:20:13:97:fe:
        01:fd:98:f3:e3:b8:42:b8:97:3c:98:df:e6:79:44:6a:75:b7:
        13:5a:26:7a:3c:c4:dd:07:4a:aa:1f:1d:84:a2:ba:85:a5:5d:
        9f:7c:ad:ae:6b:4b:b5:30:4c:d4:2d:87:c0:63:b2:78:26:74:
        65:6f:11:bc:22:e4:d9:7c:58:85:f1:29:fc:e9:57:89:cb:59:
        78:0f:f8:6e:93:6f:99:32:f6:91:b7:c2:8c:a0:c5:4c:b9:e4:
        94:eb:44:27:f6:83:c0:c8:2e:f0:88:ac:ca:69:2f:b3:5b:d0:
        da:48:64:28:fa:08:d0:6c:63:e0:a4:36:00:bf:5a:e5:cc:f4:
        c3:dd:53:91:3b:11:32:4b:b6:b8:cf:5b:d3:28:6e:89:e2:60:
        15:c2:3e:a7:ca:2d:ec:cd:a8:94:d9:56:bd:8f:8b:d9:6c:f5:
        88:7c:a4:ae:37:01:8d:b5:c2:48:fb:5d:18:0a:52:7b:d7:a0:
        35:1d:a0:46:1b:e3:b8:0c
-----BEGIN CERTIFICATE-----
MIIF9DCCA9ygAwIBAgIUfelC1IMQUFUEmFmBoFR40Q5OdOswDQYJKoZIhvcNAQEL
BQAwfjESMBAGCgmSJomT8ixkARkWAmNhMRQwEgYKCZImiZPyLGQBGRYEbGFiNTEZ
MBcGA1UECgwQTGFiNSBEZXZPcHMgSW5jLjEUMBIGA1UECwwLd3d3LmxhYjUuY2Ex
ITAfBgNVBAMMGExhYjUgRGV2T3BzIEluYy4gUm9vdCBDQTAeFw0yNDA1MjAxMDU2
MThaFw0zNDA1MjAxMDU2MThaMIGBMRIwEAYKCZImiZPyLGQBGRYCY2ExFDASBgoJ
kiaJk/IsZAEZFgRsYWI1MRkwFwYDVQQKDBBMYWI1IERldk9wcyBJbmMuMRQwEgYD
VQQLDAt3d3cubGFiNS5jYTEkMCIGA1UEAwwbTGFiNSBEZXZPcHMgSW5jLiBJc3N1
aW5nIENBMIICIjANBgkqhkiG9w0BAQEFAAOCAg8AMIICCgKCAgEAtkRyEFa1a8IN
AIc7zI1zIiALG7B009kxWPvJRUULudGIG3BLu73XThMVTmO+M/s6SWam+bz5KwaC
qU/Gws4yMAkGHy1OkS0lG9KJ4YhLG4yHPXfC0wBttNmKkAb4/oQqTQf9HgLRTbhh
f83IZSI/z2WVP5p8+Gyww6W/wLT8ixZXoTwg3J7brHNQkRQ148H366U1KoxQNGiJ
wPaYXC4Msuu2QXkba748p0fQVN5oDnwc9WTSY1uogoz6U5JXy0w8MJnhU3/1uSp2
I1wzmQS5NcaHyP8Twnw/yxJMYmUAyh+P2W3xoqvzYISZYmHv9twulPSyif6SMPaj
eLjY1yf2yIHidcyeabm/YwUGyesE3f1QWSSVG0mBBGevBObmfTWnj4Recb58rIjC
Z0PQcPz/FCfGPDf7Yr4vY8H7bZfmWcEH3qjAPxXbZjsX8KFvZu/ePnP8LbBQlVwk
JLNAwLckA1g+yUI3SZ9VnUZA552tjt8GRFU2wJAlym2irB1mecSVR9M2gEdoEuts
7lVSoIAItw9xM8JdVY0/UuB+MxxK/H0/392m3kstnJXNUFIfnEejrfbWmU6j2L+c
Ufn/IuezV2VDg7KLqY0u0zmDS7iadiV7ip973WBLKmcSmCABpst6iK49fINgVXKH
7Hami36if72ZE2FISOnzmJsleUNNGssCAwEAAaNmMGQwDgYDVR0PAQH/BAQDAgEG
MBIGA1UdEwEB/wQIMAYBAf8CAQAwHQYDVR0OBBYEFJm/2TRh3P/AVGdrYjqvv0as
wh/UMB8GA1UdIwQYMBaAFKGupbXcR0bpoLaKqBjtYEWvh2r6MA0GCSqGSIb3DQEB
CwUAA4ICAQAn306iP6RLWwE6Qo6WNc9WM2XpWe0bbjoJ68auayMyEuJhbSVO35CG
i+5rAfcTJ3qVvkzFWe1gzj3F7MGZKvc5+oPpeJrSePyeZ8oLPygMsVoR0gtDgTBM
VweXCocjqZtn4sDUNvm7qZkAwvdNOJBHvdHTsmziDF1u58qhey4DqCZjvag1kFtw
m1/1xycPpOCUnVtjtP1JBy68xePqW9G2kI71WQ7oRR4V5TXoRFPZTqeDred5dEkb
iHSGtGOXykQPdy/QrPp+1DEvUMAjnkxEj5gVtk9kGqLgcxL3F/I/kqFqttXAA3D3
CikQNfAjADyjSdxShIgxDlbcKDiMQuYykqCvn+cisgiMbSX044MvYMEfUoJpbnPH
mc6Z4UOax3SK3XVOZ8LthTDFIGFNaGoeQr07HNezM+H2Gl8LivWfTiATl/4B/Zjz
47hCuJc8mN/meURqdbcTWiZ6PMTdB0qqHx2EorqFpV2ffK2ua0u1MEzULYfAY7J4
JnRlbxG8IuTZfFiF8Sn86VeJy1l4D/huk2+ZMvaRt8KMoMVMueSU60Qn9oPAyC7w
iKzKaS+zW9DaSGQo+gjQbGPgpDYAv1rlzPTD3VOROxEyS7a4z1vTKG6J4mAVwj6n
yi3szaiU2Va9j4vZbPWIfKSuNwGNtcJI+10YClJ716A1HaBGG+O4DA==
-----END CERTIFICATE-----
