Certificate:
    Data:
        Version: 3 (0x2)
        Serial Number:
            7f:92:a7:db:03:ff:b9:e5:93:05:df:fa:b9:3f:e6:d3:1b:78:24:92
        Signature Algorithm: sha256WithRSAEncryption
        Issuer: DC=ca, DC=lab5, O=Lab5 DevOps Inc., OU=www.lab5.ca, CN=Lab5 DevOps Inc. Root CA
        Validity
            Not Before: Mar 28 23:53:54 2024 GMT
            Not After : Mar 28 23:53:54 2034 GMT
        Subject: DC=ca, DC=lab5, O=Lab5 DevOps Inc., OU=www.lab5.ca, CN=Lab5 DevOps Inc. Issuing CA
        Subject Public Key Info:
            Public Key Algorithm: rsaEncryption
                Public-Key: (4096 bit)
                Modulus:
                    00:9f:cd:f0:ef:1d:de:03:00:64:d2:d3:01:d6:d8:
                    fc:18:72:67:25:12:d9:74:fa:ad:d6:09:be:c1:cd:
                    e1:09:7f:40:a8:54:cb:24:c8:fd:52:5a:a5:f4:bd:
                    97:c7:46:c6:d9:66:7d:8f:b7:28:a3:7c:bc:60:5f:
                    e9:c6:b0:31:a3:13:54:24:8f:6a:b4:04:74:fb:fe:
                    50:f3:bc:4e:a3:e2:3d:a3:75:e5:d9:8a:ca:14:f4:
                    ec:8e:d2:9c:f4:7a:a2:c7:1b:ba:c5:24:0f:87:7e:
                    13:84:92:0d:30:d5:66:9b:d9:14:83:af:2a:bc:69:
                    67:1c:67:19:65:b5:1e:e4:67:3d:cd:a2:fd:ee:42:
                    f0:af:df:25:f4:99:6d:33:32:02:28:36:c9:87:63:
                    71:df:24:b0:5e:e7:75:02:48:fd:df:7f:7e:11:2e:
                    3d:e7:f3:33:34:72:6b:30:2b:b8:f0:50:51:9a:c5:
                    24:c3:74:d9:6c:81:36:21:f5:99:71:ae:f0:2f:ec:
                    2b:a0:24:f0:2f:45:79:e3:1d:28:0d:23:59:44:57:
                    fb:ea:c8:ef:55:2d:30:28:d5:ed:f7:d9:d1:cb:0e:
                    b4:28:7c:41:f9:69:bd:e9:fa:c1:d4:f4:2d:4f:34:
                    15:a4:a6:34:63:36:a6:78:11:d9:f8:a0:3d:68:fb:
                    2d:cd:8e:8b:85:a4:ec:f3:c2:76:fc:56:9f:ac:3d:
                    54:68:fa:a7:60:3e:a6:b3:e4:f2:9b:c1:71:33:76:
                    f7:84:0f:26:98:13:d7:73:59:f8:95:f3:0a:7f:ab:
                    f5:f2:e2:70:53:56:40:28:8d:c5:ee:6d:28:9b:44:
                    00:66:8b:89:5c:22:e4:a9:50:79:ae:d1:3a:d1:c8:
                    e2:37:90:1f:ef:4f:d6:22:71:72:5f:5d:fc:4c:e6:
                    3e:b6:8c:17:74:e5:68:84:60:68:50:8c:ef:73:d6:
                    46:d5:a4:c5:60:ec:a7:f1:41:59:26:85:fe:c4:79:
                    45:a8:ae:6e:19:78:06:c0:b6:bd:a9:ac:b4:17:8c:
                    d3:37:6d:1d:90:be:b2:80:2f:22:2a:bb:35:2a:66:
                    00:f3:c4:53:1b:7a:d0:d9:d9:45:df:a0:0b:b6:6d:
                    61:58:33:4b:f1:a7:e5:08:97:ba:cc:14:1f:da:96:
                    1f:42:8c:3d:fe:0a:c5:b5:bc:56:62:dc:63:21:40:
                    4a:30:c7:4d:9a:11:ee:08:10:64:2d:7a:d2:59:0d:
                    df:30:75:05:f0:bf:4d:9a:1b:ae:da:a0:ad:c5:d3:
                    65:4d:9f:cc:b6:f4:23:11:90:c8:1c:ff:8e:bc:bf:
                    02:cc:93:7e:32:7c:3a:8c:ec:6b:a5:e8:b7:a5:2d:
                    00:58:75
                Exponent: 65537 (0x10001)
        X509v3 extensions:
            X509v3 Key Usage: critical
                Certificate Sign, CRL Sign
            X509v3 Basic Constraints: critical
                CA:TRUE, pathlen:0
            X509v3 Subject Key Identifier: 
                AC:8B:AF:76:53:5B:C0:75:2C:D9:1C:EE:9B:69:DF:C4:06:4F:01:77
            X509v3 Authority Key Identifier: 
                15:EC:96:BF:9B:19:5B:FB:1F:1C:26:C2:CA:1F:81:F7:3B:9D:A5:DD
    Signature Algorithm: sha256WithRSAEncryption
    Signature Value:
        ad:36:28:5c:ac:26:d9:7d:d0:2e:51:d6:3d:5e:96:5e:7b:07:
        6c:bc:00:65:a7:9f:fd:5b:7a:60:c6:3f:3e:d3:21:a4:f6:0c:
        b9:96:d3:cf:d9:81:96:2b:f0:30:d6:b5:33:68:a0:95:d9:05:
        76:02:6f:75:98:a8:7b:5d:ca:d4:7f:c2:c5:f7:5c:70:b8:74:
        4f:7c:fb:97:b3:25:e8:b7:27:5b:37:63:41:aa:c3:22:94:d0:
        a1:74:54:89:52:91:40:ee:ec:a9:32:a7:d4:bd:2a:ae:66:77:
        b5:f4:f1:bf:5b:2c:f8:b0:74:f6:ba:3c:c9:14:d7:15:6a:2b:
        a6:75:c8:b4:0c:fe:4e:57:17:01:a7:01:ae:97:99:82:a5:34:
        6a:28:ac:36:a6:20:73:18:f4:1c:79:5c:ce:fb:1f:7a:c6:08:
        ed:b4:d3:f3:b9:af:41:c3:e4:35:22:df:76:b7:76:6d:74:65:
        f9:45:d5:b2:6f:6e:18:7a:0f:d6:cb:78:0e:5e:b3:b7:0a:7e:
        d5:00:f8:f5:27:c5:fc:03:30:33:80:ec:45:53:32:48:3e:dd:
        71:ef:28:49:ec:f2:e0:80:01:43:b2:a8:c6:a7:32:fb:fb:e8:
        e4:4a:e4:07:a1:af:5e:1a:c3:09:b5:83:d5:1b:b3:fb:51:4f:
        32:06:a9:2e:25:3b:5e:b6:74:72:19:bb:5a:0c:3f:73:23:af:
        5b:f0:c4:1e:1b:03:4d:85:47:ea:5d:e0:4f:3d:22:52:ae:e6:
        4d:79:7c:a0:b8:c9:1a:88:48:71:4d:df:a1:d5:7e:39:ae:9d:
        fe:87:cd:d8:0a:b2:01:7f:26:7d:89:52:9c:1c:96:29:3d:eb:
        3c:35:df:4a:6f:80:46:52:36:18:3e:f3:02:4c:7b:6a:85:c8:
        c1:ea:3e:84:70:20:82:18:87:e8:28:8d:35:bf:20:26:9d:7a:
        54:47:97:71:63:4d:cf:95:27:7d:06:cc:d3:f8:09:8f:a4:47:
        17:a4:05:c0:dd:ea:fc:9b:31:c9:a3:26:1a:75:d5:19:04:ee:
        63:96:66:9d:ad:bf:54:25:b3:65:90:7a:3e:c5:6d:0c:40:dd:
        e4:5e:34:58:56:9a:bf:c5:d0:62:ae:d9:b1:0c:9e:08:61:54:
        3d:26:30:40:ab:cb:ee:93:6b:49:a0:d6:a6:13:7a:51:65:c5:
        ad:c2:dd:53:77:b8:92:7e:fb:7f:a7:b6:ed:67:ba:a2:3e:b3:
        85:9c:05:38:95:55:6b:52:ab:49:9a:05:05:61:61:dd:46:da:
        08:ae:41:f7:e6:7a:37:fc:d5:5c:ea:74:b3:3b:bd:01:9c:4e:
        a7:cc:7e:4c:a5:94:99:81
-----BEGIN CERTIFICATE-----
MIIF9DCCA9ygAwIBAgIUf5Kn2wP/ueWTBd/6uT/m0xt4JJIwDQYJKoZIhvcNAQEL
BQAwfjESMBAGCgmSJomT8ixkARkWAmNhMRQwEgYKCZImiZPyLGQBGRYEbGFiNTEZ
MBcGA1UECgwQTGFiNSBEZXZPcHMgSW5jLjEUMBIGA1UECwwLd3d3LmxhYjUuY2Ex
ITAfBgNVBAMMGExhYjUgRGV2T3BzIEluYy4gUm9vdCBDQTAeFw0yNDAzMjgyMzUz
NTRaFw0zNDAzMjgyMzUzNTRaMIGBMRIwEAYKCZImiZPyLGQBGRYCY2ExFDASBgoJ
kiaJk/IsZAEZFgRsYWI1MRkwFwYDVQQKDBBMYWI1IERldk9wcyBJbmMuMRQwEgYD
VQQLDAt3d3cubGFiNS5jYTEkMCIGA1UEAwwbTGFiNSBEZXZPcHMgSW5jLiBJc3N1
aW5nIENBMIICIjANBgkqhkiG9w0BAQEFAAOCAg8AMIICCgKCAgEAn83w7x3eAwBk
0tMB1tj8GHJnJRLZdPqt1gm+wc3hCX9AqFTLJMj9Ulql9L2Xx0bG2WZ9j7coo3y8
YF/pxrAxoxNUJI9qtAR0+/5Q87xOo+I9o3Xl2YrKFPTsjtKc9Hqixxu6xSQPh34T
hJINMNVmm9kUg68qvGlnHGcZZbUe5Gc9zaL97kLwr98l9JltMzICKDbJh2Nx3ySw
Xud1Akj9339+ES495/MzNHJrMCu48FBRmsUkw3TZbIE2IfWZca7wL+wroCTwL0V5
4x0oDSNZRFf76sjvVS0wKNXt99nRyw60KHxB+Wm96frB1PQtTzQVpKY0YzameBHZ
+KA9aPstzY6LhaTs88J2/FafrD1UaPqnYD6ms+Tym8FxM3b3hA8mmBPXc1n4lfMK
f6v18uJwU1ZAKI3F7m0om0QAZouJXCLkqVB5rtE60cjiN5Af70/WInFyX138TOY+
towXdOVohGBoUIzvc9ZG1aTFYOyn8UFZJoX+xHlFqK5uGXgGwLa9qay0F4zTN20d
kL6ygC8iKrs1KmYA88RTG3rQ2dlF36ALtm1hWDNL8aflCJe6zBQf2pYfQow9/grF
tbxWYtxjIUBKMMdNmhHuCBBkLXrSWQ3fMHUF8L9Nmhuu2qCtxdNlTZ/MtvQjEZDI
HP+OvL8CzJN+Mnw6jOxrpei3pS0AWHUCAwEAAaNmMGQwDgYDVR0PAQH/BAQDAgEG
MBIGA1UdEwEB/wQIMAYBAf8CAQAwHQYDVR0OBBYEFKyLr3ZTW8B1LNkc7ptp38QG
TwF3MB8GA1UdIwQYMBaAFBXslr+bGVv7Hxwmwsofgfc7naXdMA0GCSqGSIb3DQEB
CwUAA4ICAQCtNihcrCbZfdAuUdY9XpZeewdsvABlp5/9W3pgxj8+0yGk9gy5ltPP
2YGWK/Aw1rUzaKCV2QV2Am91mKh7XcrUf8LF91xwuHRPfPuXsyXotydbN2NBqsMi
lNChdFSJUpFA7uypMqfUvSquZne19PG/Wyz4sHT2ujzJFNcVaiumdci0DP5OVxcB
pwGul5mCpTRqKKw2piBzGPQceVzO+x96xgjttNPzua9Bw+Q1It92t3ZtdGX5RdWy
b24Yeg/Wy3gOXrO3Cn7VAPj1J8X8AzAzgOxFUzJIPt1x7yhJ7PLggAFDsqjGpzL7
++jkSuQHoa9eGsMJtYPVG7P7UU8yBqkuJTtetnRyGbtaDD9zI69b8MQeGwNNhUfq
XeBPPSJSruZNeXyguMkaiEhxTd+h1X45rp3+h83YCrIBfyZ9iVKcHJYpPes8Nd9K
b4BGUjYYPvMCTHtqhcjB6j6EcCCCGIfoKI01vyAmnXpUR5dxY03PlSd9BszT+AmP
pEcXpAXA3er8mzHJoyYaddUZBO5jlmadrb9UJbNlkHo+xW0MQN3kXjRYVpq/xdBi
rtmxDJ4IYVQ9JjBAq8vuk2tJoNamE3pRZcWtwt1Td7iSfvt/p7btZ7qiPrOFnAU4
lVVrUqtJmgUFYWHdRtoIrkH35no3/NVc6nSzO70BnE6nzH5MpZSZgQ==
-----END CERTIFICATE-----
