Certificate:
    Data:
        Version: 3 (0x2)
        Serial Number: 1 (0x1)
        Signature Algorithm: sha256WithRSAEncryption
        Issuer: DC=ca, DC=lab5, O=Lab5 DevOps Inc., OU=DevOps, CN=RootCA G0 SelfSigned
        Validity
            Not Before: Apr 29 13:53:28 2022 GMT
            Not After : Apr 28 13:53:28 2032 GMT
        Subject: DC=ca, DC=lab5, O=Lab5 DevOps Inc., OU=DevOps, CN=RootCA G0 SelfSigned
        Subject Public Key Info:
            Public Key Algorithm: rsaEncryption
                RSA Public-Key: (2048 bit)
                Modulus:
                    00:d1:9b:b8:ec:9d:0f:d4:38:67:e5:ff:7a:a6:dd:
                    3f:9d:17:7c:db:e8:7e:06:27:d4:0d:ce:86:6b:1f:
                    20:87:ce:f0:4f:c4:7b:68:d6:cc:05:02:89:25:2b:
                    fb:b2:16:32:b9:72:5f:60:55:18:1c:d7:41:6c:69:
                    fd:07:5f:8e:32:8e:5f:d5:10:2f:b7:bf:d6:d3:30:
                    62:89:10:7f:37:8b:f7:7b:72:53:c6:21:74:eb:8a:
                    9b:18:27:1d:54:2d:be:98:74:77:5f:56:d6:1f:a8:
                    99:b4:66:2b:e4:55:8d:2e:9b:ef:e6:45:28:4c:df:
                    dd:1c:2b:7b:d0:d7:7f:d3:c2:87:73:87:7f:82:05:
                    62:c1:56:69:d7:af:c2:a2:8d:bd:a0:32:f5:d5:80:
                    5d:29:54:82:38:85:fd:d8:4a:eb:b9:31:0c:d4:b5:
                    3b:2e:1c:60:4c:7f:2f:eb:07:e8:bb:bd:92:69:be:
                    57:39:15:f3:e4:ce:5a:af:77:05:27:80:48:ba:9b:
                    56:53:f4:0f:62:bc:e0:77:59:20:d9:40:d7:c2:f9:
                    e8:79:19:79:df:01:0c:2e:e8:71:d9:90:03:bb:df:
                    8a:8e:f0:d0:8c:53:58:83:f0:22:1c:57:ea:a3:84:
                    53:54:dd:2d:26:f5:37:ab:67:fc:30:21:7b:27:53:
                    0d:e3
                Exponent: 65537 (0x10001)
        X509v3 extensions:
            X509v3 Key Usage: critical
                Certificate Sign, CRL Sign
            X509v3 Basic Constraints: critical
                CA:TRUE
            X509v3 Subject Key Identifier: 
                06:5E:4C:46:FF:39:F6:93:1D:6F:62:B7:91:BF:C7:F5:2A:B4:5F:4A
            X509v3 Authority Key Identifier: 
                keyid:06:5E:4C:46:FF:39:F6:93:1D:6F:62:B7:91:BF:C7:F5:2A:B4:5F:4A

    Signature Algorithm: sha256WithRSAEncryption
         36:8e:60:4f:fe:72:97:d7:2c:af:6c:3a:26:4e:7f:be:42:1d:
         4e:b3:ae:c1:21:c0:49:4d:b8:db:02:d4:2e:40:11:fb:2c:65:
         58:7c:fc:b2:b3:c6:4d:5f:5b:2a:22:f0:2e:f8:54:e6:fc:36:
         bb:3e:38:ea:3a:3c:e3:f2:8e:6e:e3:d0:7a:fa:17:7c:b3:4c:
         ff:b4:63:08:62:93:9a:38:a0:59:58:1d:c1:16:55:f3:bd:27:
         5e:28:70:4b:8c:32:cc:2b:1b:f9:e0:2b:b3:31:e5:6c:ca:a1:
         79:e5:ed:e7:9d:1a:6d:24:60:13:ea:0d:d1:99:e5:4d:61:0f:
         2d:5b:a6:75:0d:de:91:d3:42:1d:47:36:ed:ab:a3:a1:db:60:
         2a:fa:52:8c:6f:e9:a4:0b:af:e9:99:9e:2c:ac:bc:3e:4a:77:
         73:07:52:fd:36:dc:47:85:34:76:21:0f:16:c3:73:de:12:61:
         62:7d:d7:90:13:c5:65:05:50:65:14:a9:94:da:6f:25:6b:b2:
         1f:06:a1:b4:1d:f1:d7:49:61:92:e6:1b:41:58:43:2b:72:2b:
         30:7e:40:55:4a:76:c6:48:46:ff:2b:64:19:6a:35:07:b8:eb:
         b9:a4:9e:bb:a7:3e:8a:9e:57:2f:02:2c:21:6c:2a:6a:16:1c:
         14:c8:ed:59
-----BEGIN CERTIFICATE-----
MIIDyDCCArCgAwIBAgIBATANBgkqhkiG9w0BAQsFADB1MRIwEAYKCZImiZPyLGQB
GRYCY2ExFDASBgoJkiaJk/IsZAEZFgRsYWI1MRkwFwYDVQQKDBBMYWI1IERldk9w
cyBJbmMuMQ8wDQYDVQQLDAZEZXZPcHMxHTAbBgNVBAMMFFJvb3RDQSBHMCBTZWxm
U2lnbmVkMB4XDTIyMDQyOTEzNTMyOFoXDTMyMDQyODEzNTMyOFowdTESMBAGCgmS
JomT8ixkARkWAmNhMRQwEgYKCZImiZPyLGQBGRYEbGFiNTEZMBcGA1UECgwQTGFi
NSBEZXZPcHMgSW5jLjEPMA0GA1UECwwGRGV2T3BzMR0wGwYDVQQDDBRSb290Q0Eg
RzAgU2VsZlNpZ25lZDCCASIwDQYJKoZIhvcNAQEBBQADggEPADCCAQoCggEBANGb
uOydD9Q4Z+X/eqbdP50XfNvofgYn1A3OhmsfIIfO8E/Ee2jWzAUCiSUr+7IWMrly
X2BVGBzXQWxp/QdfjjKOX9UQL7e/1tMwYokQfzeL93tyU8YhdOuKmxgnHVQtvph0
d19W1h+ombRmK+RVjS6b7+ZFKEzf3Rwre9DXf9PCh3OHf4IFYsFWadevwqKNvaAy
9dWAXSlUgjiF/dhK67kxDNS1Oy4cYEx/L+sH6Lu9kmm+VzkV8+TOWq93BSeASLqb
VlP0D2K84HdZINlA18L56HkZed8BDC7ocdmQA7vfio7w0IxTWIPwIhxX6qOEU1Td
LSb1N6tn/DAheydTDeMCAwEAAaNjMGEwDgYDVR0PAQH/BAQDAgEGMA8GA1UdEwEB
/wQFMAMBAf8wHQYDVR0OBBYEFAZeTEb/OfaTHW9it5G/x/UqtF9KMB8GA1UdIwQY
MBaAFAZeTEb/OfaTHW9it5G/x/UqtF9KMA0GCSqGSIb3DQEBCwUAA4IBAQA2jmBP
/nKX1yyvbDomTn++Qh1Os67BIcBJTbjbAtQuQBH7LGVYfPyys8ZNX1sqIvAu+FTm
/Da7PjjqOjzj8o5u49B6+hd8s0z/tGMIYpOaOKBZWB3BFlXzvSdeKHBLjDLMKxv5
4CuzMeVsyqF55e3nnRptJGAT6g3RmeVNYQ8tW6Z1Dd6R00IdRzbtq6Oh22Aq+lKM
b+mkC6/pmZ4srLw+SndzB1L9NtxHhTR2IQ8Ww3PeEmFifdeQE8VlBVBlFKmU2m8l
a7IfBqG0HfHXSWGS5htBWEMrciswfkBVSnbGSEb/K2QZajUHuOu5pJ67pz6Knlcv
AiwhbCpqFhwUyO1Z
-----END CERTIFICATE-----
