Certificate:
    Data:
        Version: 3 (0x2)
        Serial Number: 1 (0x1)
        Signature Algorithm: rsassaPss         
         Hash Algorithm: sha256
         Mask Algorithm: mgf1 with sha256
          Salt Length: 0xDE
         Trailer Field: 0xBC (default)
        Issuer: DC=ca, DC=lab5, O=Lab5 DevOps Inc., OU=DevOps, CN=RootCA G0 SelfSigned
        Validity
            Not Before: Apr 29 16:25:57 2022 GMT
            Not After : Apr 28 16:25:57 2032 GMT
        Subject: DC=ca, DC=lab5, O=Lab5 DevOps Inc., OU=DevOps, CN=RootCA G0 SelfSigned
        Subject Public Key Info:
            Public Key Algorithm: rsassaPss
                RSA-PSS Public-Key: (2048 bit)
                Modulus:
                    00:a8:ec:8b:f1:79:0e:bc:3a:d8:99:b5:54:cd:7d:
                    a1:6f:0c:50:d6:f0:14:09:dc:f2:8e:e5:61:22:22:
                    9f:71:7f:88:33:20:34:3a:92:7f:05:35:09:ac:c1:
                    90:97:b5:75:dd:e7:4d:ad:4e:48:2f:9e:f4:6c:c5:
                    6e:d0:15:a1:29:de:06:a8:2e:93:c8:aa:59:c5:57:
                    f8:c9:49:eb:d5:7e:e8:d5:9e:b8:93:fc:d9:12:c9:
                    92:00:04:24:ff:04:20:5f:c9:0d:0f:59:36:fe:27:
                    e3:e1:4c:53:f3:ef:3f:f9:ca:3e:96:b3:fb:d0:f5:
                    ae:1f:7e:4b:95:ae:3a:69:56:35:32:c1:93:b3:bb:
                    0a:b0:9d:c4:3a:b7:16:02:3d:16:24:06:47:22:fc:
                    72:aa:c7:11:4a:61:08:9d:61:40:21:87:49:58:0b:
                    e4:bb:4c:22:d8:00:0e:02:c0:23:d3:61:e3:20:8a:
                    1d:ae:d3:cf:5c:46:ca:0a:01:e3:d6:ce:25:01:c5:
                    f2:e5:32:a5:39:ae:d1:f1:94:44:b4:44:59:5b:fb:
                    3e:86:3d:9a:9f:ec:a2:82:5d:a9:78:f0:75:fa:eb:
                    f8:97:ff:e4:1a:d2:dd:d2:23:49:72:bd:ac:d8:bf:
                    5e:35:80:ae:52:b7:5e:20:21:b9:c2:97:a4:18:a0:
                    59:25
                Exponent: 65537 (0x10001)
                No PSS parameter restrictions
        X509v3 extensions:
            X509v3 Key Usage: critical
                Certificate Sign, CRL Sign
            X509v3 Basic Constraints: critical
                CA:TRUE
            X509v3 Subject Key Identifier: 
                4B:1B:4E:77:F9:44:97:3F:01:A9:F3:D7:87:B1:DF:D1:75:B7:A2:9E
            X509v3 Authority Key Identifier: 
                keyid:4B:1B:4E:77:F9:44:97:3F:01:A9:F3:D7:87:B1:DF:D1:75:B7:A2:9E

    Signature Algorithm: rsassaPss         
         Hash Algorithm: sha256
         Mask Algorithm: mgf1 with sha256
          Salt Length: 0xDE
         Trailer Field: 0xBC (default)

         a4:ed:10:f0:b8:69:13:bc:e2:68:08:8d:3d:75:ad:83:87:ce:
         55:08:c3:bb:21:1a:32:ce:33:f4:56:38:e3:1f:94:f1:7c:59:
         19:f6:08:fd:ec:6c:a6:af:a2:65:20:65:ec:23:f1:07:05:a2:
         fa:d8:b3:15:36:f1:92:95:14:68:33:64:74:b5:6f:71:65:5c:
         13:ba:4e:d7:9e:87:57:14:e2:37:b6:12:05:85:25:c2:53:ce:
         41:d1:78:1b:d0:0c:7d:57:ec:f5:ba:01:ee:af:32:7c:36:aa:
         c7:d0:96:f1:63:79:54:76:f1:a2:ef:e5:65:45:99:4d:d7:42:
         2e:8a:ef:58:bf:72:54:1a:fa:bd:b1:5e:0a:95:df:f7:83:de:
         d0:db:cd:27:3b:56:cd:69:33:85:16:bc:57:23:34:00:41:44:
         bc:89:79:24:59:dd:69:74:16:9e:0e:f8:09:1c:cf:93:b6:a7:
         79:c7:84:c2:b2:ad:13:9e:ac:77:b5:46:d8:d4:1b:8f:70:f8:
         76:7e:f3:6c:8e:55:5b:e6:26:93:b0:15:da:4c:35:4f:45:25:
         45:d2:0c:56:0a:36:df:40:c6:08:76:17:29:ca:34:59:a6:14:
         0c:65:78:d6:a4:fe:f1:fa:78:c8:f4:2a:2b:0f:7a:f3:4f:40:
         72:df:df:b3
-----BEGIN CERTIFICATE-----
MIIEKDCCAt+gAwIBAgIBATA+BgkqhkiG9w0BAQowMaANMAsGCWCGSAFlAwQCAaEa
MBgGCSqGSIb3DQEBCDALBglghkgBZQMEAgGiBAICAN4wdTESMBAGCgmSJomT8ixk
ARkWAmNhMRQwEgYKCZImiZPyLGQBGRYEbGFiNTEZMBcGA1UECgwQTGFiNSBEZXZP
cHMgSW5jLjEPMA0GA1UECwwGRGV2T3BzMR0wGwYDVQQDDBRSb290Q0EgRzAgU2Vs
ZlNpZ25lZDAeFw0yMjA0MjkxNjI1NTdaFw0zMjA0MjgxNjI1NTdaMHUxEjAQBgoJ
kiaJk/IsZAEZFgJjYTEUMBIGCgmSJomT8ixkARkWBGxhYjUxGTAXBgNVBAoMEExh
YjUgRGV2T3BzIEluYy4xDzANBgNVBAsMBkRldk9wczEdMBsGA1UEAwwUUm9vdENB
IEcwIFNlbGZTaWduZWQwggEgMAsGCSqGSIb3DQEBCgOCAQ8AMIIBCgKCAQEAqOyL
8XkOvDrYmbVUzX2hbwxQ1vAUCdzyjuVhIiKfcX+IMyA0OpJ/BTUJrMGQl7V13edN
rU5IL570bMVu0BWhKd4GqC6TyKpZxVf4yUnr1X7o1Z64k/zZEsmSAAQk/wQgX8kN
D1k2/ifj4UxT8+8/+co+lrP70PWuH35Lla46aVY1MsGTs7sKsJ3EOrcWAj0WJAZH
IvxyqscRSmEInWFAIYdJWAvku0wi2AAOAsAj02HjIIodrtPPXEbKCgHj1s4lAcXy
5TKlOa7R8ZREtERZW/s+hj2an+yigl2pePB1+uv4l//kGtLd0iNJcr2s2L9eNYCu
UrdeICG5wpekGKBZJQIDAQABo2MwYTAOBgNVHQ8BAf8EBAMCAQYwDwYDVR0TAQH/
BAUwAwEB/zAdBgNVHQ4EFgQUSxtOd/lElz8BqfPXh7Hf0XW3op4wHwYDVR0jBBgw
FoAUSxtOd/lElz8BqfPXh7Hf0XW3op4wPgYJKoZIhvcNAQEKMDGgDTALBglghkgB
ZQMEAgGhGjAYBgkqhkiG9w0BAQgwCwYJYIZIAWUDBAIBogQCAgDeA4IBAQCk7RDw
uGkTvOJoCI09da2Dh85VCMO7IRoyzjP0VjjjH5TxfFkZ9gj97Gymr6JlIGXsI/EH
BaL62LMVNvGSlRRoM2R0tW9xZVwTuk7XnodXFOI3thIFhSXCU85B0Xgb0Ax9V+z1
ugHurzJ8NqrH0JbxY3lUdvGi7+VlRZlN10Iuiu9Yv3JUGvq9sV4Kld/3g97Q280n
O1bNaTOFFrxXIzQAQUS8iXkkWd1pdBaeDvgJHM+Ttqd5x4TCsq0Tnqx3tUbY1BuP
cPh2fvNsjlVb5iaTsBXaTDVPRSVF0gxWCjbfQMYIdhcpyjRZphQMZXjWpP7x+njI
9CorD3rzT0By39+z
-----END CERTIFICATE-----
