Certificate:
    Data:
        Version: 3 (0x2)
        Serial Number: 1 (0x1)
        Signature Algorithm: ED25519
        Issuer: DC=ca, DC=lab5, O=Lab5 DevOps Inc., OU=www.lab5.ca, CN=Lab5 DevOps Inc. Root CA
        Validity
            Not Before: Jun  2 14:22:25 2023 GMT
            Not After : Jun  1 14:22:25 2033 GMT
        Subject: DC=ca, DC=lab5, O=Lab5 DevOps Inc., OU=www.lab5.ca, CN=Lab5 DevOps Inc. Root CA
        Subject Public Key Info:
            Public Key Algorithm: ED25519
                ED25519 Public-Key:
                pub:
                    8d:11:e0:e9:2a:b1:af:52:1c:85:9c:74:82:b9:f1:
                    cf:2f:aa:c2:c0:fa:a3:07:e7:d1:a8:1d:eb:96:9e:
                    80:77
        X509v3 extensions:
            X509v3 Key Usage: critical
                Certificate Sign, CRL Sign
            X509v3 Basic Constraints: critical
                CA:TRUE
            X509v3 Subject Key Identifier: 
                FD:87:07:FE:3D:0F:DF:86:4B:74:86:C1:C7:B7:9B:F1:25:8C:D9:54
            X509v3 Authority Key Identifier: 
                FD:87:07:FE:3D:0F:DF:86:4B:74:86:C1:C7:B7:9B:F1:25:8C:D9:54
    Signature Algorithm: ED25519
    Signature Value:
        f0:2a:57:50:56:0f:32:af:b2:b0:6f:63:1d:e8:27:bf:e6:11:
        59:05:d1:b8:0d:5d:79:29:30:61:00:21:15:c2:e7:8c:56:e3:
        e4:00:83:14:df:c3:ba:ea:71:15:1e:21:0d:92:99:8d:d8:5a:
        e1:14:c1:dd:e8:ae:a6:2c:31:02
-----BEGIN CERTIFICATE-----
MIICDjCCAcCgAwIBAgIBATAFBgMrZXAwfjESMBAGCgmSJomT8ixkARkWAmNhMRQw
EgYKCZImiZPyLGQBGRYEbGFiNTEZMBcGA1UECgwQTGFiNSBEZXZPcHMgSW5jLjEU
MBIGA1UECwwLd3d3LmxhYjUuY2ExITAfBgNVBAMMGExhYjUgRGV2T3BzIEluYy4g
Um9vdCBDQTAeFw0yMzA2MDIxNDIyMjVaFw0zMzA2MDExNDIyMjVaMH4xEjAQBgoJ
kiaJk/IsZAEZFgJjYTEUMBIGCgmSJomT8ixkARkWBGxhYjUxGTAXBgNVBAoMEExh
YjUgRGV2T3BzIEluYy4xFDASBgNVBAsMC3d3dy5sYWI1LmNhMSEwHwYDVQQDDBhM
YWI1IERldk9wcyBJbmMuIFJvb3QgQ0EwKjAFBgMrZXADIQCNEeDpKrGvUhyFnHSC
ufHPL6rCwPqjB+fRqB3rlp6Ad6NjMGEwDgYDVR0PAQH/BAQDAgEGMA8GA1UdEwEB
/wQFMAMBAf8wHQYDVR0OBBYEFP2HB/49D9+GS3SGwce3m/EljNlUMB8GA1UdIwQY
MBaAFP2HB/49D9+GS3SGwce3m/EljNlUMAUGAytlcANBAPAqV1BWDzKvsrBvYx3o
J7/mEVkF0bgNXXkpMGEAIRXC54xW4+QAgxTfw7rqcRUeIQ2SmY3YWuEUwd3orqYs
MQI=
-----END CERTIFICATE-----
