Certificate:
    Data:
        Version: 3 (0x2)
        Serial Number: 1 (0x1)
        Signature Algorithm: ED25519
        Issuer: DC=ca, DC=lab5, O=Lab5 DevOps Inc., OU=www.lab5.ca, CN=Lab5 DevOps Inc. Root CA
        Validity
            Not Before: Jun 12 11:08:31 2023 GMT
            Not After : Jun 11 11:08:31 2033 GMT
        Subject: DC=ca, DC=lab5, O=Lab5 DevOps Inc., OU=www.lab5.ca, CN=Lab5 DevOps Inc. Root CA
        Subject Public Key Info:
            Public Key Algorithm: ED25519
                ED25519 Public-Key:
                pub:
                    ea:eb:94:45:79:b5:d8:6f:09:50:30:d7:4b:8b:ee:
                    8b:b3:2b:75:9a:27:93:83:97:7d:ce:23:6e:fe:7f:
                    97:73
        X509v3 extensions:
            X509v3 Key Usage: critical
                Certificate Sign, CRL Sign
            X509v3 Basic Constraints: critical
                CA:TRUE
            X509v3 Subject Key Identifier: 
                95:26:F2:8C:3C:69:27:B3:47:0A:55:6B:92:0B:4F:30:A1:A3:56:F9
            X509v3 Authority Key Identifier: 
                95:26:F2:8C:3C:69:27:B3:47:0A:55:6B:92:0B:4F:30:A1:A3:56:F9
    Signature Algorithm: ED25519
    Signature Value:
        29:b4:b6:89:f0:0c:c1:85:71:27:1a:77:94:f5:af:5a:30:ca:
        dc:c9:a0:27:83:a7:96:33:8f:b2:14:48:e2:77:76:24:2f:47:
        c8:34:f5:ef:3f:a5:fd:76:5f:3a:4f:0e:36:10:dc:2c:2b:f0:
        e6:3a:f3:52:aa:f0:eb:47:fb:04
-----BEGIN CERTIFICATE-----
MIICDjCCAcCgAwIBAgIBATAFBgMrZXAwfjESMBAGCgmSJomT8ixkARkWAmNhMRQw
EgYKCZImiZPyLGQBGRYEbGFiNTEZMBcGA1UECgwQTGFiNSBEZXZPcHMgSW5jLjEU
MBIGA1UECwwLd3d3LmxhYjUuY2ExITAfBgNVBAMMGExhYjUgRGV2T3BzIEluYy4g
Um9vdCBDQTAeFw0yMzA2MTIxMTA4MzFaFw0zMzA2MTExMTA4MzFaMH4xEjAQBgoJ
kiaJk/IsZAEZFgJjYTEUMBIGCgmSJomT8ixkARkWBGxhYjUxGTAXBgNVBAoMEExh
YjUgRGV2T3BzIEluYy4xFDASBgNVBAsMC3d3dy5sYWI1LmNhMSEwHwYDVQQDDBhM
YWI1IERldk9wcyBJbmMuIFJvb3QgQ0EwKjAFBgMrZXADIQDq65RFebXYbwlQMNdL
i+6Lsyt1mieTg5d9ziNu/n+Xc6NjMGEwDgYDVR0PAQH/BAQDAgEGMA8GA1UdEwEB
/wQFMAMBAf8wHQYDVR0OBBYEFJUm8ow8aSezRwpVa5ILTzCho1b5MB8GA1UdIwQY
MBaAFJUm8ow8aSezRwpVa5ILTzCho1b5MAUGAytlcANBACm0tonwDMGFcScad5T1
r1owytzJoCeDp5Yzj7IUSOJ3diQvR8g09e8/pf12XzpPDjYQ3Cwr8OY681Kq8OtH
+wQ=
-----END CERTIFICATE-----
