Certificate:
    Data:
        Version: 3 (0x2)
        Serial Number: 1 (0x1)
        Signature Algorithm: sha256WithRSAEncryption
        Issuer: DC=ca, DC=lab5, O=Lab5 DevOps Inc., OU=www.lab5.ca, CN=Root CA G1
        Validity
            Not Before: Jun 25 14:04:12 2022 GMT
            Not After : Jun 24 14:04:12 2032 GMT
        Subject: DC=ca, DC=lab5, O=Lab5 DevOps Inc., OU=www.lab5.ca, CN=Root CA G1
        Subject Public Key Info:
            Public Key Algorithm: rsaEncryption
                RSA Public-Key: (2048 bit)
                Modulus:
                    00:b4:e6:1e:50:e9:b4:65:9f:d6:4e:c7:2c:a0:73:
                    e7:17:89:07:57:f2:ba:18:03:d8:64:b0:b6:b6:e6:
                    a4:c4:42:1b:8b:93:d2:7e:ef:0e:e2:1c:28:7d:d6:
                    56:79:a1:59:4d:8c:c0:bf:a1:61:40:84:50:70:e1:
                    fb:f6:a4:40:ed:d1:d9:d0:e2:bc:75:87:94:9b:84:
                    b1:e9:52:4e:ec:bf:30:ff:27:ee:33:0f:71:20:10:
                    4d:83:e4:81:95:d8:86:af:13:68:fc:0b:e8:f0:eb:
                    d7:ed:0b:53:bd:7a:59:fb:7c:db:6e:cb:a9:17:32:
                    5e:70:25:ec:92:c2:3f:7a:9a:1b:ec:e5:35:83:1c:
                    c5:23:9a:96:b3:19:45:d4:07:60:33:5a:44:86:63:
                    74:11:48:1e:fd:5a:4b:63:72:a4:b7:bf:ec:bc:74:
                    be:ab:ee:f2:8f:81:61:82:4c:3f:2d:d7:b7:ba:4d:
                    da:0d:5f:ce:fe:70:59:f3:c0:63:a1:d0:d6:01:bf:
                    62:d4:6c:41:ae:8f:90:ac:32:97:87:12:c3:09:38:
                    f7:38:ae:a0:a0:0a:04:ba:bd:7b:cf:eb:da:0a:72:
                    aa:d8:e3:66:40:fd:d9:c2:72:49:6f:cb:63:24:83:
                    18:a7:64:ba:0b:fd:c0:13:48:02:64:cb:d1:75:ec:
                    75:cb
                Exponent: 65537 (0x10001)
        X509v3 extensions:
            X509v3 Key Usage: critical
                Certificate Sign, CRL Sign
            X509v3 Basic Constraints: critical
                CA:TRUE
            X509v3 Subject Key Identifier: 
                A5:DF:57:DF:2E:F6:39:AF:2F:0E:01:5C:F2:9D:AA:C2:4E:15:C8:50
            X509v3 Authority Key Identifier: 
                keyid:A5:DF:57:DF:2E:F6:39:AF:2F:0E:01:5C:F2:9D:AA:C2:4E:15:C8:50

    Signature Algorithm: sha256WithRSAEncryption
         96:b3:a0:d2:00:f0:11:86:37:8e:56:52:e2:b8:ac:56:55:3f:
         db:5d:e4:7d:c0:60:5e:d0:d8:23:8a:0d:63:0d:6a:9f:25:b0:
         fc:3b:cd:4e:c7:75:06:d7:1d:63:c1:a6:13:3a:13:88:3c:06:
         61:dd:9a:d0:74:6e:0c:3b:de:8a:93:7f:f2:22:9b:11:44:2c:
         d9:0d:9e:e4:91:67:1e:a2:8c:c7:29:f3:76:68:cb:45:86:b2:
         8b:bb:f6:ac:fc:f1:01:d4:b2:74:bc:3c:61:1f:af:5e:5a:fe:
         72:f6:a9:d2:83:c0:27:2a:8a:59:59:6b:a4:f9:c0:df:f5:d6:
         a0:cf:cc:a6:7d:ce:00:bc:f0:f8:1c:1f:1b:94:14:e6:fd:a0:
         c8:79:05:5e:af:75:cc:7d:4f:92:8e:b0:f9:05:b6:f6:ae:21:
         e0:6c:b6:0c:b3:ba:59:07:91:8b:30:4b:46:d1:f8:19:9a:9b:
         92:84:1b:91:a8:b0:4f:c9:58:93:28:fa:b7:6c:f3:b6:01:27:
         f3:62:03:5b:3e:06:ae:f4:c6:b3:f3:32:5c:e1:1e:87:5e:64:
         43:c7:9d:63:a7:b9:91:6f:f8:68:bf:f7:cb:e0:58:a9:e8:bb:
         69:e8:10:7a:62:91:ff:b1:f1:eb:77:bc:0d:bb:c8:74:7a:53:
         db:ac:7b:80
-----BEGIN CERTIFICATE-----
MIIDvjCCAqagAwIBAgIBATANBgkqhkiG9w0BAQsFADBwMRIwEAYKCZImiZPyLGQB
GRYCY2ExFDASBgoJkiaJk/IsZAEZFgRsYWI1MRkwFwYDVQQKDBBMYWI1IERldk9w
cyBJbmMuMRQwEgYDVQQLDAt3d3cubGFiNS5jYTETMBEGA1UEAwwKUm9vdCBDQSBH
MTAeFw0yMjA2MjUxNDA0MTJaFw0zMjA2MjQxNDA0MTJaMHAxEjAQBgoJkiaJk/Is
ZAEZFgJjYTEUMBIGCgmSJomT8ixkARkWBGxhYjUxGTAXBgNVBAoMEExhYjUgRGV2
T3BzIEluYy4xFDASBgNVBAsMC3d3dy5sYWI1LmNhMRMwEQYDVQQDDApSb290IENB
IEcxMIIBIjANBgkqhkiG9w0BAQEFAAOCAQ8AMIIBCgKCAQEAtOYeUOm0ZZ/WTscs
oHPnF4kHV/K6GAPYZLC2tuakxEIbi5PSfu8O4hwofdZWeaFZTYzAv6FhQIRQcOH7
9qRA7dHZ0OK8dYeUm4Sx6VJO7L8w/yfuMw9xIBBNg+SBldiGrxNo/Avo8OvX7QtT
vXpZ+3zbbsupFzJecCXsksI/epob7OU1gxzFI5qWsxlF1AdgM1pEhmN0EUge/VpL
Y3Kkt7/svHS+q+7yj4Fhgkw/Lde3uk3aDV/O/nBZ88BjodDWAb9i1GxBro+QrDKX
hxLDCTj3OK6goAoEur17z+vaCnKq2ONmQP3ZwnJJb8tjJIMYp2S6C/3AE0gCZMvR
dex1ywIDAQABo2MwYTAOBgNVHQ8BAf8EBAMCAQYwDwYDVR0TAQH/BAUwAwEB/zAd
BgNVHQ4EFgQUpd9X3y72Oa8vDgFc8p2qwk4VyFAwHwYDVR0jBBgwFoAUpd9X3y72
Oa8vDgFc8p2qwk4VyFAwDQYJKoZIhvcNAQELBQADggEBAJazoNIA8BGGN45WUuK4
rFZVP9td5H3AYF7Q2COKDWMNap8lsPw7zU7HdQbXHWPBphM6E4g8BmHdmtB0bgw7
3oqTf/IimxFELNkNnuSRZx6ijMcp83Zoy0WGsou79qz88QHUsnS8PGEfr15a/nL2
qdKDwCcqillZa6T5wN/11qDPzKZ9zgC88PgcHxuUFOb9oMh5BV6vdcx9T5KOsPkF
tvauIeBstgyzulkHkYswS0bR+Bmam5KEG5GosE/JWJMo+rds87YBJ/NiA1s+Bq70
xrPzMlzhHodeZEPHnWOnuZFv+Gi/98vgWKnou2noEHpikf+x8et3vA27yHR6U9us
e4A=
-----END CERTIFICATE-----
