Certificate:
    Data:
        Version: 3 (0x2)
        Serial Number: 1 (0x1)
        Signature Algorithm: rsassaPss         
         Hash Algorithm: sha256
         Mask Algorithm: mgf1 with sha256
          Salt Length: 0xDE
         Trailer Field: 0xBC (default)
        Issuer: DC=ca, DC=lab5, O=Lab5 DevOps Inc., OU=DevOps, CN=RootCA G0 SelfSigned
        Validity
            Not Before: Apr 29 14:33:49 2022 GMT
            Not After : Apr 28 14:33:49 2032 GMT
        Subject: DC=ca, DC=lab5, O=Lab5 DevOps Inc., OU=DevOps, CN=RootCA G0 SelfSigned
        Subject Public Key Info:
            Public Key Algorithm: rsassaPss
                RSA-PSS Public-Key: (2048 bit)
                Modulus:
                    00:d0:e0:5e:69:72:d9:56:2f:c3:b6:6b:82:ca:2d:
                    65:a8:df:d4:b8:a1:14:48:f9:f2:dc:2f:d2:fe:62:
                    0c:9e:35:b6:35:c9:42:14:bb:f7:2f:a4:e2:9d:fc:
                    41:09:41:36:ae:19:cd:d2:58:c9:1d:11:c4:e7:0a:
                    d8:0c:cd:ba:ad:95:75:6e:43:19:2f:9a:74:59:c3:
                    5a:d6:18:3a:57:71:c0:a6:48:a2:93:44:f6:21:ad:
                    c6:cf:1f:e0:c3:57:6b:ea:39:7a:9b:fe:7a:f1:ff:
                    9c:9a:5e:00:56:76:4d:a4:f4:1c:2b:35:71:08:1f:
                    8f:b4:51:75:9a:48:71:65:08:02:06:8c:cc:42:a8:
                    f0:fa:c4:d6:19:ec:fd:ba:41:fe:46:1f:71:8a:f8:
                    46:e8:25:3a:71:68:50:bf:1f:3d:1b:b4:1e:fd:bb:
                    02:48:87:e6:45:26:13:e2:3f:69:95:51:35:3b:7b:
                    eb:93:c5:3a:a9:dd:74:80:67:09:34:8c:85:25:d5:
                    4f:7d:23:ae:36:43:2a:b1:37:cf:86:a3:c9:e7:62:
                    79:2a:c0:d9:76:50:51:ed:24:46:94:54:58:ef:7e:
                    ce:81:62:61:b6:e7:48:be:41:70:33:c4:8b:7a:41:
                    35:de:f1:48:82:1b:83:80:ef:4b:7f:01:84:68:65:
                    6e:ed
                Exponent: 65537 (0x10001)
                No PSS parameter restrictions
        X509v3 extensions:
            X509v3 Key Usage: critical
                Certificate Sign, CRL Sign
            X509v3 Basic Constraints: critical
                CA:TRUE
            X509v3 Subject Key Identifier: 
                AC:0C:2B:2F:08:22:A6:4C:67:FD:29:31:20:D6:9F:F1:DB:88:26:2B
            X509v3 Authority Key Identifier: 
                keyid:AC:0C:2B:2F:08:22:A6:4C:67:FD:29:31:20:D6:9F:F1:DB:88:26:2B

    Signature Algorithm: rsassaPss         
         Hash Algorithm: sha256
         Mask Algorithm: mgf1 with sha256
          Salt Length: 0xDE
         Trailer Field: 0xBC (default)

         31:92:90:ec:c7:0d:9c:1d:8d:8a:6e:89:5c:08:5f:c9:96:6c:
         77:0b:01:12:f4:ff:ca:a1:40:98:70:7f:f4:90:36:6e:20:e0:
         e5:d1:86:85:ed:b3:5b:49:23:a9:57:27:7b:00:a1:00:26:9c:
         69:3f:ac:04:73:dd:0a:20:ab:85:3b:f4:4c:b7:df:16:ee:bf:
         49:03:ec:c6:13:40:f4:1c:1d:fb:c3:05:97:23:7f:c9:7e:ce:
         d0:86:3e:e0:51:d4:19:85:29:87:cf:66:d4:dc:07:6d:28:00:
         e5:fe:73:c7:3e:01:7a:c7:8d:32:17:6d:af:51:20:b7:57:69:
         32:7a:6b:0f:23:7d:37:42:a3:88:8e:72:ab:05:e9:77:ff:ca:
         6f:d9:bd:87:7d:40:c4:28:57:b6:52:ea:51:b4:9f:29:80:29:
         9c:14:04:4e:56:51:2f:eb:95:b9:d4:f0:e4:10:5b:52:58:6d:
         cd:3e:25:df:af:a8:2d:ec:10:3b:6a:bc:3f:0b:60:52:8e:f9:
         7b:e7:f4:87:24:ee:90:ec:2c:9b:63:4f:e6:76:10:00:97:ad:
         70:03:66:73:66:f1:de:49:b6:ca:8e:9e:fa:68:e5:33:9b:f2:
         25:68:91:cf:f6:ca:d2:3d:68:77:2f:e0:67:bf:3b:70:91:75:
         13:6e:f5:ff
-----BEGIN CERTIFICATE-----
MIIEKDCCAt+gAwIBAgIBATA+BgkqhkiG9w0BAQowMaANMAsGCWCGSAFlAwQCAaEa
MBgGCSqGSIb3DQEBCDALBglghkgBZQMEAgGiBAICAN4wdTESMBAGCgmSJomT8ixk
ARkWAmNhMRQwEgYKCZImiZPyLGQBGRYEbGFiNTEZMBcGA1UECgwQTGFiNSBEZXZP
cHMgSW5jLjEPMA0GA1UECwwGRGV2T3BzMR0wGwYDVQQDDBRSb290Q0EgRzAgU2Vs
ZlNpZ25lZDAeFw0yMjA0MjkxNDMzNDlaFw0zMjA0MjgxNDMzNDlaMHUxEjAQBgoJ
kiaJk/IsZAEZFgJjYTEUMBIGCgmSJomT8ixkARkWBGxhYjUxGTAXBgNVBAoMEExh
YjUgRGV2T3BzIEluYy4xDzANBgNVBAsMBkRldk9wczEdMBsGA1UEAwwUUm9vdENB
IEcwIFNlbGZTaWduZWQwggEgMAsGCSqGSIb3DQEBCgOCAQ8AMIIBCgKCAQEA0OBe
aXLZVi/DtmuCyi1lqN/UuKEUSPny3C/S/mIMnjW2NclCFLv3L6TinfxBCUE2rhnN
0ljJHRHE5wrYDM26rZV1bkMZL5p0WcNa1hg6V3HApkiik0T2Ia3Gzx/gw1dr6jl6
m/568f+cml4AVnZNpPQcKzVxCB+PtFF1mkhxZQgCBozMQqjw+sTWGez9ukH+Rh9x
ivhG6CU6cWhQvx89G7Qe/bsCSIfmRSYT4j9plVE1O3vrk8U6qd10gGcJNIyFJdVP
fSOuNkMqsTfPhqPJ52J5KsDZdlBR7SRGlFRY737OgWJhtudIvkFwM8SLekE13vFI
ghuDgO9LfwGEaGVu7QIDAQABo2MwYTAOBgNVHQ8BAf8EBAMCAQYwDwYDVR0TAQH/
BAUwAwEB/zAdBgNVHQ4EFgQUrAwrLwgipkxn/SkxINaf8duIJiswHwYDVR0jBBgw
FoAUrAwrLwgipkxn/SkxINaf8duIJiswPgYJKoZIhvcNAQEKMDGgDTALBglghkgB
ZQMEAgGhGjAYBgkqhkiG9w0BAQgwCwYJYIZIAWUDBAIBogQCAgDeA4IBAQAxkpDs
xw2cHY2KbolcCF/Jlmx3CwES9P/KoUCYcH/0kDZuIODl0YaF7bNbSSOpVyd7AKEA
JpxpP6wEc90KIKuFO/RMt98W7r9JA+zGE0D0HB37wwWXI3/Jfs7Qhj7gUdQZhSmH
z2bU3AdtKADl/nPHPgF6x40yF22vUSC3V2kyemsPI303QqOIjnKrBel3/8pv2b2H
fUDEKFe2UupRtJ8pgCmcFAROVlEv65W51PDkEFtSWG3NPiXfr6gt7BA7arw/C2BS
jvl75/SHJO6Q7CybY0/mdhAAl61wA2ZzZvHeSbbKjp76aOUzm/IlaJHP9srSPWh3
L+BnvztwkXUTbvX/
-----END CERTIFICATE-----
