Certificate:
    Data:
        Version: 3 (0x2)
        Serial Number: 1 (0x1)
        Signature Algorithm: sha256WithRSAEncryption
        Issuer: DC=ca, DC=lab5, O=Lab5 DevOps Inc., OU=DevOps, CN=RootCA G0 SelfSigned
        Validity
            Not Before: May  1 13:22:58 2022 GMT
            Not After : Apr 30 13:22:58 2032 GMT
        Subject: DC=ca, DC=lab5, O=Lab5 DevOps Inc., OU=DevOps, CN=RootCA G0 SelfSigned
        Subject Public Key Info:
            Public Key Algorithm: rsaEncryption
                RSA Public-Key: (2048 bit)
                Modulus:
                    00:c3:07:5a:e1:3c:73:ca:8a:35:21:df:56:36:70:
                    8c:01:82:58:14:ae:9f:d4:1d:8d:fa:e2:1c:0b:0f:
                    dc:0f:e6:41:58:a5:92:cd:43:25:0f:7e:af:1c:fa:
                    97:2c:75:74:2d:48:18:c4:cd:8c:85:2f:2d:f8:c0:
                    89:a5:9e:fb:ba:d8:d9:28:5c:31:58:91:cd:c1:e6:
                    e4:9d:e4:77:4c:e6:b2:d9:68:62:85:87:22:6d:ce:
                    c2:51:7d:3e:75:12:4b:21:bd:1b:f9:57:83:4a:2a:
                    60:c0:95:4a:dd:66:ae:26:1b:65:a1:5e:4f:47:c4:
                    12:db:cd:38:cf:73:c0:a4:d2:ac:36:c0:d6:fe:d3:
                    a2:65:39:fc:be:80:de:da:10:ba:29:78:75:4a:19:
                    d0:76:9b:dd:be:c9:7b:48:18:01:41:9a:89:f1:79:
                    0d:fc:da:ce:97:2e:0a:c6:2d:ab:19:12:a4:cd:05:
                    71:42:a4:32:39:d0:ea:d0:df:e4:66:5d:4e:4f:85:
                    5e:70:d8:1b:d9:c1:c0:9e:5c:a7:98:5e:d1:f3:50:
                    c5:5b:e2:f1:ba:e1:06:a0:31:c1:ef:ca:b6:3a:55:
                    4f:e8:e9:13:0d:b1:31:80:eb:4f:79:3c:d7:53:0e:
                    8d:20:bc:cd:33:df:9a:dd:0e:8d:4c:60:ce:ed:c0:
                    e9:f7
                Exponent: 65537 (0x10001)
        X509v3 extensions:
            X509v3 Key Usage: critical
                Certificate Sign, CRL Sign
            X509v3 Basic Constraints: critical
                CA:TRUE
            X509v3 Subject Key Identifier: 
                2A:9B:E5:4D:74:8A:99:50:32:A8:FD:B7:C3:19:53:B2:55:D8:01:9F
            X509v3 Authority Key Identifier: 
                keyid:2A:9B:E5:4D:74:8A:99:50:32:A8:FD:B7:C3:19:53:B2:55:D8:01:9F

    Signature Algorithm: sha256WithRSAEncryption
         b8:6d:73:d0:85:55:b1:4c:d6:50:25:8d:1c:f2:8b:3f:4f:5e:
         42:5d:e3:1f:5b:35:fe:a0:da:80:eb:5c:2e:c6:27:5f:80:06:
         bc:e4:bf:ac:83:0b:74:79:bb:ad:0d:8c:72:6d:68:3c:99:50:
         5c:10:f0:d2:99:07:dd:4e:4e:0b:8d:e8:03:07:ee:b3:f3:6b:
         9d:db:e5:ff:89:1a:46:20:7e:d4:ac:ca:af:f6:37:fc:b9:ea:
         60:c8:01:e7:df:b8:65:b9:e4:f7:c9:8e:d1:4f:0c:1d:0a:a1:
         20:f0:c8:f5:42:74:8a:5f:b1:25:7c:06:e8:b7:17:13:a2:45:
         b1:61:75:2d:50:de:e3:82:b9:11:0d:8b:db:1d:79:d7:f3:c3:
         4c:31:84:4d:3b:39:2a:c0:cd:80:71:ef:01:05:15:00:b5:9c:
         de:3a:8b:a5:88:ed:79:fc:5c:e0:66:57:ec:8e:14:55:93:96:
         d4:dc:17:35:94:dd:d7:aa:11:1f:10:d5:9a:dd:81:1e:c8:fd:
         70:db:72:4c:1d:5e:01:f3:53:43:6a:c3:b6:33:24:4a:54:61:
         38:1e:51:44:58:a8:4b:79:6b:d4:ea:1f:bf:36:48:21:09:c5:
         8f:cd:d1:59:60:03:e5:f9:15:54:18:50:2d:8d:e5:c2:17:ed:
         4b:22:db:71
-----BEGIN CERTIFICATE-----
MIIDyDCCArCgAwIBAgIBATANBgkqhkiG9w0BAQsFADB1MRIwEAYKCZImiZPyLGQB
GRYCY2ExFDASBgoJkiaJk/IsZAEZFgRsYWI1MRkwFwYDVQQKDBBMYWI1IERldk9w
cyBJbmMuMQ8wDQYDVQQLDAZEZXZPcHMxHTAbBgNVBAMMFFJvb3RDQSBHMCBTZWxm
U2lnbmVkMB4XDTIyMDUwMTEzMjI1OFoXDTMyMDQzMDEzMjI1OFowdTESMBAGCgmS
JomT8ixkARkWAmNhMRQwEgYKCZImiZPyLGQBGRYEbGFiNTEZMBcGA1UECgwQTGFi
NSBEZXZPcHMgSW5jLjEPMA0GA1UECwwGRGV2T3BzMR0wGwYDVQQDDBRSb290Q0Eg
RzAgU2VsZlNpZ25lZDCCASIwDQYJKoZIhvcNAQEBBQADggEPADCCAQoCggEBAMMH
WuE8c8qKNSHfVjZwjAGCWBSun9QdjfriHAsP3A/mQVilks1DJQ9+rxz6lyx1dC1I
GMTNjIUvLfjAiaWe+7rY2ShcMViRzcHm5J3kd0zmstloYoWHIm3OwlF9PnUSSyG9
G/lXg0oqYMCVSt1mriYbZaFeT0fEEtvNOM9zwKTSrDbA1v7TomU5/L6A3toQuil4
dUoZ0Hab3b7Je0gYAUGaifF5DfzazpcuCsYtqxkSpM0FcUKkMjnQ6tDf5GZdTk+F
XnDYG9nBwJ5cp5he0fNQxVvi8brhBqAxwe/KtjpVT+jpEw2xMYDrT3k811MOjSC8
zTPfmt0OjUxgzu3A6fcCAwEAAaNjMGEwDgYDVR0PAQH/BAQDAgEGMA8GA1UdEwEB
/wQFMAMBAf8wHQYDVR0OBBYEFCqb5U10iplQMqj9t8MZU7JV2AGfMB8GA1UdIwQY
MBaAFCqb5U10iplQMqj9t8MZU7JV2AGfMA0GCSqGSIb3DQEBCwUAA4IBAQC4bXPQ
hVWxTNZQJY0c8os/T15CXeMfWzX+oNqA61wuxidfgAa85L+sgwt0ebutDYxybWg8
mVBcEPDSmQfdTk4LjegDB+6z82ud2+X/iRpGIH7UrMqv9jf8uepgyAHn37hlueT3
yY7RTwwdCqEg8Mj1QnSKX7ElfAbotxcTokWxYXUtUN7jgrkRDYvbHXnX88NMMYRN
OzkqwM2Ace8BBRUAtZzeOouliO15/FzgZlfsjhRVk5bU3Bc1lN3XqhEfENWa3YEe
yP1w23JMHV4B81NDasO2MyRKVGE4HlFEWKhLeWvU6h+/NkghCcWPzdFZYAPl+RVU
GFAtjeXCF+1LIttx
-----END CERTIFICATE-----
