Certificate:
    Data:
        Version: 3 (0x2)
        Serial Number: 1 (0x1)
        Signature Algorithm: sha256WithRSAEncryption
        Issuer: DC=ca, DC=lab5, O=Lab5 DevOps Inc., OU=www.lab5.ca, CN=Root CA G1
        Validity
            Not Before: May  1 14:59:26 2022 GMT
            Not After : Apr 30 14:59:26 2032 GMT
        Subject: DC=ca, DC=lab5, O=Lab5 DevOps Inc., OU=www.lab5.ca, CN=Root CA G1
        Subject Public Key Info:
            Public Key Algorithm: rsaEncryption
                RSA Public-Key: (2048 bit)
                Modulus:
                    00:b0:92:b7:71:4f:c2:55:59:a1:81:d9:25:8d:ad:
                    eb:2a:f3:fa:0f:3a:66:47:0c:49:fd:96:79:e5:07:
                    52:15:95:1c:2c:e9:ec:3e:2b:9c:87:37:d4:2d:cc:
                    42:75:63:75:fc:80:cd:40:07:ab:a0:d4:7e:38:56:
                    f4:b5:4c:d5:c8:5c:81:f5:6c:46:95:dd:bb:80:23:
                    f6:2e:54:f8:4d:fc:96:3a:ee:37:d8:9d:05:62:5f:
                    85:b4:99:6d:4b:43:78:67:e8:1f:35:e3:65:06:ba:
                    9a:bb:bd:71:d9:c7:32:22:ec:0b:09:a8:e4:90:42:
                    c6:15:d5:93:da:b8:b5:72:8d:96:3b:fb:dc:de:a2:
                    78:bc:05:7f:82:1d:eb:a8:98:1f:39:f8:d0:c2:b8:
                    50:6c:68:b2:5b:1f:3a:4e:bc:10:bc:1a:00:6b:85:
                    24:ea:19:a4:c0:99:da:13:8b:f8:a7:17:4f:15:be:
                    90:b4:46:2b:b0:2d:6c:80:10:71:0f:48:9f:89:12:
                    1a:84:63:2b:3e:09:d8:a2:22:bd:b3:6e:95:cf:3f:
                    75:28:76:01:0b:1f:6f:68:71:0a:f5:5f:c2:ef:6d:
                    8d:b9:48:a2:ad:6a:2c:99:aa:0f:11:3b:f4:2e:51:
                    88:15:b2:b7:f1:b6:7a:4c:2c:37:3f:00:10:26:84:
                    cc:85
                Exponent: 65537 (0x10001)
        X509v3 extensions:
            X509v3 Key Usage: critical
                Certificate Sign, CRL Sign
            X509v3 Basic Constraints: critical
                CA:TRUE
            X509v3 Subject Key Identifier: 
                C1:86:BB:7E:1B:F8:85:87:68:DF:75:C0:FA:47:67:53:94:2B:D3:DD
            X509v3 Authority Key Identifier: 
                keyid:C1:86:BB:7E:1B:F8:85:87:68:DF:75:C0:FA:47:67:53:94:2B:D3:DD

    Signature Algorithm: sha256WithRSAEncryption
         78:b7:99:fb:61:02:74:6d:c3:39:de:20:81:c1:a9:17:b0:fd:
         2e:7a:be:17:84:70:7b:11:d4:4f:22:3f:10:63:1a:ee:a6:6a:
         f1:80:96:49:55:c8:63:37:9d:34:be:4d:b6:7f:ac:ff:32:58:
         aa:19:6b:4b:8f:fe:df:8f:64:24:e5:ab:82:43:e5:ad:be:ca:
         a6:d3:e1:8f:7b:fb:86:3f:d4:5d:c8:24:eb:ca:cb:9b:a7:eb:
         47:bc:0c:43:cb:33:25:d7:18:a5:49:08:00:3c:14:db:ca:ef:
         b7:99:06:2d:fc:d5:94:04:b4:3d:27:2b:6b:4c:17:74:cf:25:
         cd:5b:07:61:7f:ae:07:7d:cf:e2:12:f1:6b:cf:15:b6:5b:ea:
         b9:9a:f6:2c:5c:6f:5a:3e:ba:eb:68:1c:e7:11:88:dc:e2:9a:
         69:31:77:18:53:bc:7d:c0:bf:b3:f3:09:bb:12:2b:5c:f6:cc:
         d5:e1:5b:fe:4c:1c:46:d5:1d:4c:44:ab:12:39:b0:d9:91:b2:
         53:b3:b8:e2:ff:23:ee:77:20:12:c0:a4:89:ec:70:26:69:8e:
         92:6f:4f:95:2b:9a:d1:f9:03:4f:a2:65:7c:2e:30:d2:7a:cf:
         a5:9c:5d:08:61:2b:4e:b6:0f:06:b0:39:df:66:da:fd:f8:7d:
         2e:b2:54:bb
-----BEGIN CERTIFICATE-----
MIIDvjCCAqagAwIBAgIBATANBgkqhkiG9w0BAQsFADBwMRIwEAYKCZImiZPyLGQB
GRYCY2ExFDASBgoJkiaJk/IsZAEZFgRsYWI1MRkwFwYDVQQKDBBMYWI1IERldk9w
cyBJbmMuMRQwEgYDVQQLDAt3d3cubGFiNS5jYTETMBEGA1UEAwwKUm9vdCBDQSBH
MTAeFw0yMjA1MDExNDU5MjZaFw0zMjA0MzAxNDU5MjZaMHAxEjAQBgoJkiaJk/Is
ZAEZFgJjYTEUMBIGCgmSJomT8ixkARkWBGxhYjUxGTAXBgNVBAoMEExhYjUgRGV2
T3BzIEluYy4xFDASBgNVBAsMC3d3dy5sYWI1LmNhMRMwEQYDVQQDDApSb290IENB
IEcxMIIBIjANBgkqhkiG9w0BAQEFAAOCAQ8AMIIBCgKCAQEAsJK3cU/CVVmhgdkl
ja3rKvP6DzpmRwxJ/ZZ55QdSFZUcLOnsPiuchzfULcxCdWN1/IDNQAeroNR+OFb0
tUzVyFyB9WxGld27gCP2LlT4TfyWOu432J0FYl+FtJltS0N4Z+gfNeNlBrqau71x
2ccyIuwLCajkkELGFdWT2ri1co2WO/vc3qJ4vAV/gh3rqJgfOfjQwrhQbGiyWx86
TrwQvBoAa4Uk6hmkwJnaE4v4pxdPFb6QtEYrsC1sgBBxD0ifiRIahGMrPgnYoiK9
s26Vzz91KHYBCx9vaHEK9V/C722NuUiirWosmaoPETv0LlGIFbK38bZ6TCw3PwAQ
JoTMhQIDAQABo2MwYTAOBgNVHQ8BAf8EBAMCAQYwDwYDVR0TAQH/BAUwAwEB/zAd
BgNVHQ4EFgQUwYa7fhv4hYdo33XA+kdnU5Qr090wHwYDVR0jBBgwFoAUwYa7fhv4
hYdo33XA+kdnU5Qr090wDQYJKoZIhvcNAQELBQADggEBAHi3mfthAnRtwzneIIHB
qRew/S56vheEcHsR1E8iPxBjGu6mavGAlklVyGM3nTS+TbZ/rP8yWKoZa0uP/t+P
ZCTlq4JD5a2+yqbT4Y97+4Y/1F3IJOvKy5un60e8DEPLMyXXGKVJCAA8FNvK77eZ
Bi381ZQEtD0nK2tMF3TPJc1bB2F/rgd9z+IS8WvPFbZb6rma9ixcb1o+uutoHOcR
iNzimmkxdxhTvH3Av7PzCbsSK1z2zNXhW/5MHEbVHUxEqxI5sNmRslOzuOL/I+53
IBLApInscCZpjpJvT5UrmtH5A0+iZXwuMNJ6z6WcXQhhK062DwawOd9m2v34fS6y
VLs=
-----END CERTIFICATE-----
