Certificate:
    Data:
        Version: 3 (0x2)
        Serial Number: 1 (0x1)
        Signature Algorithm: ED25519
        Issuer: DC=ca, DC=lab5, O=Lab5 DevOps Inc., OU=www.lab5.ca, CN=Lab5 DevOps Inc. Root CA
        Validity
            Not Before: Oct  4 14:11:45 2023 GMT
            Not After : Oct  3 14:11:45 2033 GMT
        Subject: DC=ca, DC=lab5, O=Lab5 DevOps Inc., OU=www.lab5.ca, CN=Lab5 DevOps Inc. Root CA
        Subject Public Key Info:
            Public Key Algorithm: ED25519
                ED25519 Public-Key:
                pub:
                    a3:dc:0e:6e:59:ab:fc:82:16:c3:c7:9d:e7:4e:ca:
                    19:17:d2:bf:c2:93:78:fc:ac:f6:f5:c9:1c:4a:11:
                    94:a3
        X509v3 extensions:
            X509v3 Key Usage: critical
                Certificate Sign, CRL Sign
            X509v3 Basic Constraints: critical
                CA:TRUE
            X509v3 Subject Key Identifier: 
                B1:0D:26:F9:C8:C0:53:2E:64:30:10:5E:F4:57:21:B8:20:F3:A1:03
            X509v3 Authority Key Identifier: 
                B1:0D:26:F9:C8:C0:53:2E:64:30:10:5E:F4:57:21:B8:20:F3:A1:03
    Signature Algorithm: ED25519
    Signature Value:
        f6:af:bb:fa:be:8d:17:f4:86:22:5e:de:34:eb:21:a3:d0:aa:
        db:f3:ab:65:c9:2a:29:70:5b:93:1e:ea:60:07:64:a2:b1:79:
        76:93:25:a8:53:35:56:3f:7e:fc:ec:74:9b:a1:67:c7:09:4c:
        b6:e1:80:c7:c1:11:8f:02:82:0f
-----BEGIN CERTIFICATE-----
MIICDjCCAcCgAwIBAgIBATAFBgMrZXAwfjESMBAGCgmSJomT8ixkARkWAmNhMRQw
EgYKCZImiZPyLGQBGRYEbGFiNTEZMBcGA1UECgwQTGFiNSBEZXZPcHMgSW5jLjEU
MBIGA1UECwwLd3d3LmxhYjUuY2ExITAfBgNVBAMMGExhYjUgRGV2T3BzIEluYy4g
Um9vdCBDQTAeFw0yMzEwMDQxNDExNDVaFw0zMzEwMDMxNDExNDVaMH4xEjAQBgoJ
kiaJk/IsZAEZFgJjYTEUMBIGCgmSJomT8ixkARkWBGxhYjUxGTAXBgNVBAoMEExh
YjUgRGV2T3BzIEluYy4xFDASBgNVBAsMC3d3dy5sYWI1LmNhMSEwHwYDVQQDDBhM
YWI1IERldk9wcyBJbmMuIFJvb3QgQ0EwKjAFBgMrZXADIQCj3A5uWav8ghbDx53n
TsoZF9K/wpN4/Kz29ckcShGUo6NjMGEwDgYDVR0PAQH/BAQDAgEGMA8GA1UdEwEB
/wQFMAMBAf8wHQYDVR0OBBYEFLENJvnIwFMuZDAQXvRXIbgg86EDMB8GA1UdIwQY
MBaAFLENJvnIwFMuZDAQXvRXIbgg86EDMAUGAytlcANBAPavu/q+jRf0hiJe3jTr
IaPQqtvzq2XJKilwW5Me6mAHZKKxeXaTJahTNVY/fvzsdJuhZ8cJTLbhgMfBEY8C
gg8=
-----END CERTIFICATE-----
