Certificate:
    Data:
        Version: 3 (0x2)
        Serial Number: 1 (0x1)
        Signature Algorithm: sha256WithRSAEncryption
        Issuer: DC=ca, DC=lab5, O=Lab5 DevOps Inc., OU=www.lab5.ca, CN=Lab5 DevOps Inc. Root CA
        Validity
            Not Before: Oct  2 17:22:44 2022 GMT
            Not After : Oct  1 17:22:44 2032 GMT
        Subject: DC=ca, DC=lab5, O=Lab5 DevOps Inc., OU=www.lab5.ca, CN=Lab5 DevOps Inc. Root CA
        Subject Public Key Info:
            Public Key Algorithm: rsaEncryption
                Public-Key: (2048 bit)
                Modulus:
                    00:c1:60:4f:28:2c:02:1b:c6:66:1c:59:50:5b:3b:
                    53:c3:37:05:eb:3d:d9:ab:a6:30:8a:41:d5:8b:29:
                    a3:3a:f1:0a:70:51:7b:6a:42:5d:d7:6e:51:a9:ba:
                    25:4a:61:3e:0f:06:37:dd:5d:65:13:c0:7e:94:9b:
                    87:cc:7d:57:4d:3d:af:a6:81:40:f8:2f:65:8d:e0:
                    7c:4b:d2:d0:d2:08:1c:61:55:7c:25:db:45:aa:ef:
                    0c:5e:c0:02:86:b3:38:2d:8c:77:3b:a4:47:8c:88:
                    b5:4c:bf:00:82:d2:5a:a8:81:e0:5b:fe:20:fb:37:
                    36:e0:11:3a:4b:d5:48:62:a4:6d:52:83:ee:d1:a0:
                    5f:98:7f:69:d8:d1:1b:f7:fe:a1:6f:eb:d3:0f:77:
                    7e:fc:87:64:1b:74:7c:01:ab:14:b8:00:c1:fe:ad:
                    73:3d:43:11:82:d9:23:a3:c8:b6:d1:7b:01:4e:2f:
                    6f:69:a3:b6:1f:67:69:82:7d:4c:5a:82:0a:bb:df:
                    a5:8c:80:28:46:7c:fd:60:b3:ed:41:10:5b:24:fc:
                    2e:6d:2b:e7:35:d9:a1:77:a2:fc:b0:5f:5f:2b:24:
                    79:80:bf:a5:5b:71:cb:3b:b6:bc:50:33:ed:72:a6:
                    f9:0f:0b:46:9e:ec:6c:42:2a:a1:a0:ee:0b:c3:ce:
                    aa:b3
                Exponent: 65537 (0x10001)
        X509v3 extensions:
            X509v3 Key Usage: critical
                Certificate Sign, CRL Sign
            X509v3 Basic Constraints: critical
                CA:TRUE
            X509v3 Subject Key Identifier: 
                7D:C2:C7:34:13:4F:0B:56:7B:F2:10:8D:92:49:EA:A4:45:A2:4E:8B
            X509v3 Authority Key Identifier: 
                7D:C2:C7:34:13:4F:0B:56:7B:F2:10:8D:92:49:EA:A4:45:A2:4E:8B
    Signature Algorithm: sha256WithRSAEncryption
    Signature Value:
        67:d1:2e:90:7b:59:6b:15:56:4b:99:8d:39:15:65:1d:15:0e:
        21:a0:e8:b4:1f:5a:c6:f4:2f:da:ff:21:b5:20:dc:ae:24:98:
        a6:34:92:a2:6a:3d:97:76:e7:07:4f:78:2d:7f:4d:01:d4:b0:
        5f:bc:76:af:05:19:de:18:8c:65:3a:b0:03:95:eb:0d:42:c7:
        79:d3:c2:bd:37:4f:37:ed:88:22:66:03:c0:f2:8e:49:f5:80:
        94:08:6b:89:fb:5e:62:0b:fc:ac:60:11:3c:71:3c:22:79:c5:
        c2:36:a6:11:17:1b:2c:9a:fe:60:7d:cb:60:99:28:10:ce:35:
        44:6b:f6:d3:6d:f0:2e:aa:84:4d:13:7b:a9:b8:cc:92:3c:4d:
        52:44:ff:db:08:a6:6f:47:3b:ff:4c:f1:f1:06:0b:2e:e8:7a:
        b1:29:80:52:a7:0d:c9:f7:61:9f:67:3a:28:c7:eb:43:b0:50:
        27:30:58:6a:b9:e2:7c:c3:23:e0:77:a0:a1:06:2b:55:9f:31:
        1b:7c:11:c7:d3:a6:50:8b:31:28:b1:e3:af:5c:2e:ab:85:20:
        00:d6:db:24:06:26:86:e0:c3:1f:b6:22:e3:fd:ed:25:72:62:
        02:13:f6:0c:4d:12:32:43:a7:c7:55:d7:22:c0:88:78:d3:34:
        bb:f1:db:55
-----BEGIN CERTIFICATE-----
MIID2jCCAsKgAwIBAgIBATANBgkqhkiG9w0BAQsFADB+MRIwEAYKCZImiZPyLGQB
GRYCY2ExFDASBgoJkiaJk/IsZAEZFgRsYWI1MRkwFwYDVQQKDBBMYWI1IERldk9w
cyBJbmMuMRQwEgYDVQQLDAt3d3cubGFiNS5jYTEhMB8GA1UEAwwYTGFiNSBEZXZP
cHMgSW5jLiBSb290IENBMB4XDTIyMTAwMjE3MjI0NFoXDTMyMTAwMTE3MjI0NFow
fjESMBAGCgmSJomT8ixkARkWAmNhMRQwEgYKCZImiZPyLGQBGRYEbGFiNTEZMBcG
A1UECgwQTGFiNSBEZXZPcHMgSW5jLjEUMBIGA1UECwwLd3d3LmxhYjUuY2ExITAf
BgNVBAMMGExhYjUgRGV2T3BzIEluYy4gUm9vdCBDQTCCASIwDQYJKoZIhvcNAQEB
BQADggEPADCCAQoCggEBAMFgTygsAhvGZhxZUFs7U8M3Bes92aumMIpB1Yspozrx
CnBRe2pCXdduUam6JUphPg8GN91dZRPAfpSbh8x9V009r6aBQPgvZY3gfEvS0NII
HGFVfCXbRarvDF7AAoazOC2MdzukR4yItUy/AILSWqiB4Fv+IPs3NuAROkvVSGKk
bVKD7tGgX5h/adjRG/f+oW/r0w93fvyHZBt0fAGrFLgAwf6tcz1DEYLZI6PIttF7
AU4vb2mjth9naYJ9TFqCCrvfpYyAKEZ8/WCz7UEQWyT8Lm0r5zXZoXei/LBfXysk
eYC/pVtxyzu2vFAz7XKm+Q8LRp7sbEIqoaDuC8POqrMCAwEAAaNjMGEwDgYDVR0P
AQH/BAQDAgEGMA8GA1UdEwEB/wQFMAMBAf8wHQYDVR0OBBYEFH3CxzQTTwtWe/IQ
jZJJ6qRFok6LMB8GA1UdIwQYMBaAFH3CxzQTTwtWe/IQjZJJ6qRFok6LMA0GCSqG
SIb3DQEBCwUAA4IBAQBn0S6Qe1lrFVZLmY05FWUdFQ4hoOi0H1rG9C/a/yG1INyu
JJimNJKiaj2XducHT3gtf00B1LBfvHavBRneGIxlOrADlesNQsd508K9N0837Ygi
ZgPA8o5J9YCUCGuJ+15iC/ysYBE8cTwiecXCNqYRFxssmv5gfctgmSgQzjVEa/bT
bfAuqoRNE3upuMySPE1SRP/bCKZvRzv/TPHxBgsu6HqxKYBSpw3J92GfZzoox+tD
sFAnMFhqueJ8wyPgd6ChBitVnzEbfBHH06ZQizEoseOvXC6rhSAA1tskBiaG4MMf
tiLj/e0lcmICE/YMTRIyQ6fHVdciwIh40zS78dtV
-----END CERTIFICATE-----
