Certificate:
    Data:
        Version: 3 (0x2)
        Serial Number: 1 (0x1)
        Signature Algorithm: sha256WithRSAEncryption
        Issuer: DC=ca, DC=lab5, O=Lab5 DevOps Inc., OU=www.lab5.ca, CN=Root CA G1
        Validity
            Not Before: May  8 12:16:40 2022 GMT
            Not After : May  7 12:16:40 2032 GMT
        Subject: DC=ca, DC=lab5, O=Lab5 DevOps Inc., OU=www.lab5.ca, CN=Root CA G1
        Subject Public Key Info:
            Public Key Algorithm: rsaEncryption
                RSA Public-Key: (2048 bit)
                Modulus:
                    00:a1:87:fd:69:3b:3d:eb:ef:2d:7b:ee:9a:e5:6f:
                    d7:f2:64:f2:7c:00:98:f6:eb:c3:3a:95:d4:fc:17:
                    89:7c:e3:d5:4a:16:cc:60:f1:48:5a:1b:36:1d:07:
                    59:91:77:c6:aa:92:7a:4c:54:6b:3d:1e:e7:2a:3d:
                    bc:1e:6f:6a:1a:22:2d:28:1b:d4:44:2f:83:35:b7:
                    da:94:30:aa:9d:4d:0b:1f:cc:11:06:89:d3:c7:60:
                    3a:71:c4:84:c9:13:ed:24:55:2f:55:a3:06:0e:b6:
                    b4:63:7d:6e:0f:98:70:f0:c0:e3:71:dd:c0:70:98:
                    3e:d8:58:57:b4:b8:ed:6f:66:4c:81:f8:f8:b6:3b:
                    c9:a8:0a:1e:81:32:1a:41:3f:76:af:5a:75:1c:c0:
                    21:e4:e2:7d:20:85:f5:ef:ab:d9:c9:56:57:14:a5:
                    f2:7f:d3:62:77:af:2d:40:52:8f:58:e7:48:33:4e:
                    3e:53:18:f9:87:b8:5a:c8:ae:b2:f3:70:a3:26:93:
                    ae:d9:70:e2:19:0c:cb:0f:0b:0f:08:2c:5c:68:72:
                    88:0e:a5:78:8f:1f:11:fc:3b:25:df:42:3a:59:63:
                    8f:d6:97:78:2a:02:05:00:41:3c:17:f9:73:db:c7:
                    7f:57:42:97:6f:d0:b5:82:c4:f9:39:c6:65:99:ee:
                    99:7f
                Exponent: 65537 (0x10001)
        X509v3 extensions:
            X509v3 Key Usage: critical
                Certificate Sign, CRL Sign
            X509v3 Basic Constraints: critical
                CA:TRUE
            X509v3 Subject Key Identifier: 
                FF:FB:29:0F:F2:85:D6:B5:69:7C:AB:9A:E5:55:C4:D6:F3:70:63:51
            X509v3 Authority Key Identifier: 
                keyid:FF:FB:29:0F:F2:85:D6:B5:69:7C:AB:9A:E5:55:C4:D6:F3:70:63:51

    Signature Algorithm: sha256WithRSAEncryption
         1c:bb:88:0e:0d:43:04:47:d1:34:00:a5:0c:4e:76:2e:da:24:
         4c:ff:e8:7f:bb:9b:ec:a2:22:62:ff:07:a1:e2:83:f1:d8:93:
         da:ff:d1:6e:41:36:21:23:11:f0:14:9e:41:f7:72:d9:0e:f5:
         71:95:0b:f2:5e:0e:c2:5c:83:32:82:e5:b6:74:23:46:2b:d4:
         f2:1b:d4:76:5a:05:65:a5:ac:59:c7:d4:af:a8:6b:6e:a3:ef:
         d3:ae:df:8b:87:2a:ed:c8:a0:26:b0:ed:35:35:8e:56:e3:51:
         58:4d:20:68:7e:fa:1d:ec:9c:fe:28:c7:4a:83:48:f8:b2:d5:
         8a:69:7d:4e:fb:36:86:ff:69:3d:31:15:f4:8c:04:41:ab:38:
         70:a0:41:50:9e:6f:b3:98:f4:ee:c6:63:fe:6c:38:35:e0:77:
         3e:f8:ba:76:13:a4:74:78:fe:d1:88:a3:88:d5:4c:fa:3c:89:
         1f:51:45:bb:a3:55:ab:9a:28:9e:a9:73:d9:2b:ce:1a:63:c9:
         01:12:6a:f3:fb:79:ad:90:c7:18:80:f0:fb:86:0c:9d:be:36:
         a8:2a:ef:5d:ff:ff:30:e8:38:b1:d5:98:61:06:1c:95:ec:b3:
         cd:29:5f:6c:6a:02:71:ee:e4:d7:10:46:65:9a:00:d9:c9:0b:
         5c:a2:46:54
-----BEGIN CERTIFICATE-----
MIIDvjCCAqagAwIBAgIBATANBgkqhkiG9w0BAQsFADBwMRIwEAYKCZImiZPyLGQB
GRYCY2ExFDASBgoJkiaJk/IsZAEZFgRsYWI1MRkwFwYDVQQKDBBMYWI1IERldk9w
cyBJbmMuMRQwEgYDVQQLDAt3d3cubGFiNS5jYTETMBEGA1UEAwwKUm9vdCBDQSBH
MTAeFw0yMjA1MDgxMjE2NDBaFw0zMjA1MDcxMjE2NDBaMHAxEjAQBgoJkiaJk/Is
ZAEZFgJjYTEUMBIGCgmSJomT8ixkARkWBGxhYjUxGTAXBgNVBAoMEExhYjUgRGV2
T3BzIEluYy4xFDASBgNVBAsMC3d3dy5sYWI1LmNhMRMwEQYDVQQDDApSb290IENB
IEcxMIIBIjANBgkqhkiG9w0BAQEFAAOCAQ8AMIIBCgKCAQEAoYf9aTs96+8te+6a
5W/X8mTyfACY9uvDOpXU/BeJfOPVShbMYPFIWhs2HQdZkXfGqpJ6TFRrPR7nKj28
Hm9qGiItKBvURC+DNbfalDCqnU0LH8wRBonTx2A6ccSEyRPtJFUvVaMGDra0Y31u
D5hw8MDjcd3AcJg+2FhXtLjtb2ZMgfj4tjvJqAoegTIaQT92r1p1HMAh5OJ9IIX1
76vZyVZXFKXyf9Nid68tQFKPWOdIM04+Uxj5h7hayK6y83CjJpOu2XDiGQzLDwsP
CCxcaHKIDqV4jx8R/Dsl30I6WWOP1pd4KgIFAEE8F/lz28d/V0KXb9C1gsT5OcZl
me6ZfwIDAQABo2MwYTAOBgNVHQ8BAf8EBAMCAQYwDwYDVR0TAQH/BAUwAwEB/zAd
BgNVHQ4EFgQU//spD/KF1rVpfKua5VXE1vNwY1EwHwYDVR0jBBgwFoAU//spD/KF
1rVpfKua5VXE1vNwY1EwDQYJKoZIhvcNAQELBQADggEBABy7iA4NQwRH0TQApQxO
di7aJEz/6H+7m+yiImL/B6Hig/HYk9r/0W5BNiEjEfAUnkH3ctkO9XGVC/JeDsJc
gzKC5bZ0I0Yr1PIb1HZaBWWlrFnH1K+oa26j79Ou34uHKu3IoCaw7TU1jlbjUVhN
IGh++h3snP4ox0qDSPiy1YppfU77Nob/aT0xFfSMBEGrOHCgQVCeb7OY9O7GY/5s
ODXgdz74unYTpHR4/tGIo4jVTPo8iR9RRbujVauaKJ6pc9krzhpjyQESavP7ea2Q
xxiA8PuGDJ2+Nqgq713//zDoOLHVmGEGHJXss80pX2xqAnHu5NcQRmWaANnJC1yi
RlQ=
-----END CERTIFICATE-----
