Certificate:
    Data:
        Version: 3 (0x2)
        Serial Number: 2 (0x2)
        Signature Algorithm: sha256WithRSAEncryption
        Issuer: DC=ca, DC=lab5, O=Lab5 DevOps Inc., OU=www.lab5.ca, CN=Lab5 DevOps Inc. Root CA
        Validity
            Not Before: Sep  6 19:25:32 2022 GMT
            Not After : Sep  5 19:25:32 2032 GMT
        Subject: DC=ca, DC=lab5, O=Lab5 DevOps Inc., OU=www.lab5.ca, CN=Lab5 DevOps Inc. Issuing CA
        Subject Public Key Info:
            Public Key Algorithm: rsaEncryption
                RSA Public-Key: (2048 bit)
                Modulus:
                    00:b8:e9:f9:1d:ae:cb:14:53:f1:a7:af:b8:d7:0b:
                    97:28:bf:32:03:f2:9c:76:4d:8b:29:1e:f7:7a:e0:
                    5f:d5:1b:9d:20:26:0e:17:8a:6f:ad:47:ee:e8:f2:
                    3b:db:ce:e0:31:22:ac:9d:f7:0e:f4:53:2a:8a:8a:
                    10:df:8a:c9:62:7a:ac:05:da:b8:75:0e:19:1b:4d:
                    c7:e3:c3:66:d3:3e:e3:bc:0e:a6:d5:8f:3b:f8:7c:
                    52:b3:da:e7:98:54:5c:09:ba:1c:2c:25:74:2e:7c:
                    34:2a:a8:26:fb:90:d3:f0:e0:c2:e2:41:48:67:79:
                    d0:b2:a2:25:1a:c1:e4:fb:94:4e:db:ef:42:15:91:
                    58:cc:88:d7:fb:bb:96:c1:4b:4a:a1:61:e6:11:2d:
                    e4:73:3e:8d:30:dc:84:42:8b:3d:95:23:a2:ce:c5:
                    f8:5e:33:88:1e:bf:cd:ee:4b:fd:f0:a1:3c:83:cd:
                    3a:64:e5:89:fd:52:62:65:9c:b7:76:48:7a:53:ef:
                    ad:6f:91:64:b8:96:89:f3:2c:97:fb:fd:de:be:52:
                    cc:98:9c:3e:3a:6b:5b:7c:fa:13:bc:63:55:ab:b4:
                    b8:a7:ea:2a:7e:94:f9:02:fa:7a:36:fd:ed:4b:7d:
                    92:74:b1:79:a8:58:6a:f6:4e:06:4d:a3:a7:be:ef:
                    ea:97
                Exponent: 65537 (0x10001)
        X509v3 extensions:
            X509v3 Key Usage: critical
                Certificate Sign, CRL Sign
            X509v3 Basic Constraints: critical
                CA:TRUE, pathlen:0
            X509v3 Subject Key Identifier: 
                B7:E8:B7:33:43:2B:8D:AB:CB:4D:77:3B:42:E0:2F:F5:22:7C:BB:14
            X509v3 Authority Key Identifier: 
                keyid:95:1E:4C:DF:49:1F:09:01:34:AD:F6:46:C9:3E:EA:67:90:C3:69:93

    Signature Algorithm: sha256WithRSAEncryption
         91:67:d8:8a:2d:94:f5:76:5d:5d:56:c5:4a:af:59:ec:55:c0:
         ea:b3:27:c7:9f:3b:49:ea:fe:42:8b:11:bc:bb:18:17:bc:1f:
         f0:ca:ac:8a:12:22:75:9a:1d:46:19:fb:e2:0c:82:ad:31:57:
         0f:14:75:8f:49:67:84:f4:73:eb:e3:72:38:cd:8a:2c:3b:ce:
         15:f9:ea:4e:f9:99:6d:5e:80:d2:de:dd:6d:3a:85:ec:c1:b4:
         f6:51:f3:62:24:3b:27:39:1e:59:7c:d9:e5:fd:96:8b:03:20:
         84:8c:16:f1:e8:c2:9e:00:82:a7:55:c6:9a:46:2a:e6:24:87:
         26:86:0e:07:dc:5a:36:27:69:df:ad:41:b3:d7:bf:86:f3:59:
         7a:eb:fa:e6:09:e3:a3:da:48:f4:c7:db:ae:e7:43:6c:2e:be:
         73:01:4b:19:62:66:79:4f:bb:4a:66:06:6d:45:78:72:dd:76:
         e1:79:d6:86:e9:3e:82:73:46:90:02:ed:fb:19:0f:4f:c1:7a:
         ce:86:ee:d0:64:2b:4f:8f:66:f5:69:01:bb:51:bb:13:53:3c:
         18:1e:cc:94:5f:48:98:dd:61:e0:96:be:98:d1:74:11:82:5a:
         0d:1e:11:67:29:bc:02:d8:1e:31:9f:eb:c3:6e:34:e0:d9:83:
         a4:a8:19:ae
-----BEGIN CERTIFICATE-----
MIID4TCCAsmgAwIBAgIBAjANBgkqhkiG9w0BAQsFADB+MRIwEAYKCZImiZPyLGQB
GRYCY2ExFDASBgoJkiaJk/IsZAEZFgRsYWI1MRkwFwYDVQQKDBBMYWI1IERldk9w
cyBJbmMuMRQwEgYDVQQLDAt3d3cubGFiNS5jYTEhMB8GA1UEAwwYTGFiNSBEZXZP
cHMgSW5jLiBSb290IENBMB4XDTIyMDkwNjE5MjUzMloXDTMyMDkwNTE5MjUzMlow
gYExEjAQBgoJkiaJk/IsZAEZFgJjYTEUMBIGCgmSJomT8ixkARkWBGxhYjUxGTAX
BgNVBAoMEExhYjUgRGV2T3BzIEluYy4xFDASBgNVBAsMC3d3dy5sYWI1LmNhMSQw
IgYDVQQDDBtMYWI1IERldk9wcyBJbmMuIElzc3VpbmcgQ0EwggEiMA0GCSqGSIb3
DQEBAQUAA4IBDwAwggEKAoIBAQC46fkdrssUU/Gnr7jXC5covzID8px2TYspHvd6
4F/VG50gJg4Xim+tR+7o8jvbzuAxIqyd9w70UyqKihDfislieqwF2rh1DhkbTcfj
w2bTPuO8DqbVjzv4fFKz2ueYVFwJuhwsJXQufDQqqCb7kNPw4MLiQUhnedCyoiUa
weT7lE7b70IVkVjMiNf7u5bBS0qhYeYRLeRzPo0w3IRCiz2VI6LOxfheM4gev83u
S/3woTyDzTpk5Yn9UmJlnLd2SHpT761vkWS4lonzLJf7/d6+UsyYnD46a1t8+hO8
Y1WrtLin6ip+lPkC+no2/e1LfZJ0sXmoWGr2TgZNo6e+7+qXAgMBAAGjZjBkMA4G
A1UdDwEB/wQEAwIBBjASBgNVHRMBAf8ECDAGAQH/AgEAMB0GA1UdDgQWBBS36Lcz
QyuNq8tNdztC4C/1Iny7FDAfBgNVHSMEGDAWgBSVHkzfSR8JATSt9kbJPupnkMNp
kzANBgkqhkiG9w0BAQsFAAOCAQEAkWfYii2U9XZdXVbFSq9Z7FXA6rMnx587Ser+
QosRvLsYF7wf8MqsihIidZodRhn74gyCrTFXDxR1j0lnhPRz6+NyOM2KLDvOFfnq
TvmZbV6A0t7dbTqF7MG09lHzYiQ7JzkeWXzZ5f2WiwMghIwW8ejCngCCp1XGmkYq
5iSHJoYOB9xaNidp361Bs9e/hvNZeuv65gnjo9pI9MfbrudDbC6+cwFLGWJmeU+7
SmYGbUV4ct124XnWhuk+gnNGkALt+xkPT8F6zobu0GQrT49m9WkBu1G7E1M8GB7M
lF9ImN1h4Ja+mNF0EYJaDR4RZym8AtgeMZ/rw2404NmDpKgZrg==
-----END CERTIFICATE-----
