Certificate:
    Data:
        Version: 3 (0x2)
        Serial Number: 2 (0x2)
        Signature Algorithm: sha256WithRSAEncryption
        Issuer: DC=ca, DC=lab5, O=Lab5 DevOps Inc., OU=www.lab5.ca, CN=Root CA G1
        Validity
            Not Before: Sep  2 14:10:03 2022 GMT
            Not After : Sep  1 14:10:03 2032 GMT
        Subject: DC=ca, DC=lab5, O=Lab5 DevOps Inc., OU=www.lab5.ca, CN=Issuing CA G1
        Subject Public Key Info:
            Public Key Algorithm: rsaEncryption
                RSA Public-Key: (2048 bit)
                Modulus:
                    00:b7:e7:ea:dc:b5:04:49:9f:9f:bd:c6:51:ae:43:
                    17:74:85:d0:e3:34:e7:de:0c:55:05:6c:3d:43:88:
                    5e:e6:78:1d:b5:ab:32:16:2b:ed:78:a2:93:7c:96:
                    01:ee:78:42:c1:b3:96:2d:f1:4d:91:28:a8:1b:b9:
                    b7:db:8d:d9:0b:4f:e9:ea:e0:45:35:ee:37:28:21:
                    01:86:94:4d:2f:53:7a:ea:1b:37:7f:97:12:b7:3c:
                    e4:d9:05:5b:ad:a3:9d:6a:a7:b5:e9:aa:21:f0:50:
                    96:ba:67:62:6e:bc:a4:86:79:d9:9d:6e:52:95:d7:
                    64:90:8e:70:a4:f7:c3:7c:70:fc:b6:b1:20:ec:dc:
                    e2:8e:ba:a1:4e:1e:bf:27:45:cb:c8:1a:0b:4b:da:
                    92:28:82:1b:96:25:d8:5f:35:2c:ea:d4:3b:42:80:
                    74:45:ba:4c:39:1a:b5:d8:21:54:f0:82:1a:23:e6:
                    84:9c:82:12:ea:a8:ba:a5:ff:ce:a8:12:f1:6f:2a:
                    e7:04:84:26:28:cf:cb:09:e1:8f:77:0e:ea:6b:36:
                    14:9c:13:6d:74:bc:38:2c:ec:e2:11:c4:78:f7:26:
                    12:bc:82:56:df:c3:07:f2:88:1d:f8:79:c2:72:c1:
                    ce:8b:ba:c7:ea:c0:c2:ba:31:a5:4e:2f:a6:ed:e6:
                    eb:75
                Exponent: 65537 (0x10001)
        X509v3 extensions:
            X509v3 Key Usage: critical
                Certificate Sign, CRL Sign
            X509v3 Basic Constraints: critical
                CA:TRUE, pathlen:0
            X509v3 Subject Key Identifier: 
                C5:24:22:6D:5D:E3:A4:E4:29:E3:E6:15:97:50:96:71:B2:99:0D:0C
            X509v3 Authority Key Identifier: 
                keyid:A9:0A:77:BC:3C:65:89:27:37:38:63:5B:BA:B8:FC:EB:65:47:A2:67

    Signature Algorithm: sha256WithRSAEncryption
         1e:df:3c:0d:c5:31:3d:a8:b5:46:b8:35:84:70:b5:0c:8c:b1:
         54:18:1a:7d:94:5f:a9:f8:76:fd:95:08:62:25:c3:93:5e:2c:
         84:78:3b:05:ce:60:73:e6:a2:30:0d:95:32:5f:d9:f1:81:5c:
         24:e6:52:4f:05:ac:18:19:df:b5:50:87:9e:2e:57:6c:24:55:
         5b:a7:37:4a:e1:77:64:03:19:d8:99:3e:13:d2:56:5a:87:1d:
         65:15:82:79:2d:7a:1d:1f:2f:61:1f:d7:f3:77:cb:74:9b:89:
         51:78:b6:77:8d:be:f8:04:a5:fd:43:27:7d:71:a1:7d:eb:2b:
         0d:e4:a7:7c:32:af:d2:42:73:f3:a1:9a:a7:cb:52:73:36:ca:
         9b:47:26:65:c7:7f:8a:63:52:c8:e5:1e:1b:4c:92:3d:95:d9:
         dc:d2:39:b5:26:ee:23:b6:e5:f2:90:ba:5f:53:0e:34:57:2b:
         4c:1c:b5:bb:18:44:6c:03:99:c7:df:08:c3:84:18:b9:c1:3f:
         e0:ee:c8:7d:8a:09:f2:3f:23:93:9c:4b:6f:2a:01:57:8e:a8:
         1c:a1:f5:e3:a8:7f:38:dc:48:ab:c6:05:67:c2:4b:43:d8:b5:
         2f:ca:83:78:e4:1a:00:0c:62:90:e6:c4:83:bf:2e:a8:0c:57:
         f1:f1:4a:c5
-----BEGIN CERTIFICATE-----
MIIDxDCCAqygAwIBAgIBAjANBgkqhkiG9w0BAQsFADBwMRIwEAYKCZImiZPyLGQB
GRYCY2ExFDASBgoJkiaJk/IsZAEZFgRsYWI1MRkwFwYDVQQKDBBMYWI1IERldk9w
cyBJbmMuMRQwEgYDVQQLDAt3d3cubGFiNS5jYTETMBEGA1UEAwwKUm9vdCBDQSBH
MTAeFw0yMjA5MDIxNDEwMDNaFw0zMjA5MDExNDEwMDNaMHMxEjAQBgoJkiaJk/Is
ZAEZFgJjYTEUMBIGCgmSJomT8ixkARkWBGxhYjUxGTAXBgNVBAoMEExhYjUgRGV2
T3BzIEluYy4xFDASBgNVBAsMC3d3dy5sYWI1LmNhMRYwFAYDVQQDDA1Jc3N1aW5n
IENBIEcxMIIBIjANBgkqhkiG9w0BAQEFAAOCAQ8AMIIBCgKCAQEAt+fq3LUESZ+f
vcZRrkMXdIXQ4zTn3gxVBWw9Q4he5ngdtasyFivteKKTfJYB7nhCwbOWLfFNkSio
G7m3243ZC0/p6uBFNe43KCEBhpRNL1N66hs3f5cStzzk2QVbraOdaqe16aoh8FCW
umdibrykhnnZnW5SlddkkI5wpPfDfHD8trEg7NzijrqhTh6/J0XLyBoLS9qSKIIb
liXYXzUs6tQ7QoB0RbpMORq12CFU8IIaI+aEnIIS6qi6pf/OqBLxbyrnBIQmKM/L
CeGPdw7qazYUnBNtdLw4LOziEcR49yYSvIJW38MH8ogd+HnCcsHOi7rH6sDCujGl
Ti+m7ebrdQIDAQABo2YwZDAOBgNVHQ8BAf8EBAMCAQYwEgYDVR0TAQH/BAgwBgEB
/wIBADAdBgNVHQ4EFgQUxSQibV3jpOQp4+YVl1CWcbKZDQwwHwYDVR0jBBgwFoAU
qQp3vDxliSc3OGNburj862VHomcwDQYJKoZIhvcNAQELBQADggEBAB7fPA3FMT2o
tUa4NYRwtQyMsVQYGn2UX6n4dv2VCGIlw5NeLIR4OwXOYHPmojANlTJf2fGBXCTm
Uk8FrBgZ37VQh54uV2wkVVunN0rhd2QDGdiZPhPSVlqHHWUVgnkteh0fL2Ef1/N3
y3SbiVF4tneNvvgEpf1DJ31xoX3rKw3kp3wyr9JCc/OhmqfLUnM2yptHJmXHf4pj
UsjlHhtMkj2V2dzSObUm7iO25fKQul9TDjRXK0wctbsYRGwDmcffCMOEGLnBP+Du
yH2KCfI/I5OcS28qAVeOqByh9eOofzjcSKvGBWfCS0PYtS/Kg3jkGgAMYpDmxIO/
LqgMV/HxSsU=
-----END CERTIFICATE-----
