Certificate:
    Data:
        Version: 3 (0x2)
        Serial Number: 2 (0x2)
        Signature Algorithm: sha256WithRSAEncryption
        Issuer: DC=ca, DC=lab5, O=Lab5 DevOps Inc., OU=www.lab5.ca, CN=RootCA G0 SelfSigned
        Validity
            Not Before: May  1 14:40:10 2022 GMT
            Not After : Apr 30 14:40:10 2032 GMT
        Subject: DC=ca, DC=lab5, O=Lab5 DevOps Inc., OU=www.lab5.ca, CN=SigningCA G1
        Subject Public Key Info:
            Public Key Algorithm: rsaEncryption
                RSA Public-Key: (2048 bit)
                Modulus:
                    00:c2:a4:3d:e5:a1:47:cc:25:73:61:be:b6:61:3a:
                    4e:e6:7c:32:84:de:c6:5f:8c:5f:4e:54:d7:32:69:
                    1f:d5:2d:4f:02:02:bb:c8:bc:39:b2:33:41:0c:05:
                    c4:19:8b:13:84:bf:c6:3c:8a:84:1b:81:dc:96:ca:
                    c0:25:4c:9b:dd:d6:94:48:f5:ac:eb:0b:03:ce:78:
                    51:9c:e4:7c:53:96:d0:0f:ef:c0:f6:30:83:39:41:
                    a7:f8:dc:2d:6c:16:0c:61:f6:4d:31:f5:9f:fd:2d:
                    c5:70:9d:8c:e1:12:67:69:20:bd:f6:2b:2b:c8:d9:
                    b3:97:c4:df:c8:7f:fb:6e:9f:7b:53:23:17:b9:f2:
                    da:a1:f7:ed:c6:ea:b1:b9:6d:5d:8b:5e:59:f2:61:
                    70:44:a4:27:cd:18:96:50:0c:ba:42:b0:8f:1f:82:
                    84:8b:a3:b3:17:40:c8:7b:68:a6:3f:1f:39:3a:c1:
                    5c:54:98:71:3e:6d:eb:a1:1a:ea:cd:f6:58:3d:50:
                    56:9e:c1:96:06:bc:78:df:b2:96:0f:50:c2:32:e4:
                    b3:ae:0d:cb:f0:1c:1b:b9:bc:ef:14:50:67:87:78:
                    dd:6a:44:e6:88:2f:a7:cb:0c:ca:12:4c:16:05:c0:
                    cc:16:11:92:93:01:fc:c3:79:65:82:2d:60:56:49:
                    4b:31
                Exponent: 65537 (0x10001)
        X509v3 extensions:
            X509v3 Key Usage: critical
                Certificate Sign, CRL Sign
            X509v3 Basic Constraints: critical
                CA:TRUE, pathlen:0
            X509v3 Subject Key Identifier: 
                8A:0D:DD:D6:86:43:56:1A:35:A5:F3:2D:34:B4:80:21:B7:FC:78:7D
            X509v3 Authority Key Identifier: 
                keyid:AF:96:23:86:8D:6A:B5:AC:B2:E6:ED:20:C6:20:78:72:99:15:B1:27

    Signature Algorithm: sha256WithRSAEncryption
         31:02:7c:7e:d6:df:d7:0b:cd:98:49:d6:a8:2d:38:b0:de:b4:
         42:d8:33:04:b7:cf:58:8d:45:a0:2b:57:05:66:8a:b1:e1:80:
         41:db:ee:8f:08:18:45:4f:1c:05:a0:98:a3:36:37:8e:b5:c1:
         58:16:b9:05:c7:43:c2:76:fc:da:10:f4:62:1c:1d:9c:8d:f1:
         4e:ff:46:b3:ae:44:7f:bc:af:af:53:83:f0:c3:3d:fd:56:2b:
         1e:cf:3e:bd:07:62:0f:5d:3a:a7:c6:c5:bd:72:16:7a:ea:ff:
         8d:68:8f:6e:a9:41:21:9a:77:fc:8d:f4:ea:d4:50:70:07:b9:
         6b:cc:75:32:cc:fd:15:65:64:87:ca:b6:c7:32:ba:e5:9f:4f:
         da:68:f6:34:56:d6:0e:b0:ee:29:df:3f:cc:08:39:04:5e:ee:
         16:5c:f2:b6:79:1d:a4:3b:40:41:b6:83:ba:92:e2:26:e6:8d:
         71:64:56:f3:11:83:56:a5:e2:36:f5:1f:31:77:8e:27:73:2c:
         6a:7b:45:14:c6:ab:cd:e4:e7:0c:83:e1:c3:27:9c:94:cb:e3:
         b8:e9:4d:7d:da:43:e6:b7:27:aa:e9:39:1b:ba:67:48:75:56:
         a5:24:18:a3:9e:7a:85:70:d4:25:56:6e:54:e7:49:3c:42:78:
         b6:3a:40:36
-----BEGIN CERTIFICATE-----
MIIDzTCCArWgAwIBAgIBAjANBgkqhkiG9w0BAQsFADB6MRIwEAYKCZImiZPyLGQB
GRYCY2ExFDASBgoJkiaJk/IsZAEZFgRsYWI1MRkwFwYDVQQKDBBMYWI1IERldk9w
cyBJbmMuMRQwEgYDVQQLDAt3d3cubGFiNS5jYTEdMBsGA1UEAwwUUm9vdENBIEcw
IFNlbGZTaWduZWQwHhcNMjIwNTAxMTQ0MDEwWhcNMzIwNDMwMTQ0MDEwWjByMRIw
EAYKCZImiZPyLGQBGRYCY2ExFDASBgoJkiaJk/IsZAEZFgRsYWI1MRkwFwYDVQQK
DBBMYWI1IERldk9wcyBJbmMuMRQwEgYDVQQLDAt3d3cubGFiNS5jYTEVMBMGA1UE
AwwMU2lnbmluZ0NBIEcxMIIBIjANBgkqhkiG9w0BAQEFAAOCAQ8AMIIBCgKCAQEA
wqQ95aFHzCVzYb62YTpO5nwyhN7GX4xfTlTXMmkf1S1PAgK7yLw5sjNBDAXEGYsT
hL/GPIqEG4HclsrAJUyb3daUSPWs6wsDznhRnOR8U5bQD+/A9jCDOUGn+NwtbBYM
YfZNMfWf/S3FcJ2M4RJnaSC99isryNmzl8TfyH/7bp97UyMXufLaofftxuqxuW1d
i15Z8mFwRKQnzRiWUAy6QrCPH4KEi6OzF0DIe2imPx85OsFcVJhxPm3roRrqzfZY
PVBWnsGWBrx437KWD1DCMuSzrg3L8BwbubzvFFBnh3jdakTmiC+nywzKEkwWBcDM
FhGSkwH8w3llgi1gVklLMQIDAQABo2YwZDAOBgNVHQ8BAf8EBAMCAQYwEgYDVR0T
AQH/BAgwBgEB/wIBADAdBgNVHQ4EFgQUig3d1oZDVho1pfMtNLSAIbf8eH0wHwYD
VR0jBBgwFoAUr5Yjho1qtayy5u0gxiB4cpkVsScwDQYJKoZIhvcNAQELBQADggEB
ADECfH7W39cLzZhJ1qgtOLDetELYMwS3z1iNRaArVwVmirHhgEHb7o8IGEVPHAWg
mKM2N461wVgWuQXHQ8J2/NoQ9GIcHZyN8U7/RrOuRH+8r69Tg/DDPf1WKx7PPr0H
Yg9dOqfGxb1yFnrq/41oj26pQSGad/yN9OrUUHAHuWvMdTLM/RVlZIfKtscyuuWf
T9po9jRW1g6w7infP8wIOQRe7hZc8rZ5HaQ7QEG2g7qS4ibmjXFkVvMRg1al4jb1
HzF3jidzLGp7RRTGq83k5wyD4cMnnJTL47jpTX3aQ+a3J6rpORu6Z0h1VqUkGKOe
eoVw1CVWblTnSTxCeLY6QDY=
-----END CERTIFICATE-----
