Certificate:
    Data:
        Version: 3 (0x2)
        Serial Number: 2 (0x2)
        Signature Algorithm: rsassaPss         
         Hash Algorithm: sha256
         Mask Algorithm: mgf1 with sha256
          Salt Length: 0xDE
         Trailer Field: 0xBC (default)
        Issuer: DC=ca, DC=lab5, O=Lab5 DevOps Inc., OU=DevOps, CN=RootCA G0 SelfSigned
        Validity
            Not Before: Apr 29 16:26:01 2022 GMT
            Not After : Apr 28 16:26:01 2032 GMT
        Subject: DC=ca, DC=lab5, O=Lab5 DevOps Inc., OU=DevOps, CN=SigningCA G1
        Subject Public Key Info:
            Public Key Algorithm: rsassaPss
                RSA-PSS Public-Key: (2048 bit)
                Modulus:
                    00:b5:93:94:10:20:00:36:44:23:fa:fe:9a:40:cc:
                    f0:32:6d:ee:ce:82:7f:50:25:ca:d0:2a:14:ff:fe:
                    0b:be:48:0f:a3:bc:d2:5a:dc:19:c8:f7:66:b2:ed:
                    cc:21:1f:53:fc:7b:d0:20:0a:e7:c0:46:40:35:0e:
                    9b:1e:bf:56:fe:d8:ac:0b:db:13:e9:06:15:f4:c9:
                    fa:a6:b2:e7:03:91:6c:87:a6:22:7a:82:4e:28:b4:
                    c9:0c:e4:2b:20:a4:41:33:fe:70:01:3d:88:ee:79:
                    4a:0f:e5:25:94:57:49:85:4e:77:96:9f:fe:c6:07:
                    5d:e6:c5:4c:6c:8c:1e:d5:92:a5:7d:d9:bb:c6:54:
                    e2:c8:e7:9b:9a:4a:f1:e5:ba:75:7a:e4:ee:aa:3e:
                    df:5f:9d:f1:35:c6:bc:fd:12:ae:42:cc:ee:7f:da:
                    49:22:a8:7d:13:01:61:ad:8a:21:a0:e9:4b:16:ec:
                    23:4f:2b:11:9d:71:d9:38:75:58:44:a0:c7:ac:05:
                    25:c7:88:85:bf:40:7e:7e:77:2f:05:c7:6a:b3:f6:
                    dc:25:eb:f4:aa:e7:e0:46:f0:4a:4f:ff:0c:78:9a:
                    c3:fe:51:d0:2a:f7:c4:32:60:46:22:b1:0e:08:75:
                    c1:61:e1:c0:b9:92:6a:be:09:72:ab:09:ab:86:ac:
                    58:7d
                Exponent: 65537 (0x10001)
                No PSS parameter restrictions
        X509v3 extensions:
            X509v3 Key Usage: critical
                Certificate Sign, CRL Sign
            X509v3 Basic Constraints: critical
                CA:TRUE, pathlen:0
            X509v3 Subject Key Identifier: 
                50:1C:F2:D1:31:13:A9:02:69:1D:BE:E9:19:A5:7D:68:FD:C8:07:77
            X509v3 Authority Key Identifier: 
                keyid:4B:1B:4E:77:F9:44:97:3F:01:A9:F3:D7:87:B1:DF:D1:75:B7:A2:9E

    Signature Algorithm: rsassaPss         
         Hash Algorithm: sha256
         Mask Algorithm: mgf1 with sha256
          Salt Length: 0xDE
         Trailer Field: 0xBC (default)

         09:ee:b8:2b:ef:6d:38:9b:85:ed:c2:24:23:8f:10:48:12:2d:
         7e:4b:1f:37:4e:af:db:54:7f:fa:25:0c:15:0c:f2:c5:33:10:
         d9:ac:aa:5a:78:66:92:3e:eb:7e:08:8e:e1:cf:e0:f5:10:4a:
         c8:ab:3b:ef:54:fc:d0:02:0f:91:95:cc:57:c6:95:90:98:c5:
         b0:11:62:a0:d0:1b:d6:e7:25:b6:8f:2d:15:e5:68:b8:88:8a:
         12:85:5d:08:c4:ee:76:7d:b9:28:28:41:1f:ff:18:8e:ea:89:
         99:96:1a:99:a7:2f:63:40:1d:7a:a4:71:7c:87:83:a6:bf:2c:
         3f:17:45:50:53:cd:c5:71:44:19:da:86:2d:d9:6e:dc:e3:02:
         7b:04:0e:2b:10:32:da:22:8b:54:51:d8:fe:2b:a5:d9:bb:0d:
         52:29:3e:7f:d4:07:76:40:22:cc:49:3b:4e:e5:cc:25:36:10:
         8c:ae:02:53:b1:04:09:7f:25:27:24:97:18:07:c9:e9:c3:81:
         47:f8:f3:99:4c:b7:f0:bb:69:1d:63:c9:7d:d9:6f:f7:c1:8f:
         a1:d5:c0:c1:8e:6e:52:9b:3b:f3:7e:78:6f:5a:79:6b:81:d8:
         a4:85:24:60:17:bc:75:da:e1:87:e5:dc:21:32:78:ac:09:9f:
         98:c5:95:65
-----BEGIN CERTIFICATE-----
MIIEIzCCAtqgAwIBAgIBAjA+BgkqhkiG9w0BAQowMaANMAsGCWCGSAFlAwQCAaEa
MBgGCSqGSIb3DQEBCDALBglghkgBZQMEAgGiBAICAN4wdTESMBAGCgmSJomT8ixk
ARkWAmNhMRQwEgYKCZImiZPyLGQBGRYEbGFiNTEZMBcGA1UECgwQTGFiNSBEZXZP
cHMgSW5jLjEPMA0GA1UECwwGRGV2T3BzMR0wGwYDVQQDDBRSb290Q0EgRzAgU2Vs
ZlNpZ25lZDAeFw0yMjA0MjkxNjI2MDFaFw0zMjA0MjgxNjI2MDFaMG0xEjAQBgoJ
kiaJk/IsZAEZFgJjYTEUMBIGCgmSJomT8ixkARkWBGxhYjUxGTAXBgNVBAoMEExh
YjUgRGV2T3BzIEluYy4xDzANBgNVBAsMBkRldk9wczEVMBMGA1UEAwwMU2lnbmlu
Z0NBIEcxMIIBIDALBgkqhkiG9w0BAQoDggEPADCCAQoCggEBALWTlBAgADZEI/r+
mkDM8DJt7s6Cf1AlytAqFP/+C75ID6O80lrcGcj3ZrLtzCEfU/x70CAK58BGQDUO
mx6/Vv7YrAvbE+kGFfTJ+qay5wORbIemInqCTii0yQzkKyCkQTP+cAE9iO55Sg/l
JZRXSYVOd5af/sYHXebFTGyMHtWSpX3Zu8ZU4sjnm5pK8eW6dXrk7qo+31+d8TXG
vP0SrkLM7n/aSSKofRMBYa2KIaDpSxbsI08rEZ1x2Th1WESgx6wFJceIhb9Afn53
LwXHarP23CXr9Krn4EbwSk//DHiaw/5R0Cr3xDJgRiKxDgh1wWHhwLmSar4JcqsJ
q4asWH0CAwEAAaNmMGQwDgYDVR0PAQH/BAQDAgEGMBIGA1UdEwEB/wQIMAYBAf8C
AQAwHQYDVR0OBBYEFFAc8tExE6kCaR2+6RmlfWj9yAd3MB8GA1UdIwQYMBaAFEsb
Tnf5RJc/Aanz14ex39F1t6KeMD4GCSqGSIb3DQEBCjAxoA0wCwYJYIZIAWUDBAIB
oRowGAYJKoZIhvcNAQEIMAsGCWCGSAFlAwQCAaIEAgIA3gOCAQEACe64K+9tOJuF
7cIkI48QSBItfksfN06v21R/+iUMFQzyxTMQ2ayqWnhmkj7rfgiO4c/g9RBKyKs7
71T80AIPkZXMV8aVkJjFsBFioNAb1uclto8tFeVouIiKEoVdCMTudn25KChBH/8Y
juqJmZYamacvY0AdeqRxfIeDpr8sPxdFUFPNxXFEGdqGLdlu3OMCewQOKxAy2iKL
VFHY/iul2bsNUik+f9QHdkAizEk7TuXMJTYQjK4CU7EECX8lJySXGAfJ6cOBR/jz
mUy38LtpHWPJfdlv98GPodXAwY5uUps78354b1p5a4HYpIUkYBe8ddrhh+XcITJ4
rAmfmMWVZQ==
-----END CERTIFICATE-----
