Certificate:
    Data:
        Version: 3 (0x2)
        Serial Number: 2 (0x2)
        Signature Algorithm: sha256WithRSAEncryption
        Issuer: DC=ca, DC=lab5, O=Lab5 DevOps Inc., OU=www.lab5.ca, CN=Root CA G1
        Validity
            Not Before: May 29 13:52:42 2022 GMT
            Not After : May 28 13:52:42 2032 GMT
        Subject: DC=ca, DC=lab5, O=Lab5 DevOps Inc., OU=www.lab5.ca, CN=Issuing CA G1
        Subject Public Key Info:
            Public Key Algorithm: rsaEncryption
                RSA Public-Key: (2048 bit)
                Modulus:
                    00:ac:36:8d:95:6c:79:d2:a2:cc:14:c2:c7:3b:1d:
                    61:6b:f4:40:d6:d4:42:7e:cf:bd:af:d7:75:2b:5a:
                    4c:20:de:f5:81:9b:8d:ba:ef:f1:2e:53:61:98:9d:
                    99:cf:d4:18:07:52:cd:40:02:c5:95:0e:c3:03:98:
                    1a:5a:08:e1:94:44:95:48:de:ac:75:b8:21:bc:66:
                    6d:52:79:31:24:33:2f:0c:e8:a5:67:b2:1d:77:ac:
                    f3:63:be:0c:d0:fc:3c:40:b1:83:b0:19:4d:f0:04:
                    d4:f4:03:24:c2:5f:02:9e:1c:73:1a:6c:fa:73:1f:
                    1e:16:9c:c0:c7:b0:a6:46:3e:57:63:30:48:cf:00:
                    20:97:a6:bf:06:61:8c:d6:b8:d3:e6:88:af:b1:8b:
                    77:95:6a:dc:e5:d9:28:0f:92:72:8a:9a:e9:02:7c:
                    68:72:a9:2f:0c:50:66:5e:01:95:36:74:f0:15:f3:
                    00:91:74:4c:c8:93:0e:07:c6:7d:3a:03:05:35:f0:
                    28:c5:66:ab:a7:68:05:e4:9f:68:ba:03:ea:a2:57:
                    8c:c3:b9:de:2d:2a:ae:09:9c:cf:57:ed:54:90:36:
                    ba:cf:28:89:fb:c0:8f:95:86:c6:f4:2b:c1:2f:90:
                    9b:fc:9a:a4:8b:99:bb:fb:97:9e:3d:78:b4:58:06:
                    97:cb
                Exponent: 65537 (0x10001)
        X509v3 extensions:
            X509v3 Key Usage: critical
                Certificate Sign, CRL Sign
            X509v3 Basic Constraints: critical
                CA:TRUE, pathlen:0
            X509v3 Subject Key Identifier: 
                FE:35:81:B6:F5:90:C2:B0:C2:03:C0:85:05:5D:1C:A1:EF:98:98:76
            X509v3 Authority Key Identifier: 
                keyid:3F:35:67:A3:12:2D:7B:A3:F6:9F:94:4D:26:D7:D4:F2:57:2B:24:58

    Signature Algorithm: sha256WithRSAEncryption
         2b:43:db:c1:79:de:84:8f:5e:cb:33:50:42:d2:4a:35:09:87:
         25:18:6f:7d:ed:7d:78:c0:fa:7f:29:e6:20:8b:e1:ff:b5:9f:
         a4:a5:21:fe:13:18:5e:df:19:bb:15:e1:11:81:8a:d3:67:7c:
         09:5e:f1:88:fa:42:38:88:91:2d:af:1d:43:b0:84:e7:4f:21:
         f4:b1:5d:03:a6:ca:71:2c:03:87:da:cf:25:81:02:74:69:14:
         f9:66:ca:0a:77:5c:c9:63:20:54:b9:fa:cf:4a:92:70:25:ec:
         5e:a5:b1:16:3e:de:55:b0:a2:47:9e:0c:84:ed:63:5a:5b:4f:
         60:2c:7b:c3:e6:ad:e4:49:07:cc:94:9c:ea:a4:01:61:93:5a:
         06:7c:8e:85:bc:32:39:54:93:d0:2e:5a:a5:e4:7c:10:a4:bd:
         84:a8:7c:3e:04:3c:f8:a8:09:c1:ab:45:07:cd:81:57:60:5d:
         6b:66:89:ed:c4:85:f5:55:3f:77:23:b5:02:f3:0a:af:97:14:
         0e:b0:3d:48:47:cd:e0:36:03:ca:58:a0:89:52:d4:ae:7b:4c:
         a8:af:81:1f:c1:f3:0a:f8:f9:43:62:8e:97:c9:50:a8:e6:e9:
         bc:95:ad:25:bd:9e:8a:77:dc:f9:f9:3f:b0:64:5d:21:4c:2c:
         d6:6c:b1:d8
-----BEGIN CERTIFICATE-----
MIIDxDCCAqygAwIBAgIBAjANBgkqhkiG9w0BAQsFADBwMRIwEAYKCZImiZPyLGQB
GRYCY2ExFDASBgoJkiaJk/IsZAEZFgRsYWI1MRkwFwYDVQQKDBBMYWI1IERldk9w
cyBJbmMuMRQwEgYDVQQLDAt3d3cubGFiNS5jYTETMBEGA1UEAwwKUm9vdCBDQSBH
MTAeFw0yMjA1MjkxMzUyNDJaFw0zMjA1MjgxMzUyNDJaMHMxEjAQBgoJkiaJk/Is
ZAEZFgJjYTEUMBIGCgmSJomT8ixkARkWBGxhYjUxGTAXBgNVBAoMEExhYjUgRGV2
T3BzIEluYy4xFDASBgNVBAsMC3d3dy5sYWI1LmNhMRYwFAYDVQQDDA1Jc3N1aW5n
IENBIEcxMIIBIjANBgkqhkiG9w0BAQEFAAOCAQ8AMIIBCgKCAQEArDaNlWx50qLM
FMLHOx1ha/RA1tRCfs+9r9d1K1pMIN71gZuNuu/xLlNhmJ2Zz9QYB1LNQALFlQ7D
A5gaWgjhlESVSN6sdbghvGZtUnkxJDMvDOilZ7Idd6zzY74M0Pw8QLGDsBlN8ATU
9AMkwl8CnhxzGmz6cx8eFpzAx7CmRj5XYzBIzwAgl6a/BmGM1rjT5oivsYt3lWrc
5dkoD5JyiprpAnxocqkvDFBmXgGVNnTwFfMAkXRMyJMOB8Z9OgMFNfAoxWarp2gF
5J9ougPqoleMw7neLSquCZzPV+1UkDa6zyiJ+8CPlYbG9CvBL5Cb/Jqki5m7+5ee
PXi0WAaXywIDAQABo2YwZDAOBgNVHQ8BAf8EBAMCAQYwEgYDVR0TAQH/BAgwBgEB
/wIBADAdBgNVHQ4EFgQU/jWBtvWQwrDCA8CFBV0coe+YmHYwHwYDVR0jBBgwFoAU
PzVnoxIte6P2n5RNJtfU8lcrJFgwDQYJKoZIhvcNAQELBQADggEBACtD28F53oSP
XsszUELSSjUJhyUYb33tfXjA+n8p5iCL4f+1n6SlIf4TGF7fGbsV4RGBitNnfAle
8Yj6QjiIkS2vHUOwhOdPIfSxXQOmynEsA4fazyWBAnRpFPlmygp3XMljIFS5+s9K
knAl7F6lsRY+3lWwokeeDITtY1pbT2Ase8PmreRJB8yUnOqkAWGTWgZ8joW8MjlU
k9AuWqXkfBCkvYSofD4EPPioCcGrRQfNgVdgXWtmie3EhfVVP3cjtQLzCq+XFA6w
PUhHzeA2A8pYoIlS1K57TKivgR/B8wr4+UNijpfJUKjm6byVrSW9nop33Pn5P7Bk
XSFMLNZssdg=
-----END CERTIFICATE-----
