Certificate:
    Data:
        Version: 3 (0x2)
        Serial Number: 2 (0x2)
        Signature Algorithm: sha256WithRSAEncryption
        Issuer: DC=ca, DC=lab5, O=Lab5 DevOps Inc., OU=www.lab5.ca, CN=Lab5 DevOps Inc. Root CA
        Validity
            Not Before: Oct  2 17:22:51 2022 GMT
            Not After : Oct  1 17:22:51 2032 GMT
        Subject: DC=ca, DC=lab5, O=Lab5 DevOps Inc., OU=www.lab5.ca, CN=Lab5 DevOps Inc. Issuing CA
        Subject Public Key Info:
            Public Key Algorithm: rsaEncryption
                Public-Key: (2048 bit)
                Modulus:
                    00:a7:44:3b:5d:b5:81:ab:44:3c:56:5f:2b:f1:20:
                    37:b9:f6:b6:c2:f0:bd:1d:32:ed:f0:e2:29:ed:0d:
                    49:e0:1a:5c:cf:58:59:27:92:fb:87:1a:24:d3:47:
                    0a:76:76:45:eb:a1:37:9f:75:bc:2a:d2:92:df:8a:
                    23:7d:43:a4:be:ca:2a:08:b3:29:f6:a1:4d:fe:0b:
                    74:4e:6a:5b:a2:de:f1:fc:00:86:c0:88:ff:4a:91:
                    c9:fe:da:00:1f:0b:b8:8d:92:c4:75:12:48:ed:8d:
                    10:bd:2c:36:28:2b:65:81:11:37:b8:2e:2e:75:60:
                    9f:c6:d6:bf:4d:74:53:3b:f9:0d:4e:73:8e:12:ab:
                    bd:86:0f:43:f0:50:61:f0:e4:ed:99:4f:c4:db:d6:
                    58:48:11:94:18:92:6e:35:61:13:54:f0:85:46:be:
                    e4:87:28:28:65:c1:b3:a0:d1:10:72:d0:fa:c5:06:
                    78:f4:0b:e6:5b:0a:8d:8d:fd:ec:0b:e9:d7:ec:5d:
                    42:a1:16:24:e2:a1:24:ff:af:cf:95:1a:71:52:b1:
                    01:66:81:ec:b9:2e:dd:05:fc:b6:cb:57:3a:a6:d6:
                    a8:5b:f4:fc:73:60:06:dd:e6:25:56:45:54:95:4c:
                    8c:eb:c7:b8:e9:f7:4f:52:0e:24:e0:3e:41:ec:71:
                    6b:1d
                Exponent: 65537 (0x10001)
        X509v3 extensions:
            X509v3 Key Usage: critical
                Certificate Sign, CRL Sign
            X509v3 Basic Constraints: critical
                CA:TRUE, pathlen:0
            X509v3 Subject Key Identifier: 
                30:81:05:C9:07:09:3A:DB:F6:A0:B9:1B:C6:C5:8D:FC:D2:23:D2:B6
            X509v3 Authority Key Identifier: 
                7D:C2:C7:34:13:4F:0B:56:7B:F2:10:8D:92:49:EA:A4:45:A2:4E:8B
    Signature Algorithm: sha256WithRSAEncryption
    Signature Value:
        63:01:c3:b5:25:86:00:70:40:1a:17:e1:3f:b9:ea:9e:8c:bb:
        c1:5f:4e:f8:ff:2b:76:bd:d7:e4:30:cd:5f:ef:9a:80:ea:f7:
        ed:77:28:43:25:77:73:27:61:53:1d:fd:50:16:c4:15:33:db:
        a0:85:31:ed:36:aa:f2:fb:cf:8a:0f:17:d2:e9:3a:5c:83:3a:
        51:4b:44:c5:a5:10:a3:7b:c0:19:3c:e0:4f:ed:c4:1b:49:83:
        ce:91:22:5d:4b:2e:fa:49:92:72:e3:c3:02:28:2f:7c:4d:62:
        a5:4e:bc:3d:4c:26:88:ce:8d:2f:c9:cc:25:7a:0f:26:bc:2f:
        44:48:32:74:3c:b7:31:ca:2b:51:85:b6:45:c5:aa:0b:94:3d:
        c2:f9:95:2f:1e:de:1f:43:f5:7e:be:17:2a:91:e4:d1:96:b4:
        92:b6:58:07:93:49:e8:3e:fa:bb:f2:5e:18:36:d4:e6:da:94:
        f1:db:4b:dc:c0:8b:ed:20:5e:90:93:33:e4:ba:92:fb:03:a6:
        1d:5b:cc:19:61:48:19:80:5e:2a:f4:66:31:ac:2a:a9:2f:a3:
        cb:de:7a:02:ee:62:60:6d:9a:e5:b2:15:b3:d3:5a:35:e1:df:
        d1:18:d8:a5:5e:56:a9:71:41:62:c5:da:0c:6e:77:b0:dd:08:
        a9:f8:4e:83
-----BEGIN CERTIFICATE-----
MIID4TCCAsmgAwIBAgIBAjANBgkqhkiG9w0BAQsFADB+MRIwEAYKCZImiZPyLGQB
GRYCY2ExFDASBgoJkiaJk/IsZAEZFgRsYWI1MRkwFwYDVQQKDBBMYWI1IERldk9w
cyBJbmMuMRQwEgYDVQQLDAt3d3cubGFiNS5jYTEhMB8GA1UEAwwYTGFiNSBEZXZP
cHMgSW5jLiBSb290IENBMB4XDTIyMTAwMjE3MjI1MVoXDTMyMTAwMTE3MjI1MVow
gYExEjAQBgoJkiaJk/IsZAEZFgJjYTEUMBIGCgmSJomT8ixkARkWBGxhYjUxGTAX
BgNVBAoMEExhYjUgRGV2T3BzIEluYy4xFDASBgNVBAsMC3d3dy5sYWI1LmNhMSQw
IgYDVQQDDBtMYWI1IERldk9wcyBJbmMuIElzc3VpbmcgQ0EwggEiMA0GCSqGSIb3
DQEBAQUAA4IBDwAwggEKAoIBAQCnRDtdtYGrRDxWXyvxIDe59rbC8L0dMu3w4int
DUngGlzPWFknkvuHGiTTRwp2dkXroTefdbwq0pLfiiN9Q6S+yioIsyn2oU3+C3RO
alui3vH8AIbAiP9Kkcn+2gAfC7iNksR1EkjtjRC9LDYoK2WBETe4Li51YJ/G1r9N
dFM7+Q1Oc44Sq72GD0PwUGHw5O2ZT8Tb1lhIEZQYkm41YRNU8IVGvuSHKChlwbOg
0RBy0PrFBnj0C+ZbCo2N/ewL6dfsXUKhFiTioST/r8+VGnFSsQFmgey5Lt0F/LbL
Vzqm1qhb9PxzYAbd5iVWRVSVTIzrx7jp909SDiTgPkHscWsdAgMBAAGjZjBkMA4G
A1UdDwEB/wQEAwIBBjASBgNVHRMBAf8ECDAGAQH/AgEAMB0GA1UdDgQWBBQwgQXJ
Bwk62/aguRvGxY380iPStjAfBgNVHSMEGDAWgBR9wsc0E08LVnvyEI2SSeqkRaJO
izANBgkqhkiG9w0BAQsFAAOCAQEAYwHDtSWGAHBAGhfhP7nqnoy7wV9O+P8rdr3X
5DDNX++agOr37XcoQyV3cydhUx39UBbEFTPboIUx7Taq8vvPig8X0uk6XIM6UUtE
xaUQo3vAGTzgT+3EG0mDzpEiXUsu+kmScuPDAigvfE1ipU68PUwmiM6NL8nMJXoP
JrwvREgydDy3McorUYW2RcWqC5Q9wvmVLx7eH0P1fr4XKpHk0Za0krZYB5NJ6D76
u/JeGDbU5tqU8dtL3MCL7SBekJMz5LqS+wOmHVvMGWFIGYBeKvRmMawqqS+jy956
Au5iYG2a5bIVs9NaNeHf0RjYpV5WqXFBYsXaDG53sN0IqfhOgw==
-----END CERTIFICATE-----
