Certificate:
    Data:
        Version: 3 (0x2)
        Serial Number: 2 (0x2)
        Signature Algorithm: sha256WithRSAEncryption
        Issuer: DC=ca, DC=lab5, O=Lab5 DevOps Inc., OU=www.lab5.ca, CN=Root CA G1
        Validity
            Not Before: Jun 25 14:04:14 2022 GMT
            Not After : Jun 24 14:04:14 2032 GMT
        Subject: DC=ca, DC=lab5, O=Lab5 DevOps Inc., OU=www.lab5.ca, CN=Issuing CA G1
        Subject Public Key Info:
            Public Key Algorithm: rsaEncryption
                RSA Public-Key: (2048 bit)
                Modulus:
                    00:9a:7b:ee:ff:6e:e9:83:06:54:2f:b3:e0:bc:e9:
                    38:d6:17:05:d2:ab:85:0e:45:76:51:a0:34:b9:7a:
                    43:e4:cd:b9:7e:3a:9b:e5:a4:b1:7d:00:f0:43:61:
                    58:f4:49:27:d5:05:65:c2:8c:40:93:81:1f:4c:6f:
                    41:ee:47:f7:59:fa:bb:ce:a5:44:18:01:d3:8a:5f:
                    ab:d3:a7:ed:65:cf:a9:89:52:60:76:e3:99:25:cc:
                    b4:55:e5:eb:6d:ee:53:f6:fa:6e:c1:14:73:a5:31:
                    e3:70:b7:02:45:8f:5a:12:a9:cd:8f:a2:6f:ca:8e:
                    7d:0b:c9:3a:07:ca:9a:4e:36:91:ff:43:fe:42:37:
                    d1:51:52:d6:20:88:e2:78:da:be:09:fb:05:a8:89:
                    53:4e:85:22:fc:b3:84:48:a6:0f:50:cd:b0:27:41:
                    c4:13:2d:fa:41:a8:70:00:f7:cd:11:b5:ab:8d:67:
                    97:0c:73:ea:97:66:c2:1a:74:4b:b3:dc:77:24:07:
                    1c:cb:c5:b2:58:c2:cb:b3:30:f0:dd:91:12:ff:40:
                    f4:30:18:d9:2b:51:f4:c4:54:3e:e5:be:77:6b:43:
                    b9:2b:f0:14:f0:2f:93:c0:ea:ab:b9:81:bc:26:c8:
                    a9:98:37:89:b3:53:14:26:bd:6e:ce:4f:66:1c:35:
                    a2:bb
                Exponent: 65537 (0x10001)
        X509v3 extensions:
            X509v3 Key Usage: critical
                Certificate Sign, CRL Sign
            X509v3 Basic Constraints: critical
                CA:TRUE, pathlen:0
            X509v3 Subject Key Identifier: 
                D8:9B:C7:36:1E:CD:6D:A7:6C:7B:FE:FA:C5:CA:D8:5F:99:EF:CF:2A
            X509v3 Authority Key Identifier: 
                keyid:A5:DF:57:DF:2E:F6:39:AF:2F:0E:01:5C:F2:9D:AA:C2:4E:15:C8:50

    Signature Algorithm: sha256WithRSAEncryption
         8d:36:52:ca:de:03:cf:c0:58:1e:51:41:26:84:dd:aa:ba:f9:
         8d:24:a5:d8:ef:50:d8:f3:eb:37:01:33:73:19:7e:8b:fd:ba:
         b0:f5:03:03:74:9c:81:22:b5:41:2c:96:55:a6:70:f5:73:7a:
         5d:d1:a8:0f:05:33:6d:14:cc:a3:1a:7b:cf:9e:e8:1a:b7:68:
         f5:e8:e8:22:3b:8f:b1:8b:2e:29:4b:b4:d0:06:ab:fa:cf:20:
         b1:d9:77:68:ed:f4:73:04:31:88:7e:c2:0d:f6:42:0d:df:ac:
         9f:21:0c:e2:ea:ff:a4:54:96:dd:25:c6:37:d0:0e:e0:e8:ba:
         92:70:8d:18:76:c3:34:b5:b8:df:fc:e4:e1:f9:31:cb:16:19:
         23:a5:a6:56:bf:5f:c7:54:76:6c:27:5a:74:e2:c3:42:24:e6:
         8b:6f:9b:b0:8a:03:5e:ee:31:f0:35:6f:a0:52:1f:10:94:22:
         67:8b:3d:fd:c8:9d:00:cc:b0:ac:64:9f:5b:be:ec:fd:f0:73:
         56:00:5d:31:e2:33:e1:e3:64:1b:ec:c1:11:f3:fd:ec:01:03:
         ca:45:7c:e0:fc:dc:f3:27:01:74:c3:89:77:7d:1f:b1:bf:f9:
         d2:08:28:64:60:da:21:1a:49:e0:ab:41:54:a0:be:b3:66:2a:
         4d:e1:05:54
-----BEGIN CERTIFICATE-----
MIIDxDCCAqygAwIBAgIBAjANBgkqhkiG9w0BAQsFADBwMRIwEAYKCZImiZPyLGQB
GRYCY2ExFDASBgoJkiaJk/IsZAEZFgRsYWI1MRkwFwYDVQQKDBBMYWI1IERldk9w
cyBJbmMuMRQwEgYDVQQLDAt3d3cubGFiNS5jYTETMBEGA1UEAwwKUm9vdCBDQSBH
MTAeFw0yMjA2MjUxNDA0MTRaFw0zMjA2MjQxNDA0MTRaMHMxEjAQBgoJkiaJk/Is
ZAEZFgJjYTEUMBIGCgmSJomT8ixkARkWBGxhYjUxGTAXBgNVBAoMEExhYjUgRGV2
T3BzIEluYy4xFDASBgNVBAsMC3d3dy5sYWI1LmNhMRYwFAYDVQQDDA1Jc3N1aW5n
IENBIEcxMIIBIjANBgkqhkiG9w0BAQEFAAOCAQ8AMIIBCgKCAQEAmnvu/27pgwZU
L7PgvOk41hcF0quFDkV2UaA0uXpD5M25fjqb5aSxfQDwQ2FY9Ekn1QVlwoxAk4Ef
TG9B7kf3Wfq7zqVEGAHTil+r06ftZc+piVJgduOZJcy0VeXrbe5T9vpuwRRzpTHj
cLcCRY9aEqnNj6Jvyo59C8k6B8qaTjaR/0P+QjfRUVLWIIjieNq+CfsFqIlTToUi
/LOESKYPUM2wJ0HEEy36QahwAPfNEbWrjWeXDHPql2bCGnRLs9x3JAccy8WyWMLL
szDw3ZES/0D0MBjZK1H0xFQ+5b53a0O5K/AU8C+TwOqruYG8JsipmDeJs1MUJr1u
zk9mHDWiuwIDAQABo2YwZDAOBgNVHQ8BAf8EBAMCAQYwEgYDVR0TAQH/BAgwBgEB
/wIBADAdBgNVHQ4EFgQU2JvHNh7Nbadse/76xcrYX5nvzyowHwYDVR0jBBgwFoAU
pd9X3y72Oa8vDgFc8p2qwk4VyFAwDQYJKoZIhvcNAQELBQADggEBAI02UsreA8/A
WB5RQSaE3aq6+Y0kpdjvUNjz6zcBM3MZfov9urD1AwN0nIEitUEsllWmcPVzel3R
qA8FM20UzKMae8+e6Bq3aPXo6CI7j7GLLilLtNAGq/rPILHZd2jt9HMEMYh+wg32
Qg3frJ8hDOLq/6RUlt0lxjfQDuDoupJwjRh2wzS1uN/85OH5McsWGSOlpla/X8dU
dmwnWnTiw0Ik5otvm7CKA17uMfA1b6BSHxCUImeLPf3InQDMsKxkn1u+7P3wc1YA
XTHiM+HjZBvswRHz/ewBA8pFfOD83PMnAXTDiXd9H7G/+dIIKGRg2iEaSeCrQVSg
vrNmKk3hBVQ=
-----END CERTIFICATE-----
