Certificate:
    Data:
        Version: 3 (0x2)
        Serial Number: 2 (0x2)
        Signature Algorithm: ED25519
        Issuer: DC=ca, DC=lab5, O=Lab5 DevOps Inc., OU=www.lab5.ca, CN=Lab5 DevOps Inc. Root CA
        Validity
            Not Before: Jun 12 11:39:41 2023 GMT
            Not After : Jun 11 11:39:41 2033 GMT
        Subject: DC=ca, DC=lab5, O=Lab5 DevOps Inc., OU=www.lab5.ca, CN=Lab5 DevOps Inc. Issuing CA
        Subject Public Key Info:
            Public Key Algorithm: ED25519
                ED25519 Public-Key:
                pub:
                    0f:67:79:d4:ae:a5:a4:4c:6b:52:6c:63:50:5d:0c:
                    a8:16:1e:10:cd:55:57:9e:5b:c4:07:c0:b3:22:b5:
                    a0:80
        X509v3 extensions:
            X509v3 Key Usage: critical
                Certificate Sign, CRL Sign
            X509v3 Basic Constraints: critical
                CA:TRUE, pathlen:0
            X509v3 Subject Key Identifier: 
                DD:B9:17:4D:CE:8A:E1:4F:85:A4:5B:B1:48:D2:1C:E1:AA:C8:1E:1E
            X509v3 Authority Key Identifier: 
                27:8F:75:E7:AF:E8:2E:EA:39:4C:38:55:67:76:BE:BE:22:32:B5:A8
    Signature Algorithm: ED25519
    Signature Value:
        eb:9c:3a:ab:ef:14:d5:c3:91:17:c3:c3:ad:53:56:ae:3a:d3:
        46:6f:30:ba:0b:a6:a1:42:6d:3d:30:0a:13:a3:c2:69:b2:2a:
        02:e1:f1:74:a5:57:54:29:29:b9:e4:f4:85:53:3b:6b:92:1c:
        43:6f:de:d9:ba:ac:ba:c4:90:0e
-----BEGIN CERTIFICATE-----
MIICFTCCAcegAwIBAgIBAjAFBgMrZXAwfjESMBAGCgmSJomT8ixkARkWAmNhMRQw
EgYKCZImiZPyLGQBGRYEbGFiNTEZMBcGA1UECgwQTGFiNSBEZXZPcHMgSW5jLjEU
MBIGA1UECwwLd3d3LmxhYjUuY2ExITAfBgNVBAMMGExhYjUgRGV2T3BzIEluYy4g
Um9vdCBDQTAeFw0yMzA2MTIxMTM5NDFaFw0zMzA2MTExMTM5NDFaMIGBMRIwEAYK
CZImiZPyLGQBGRYCY2ExFDASBgoJkiaJk/IsZAEZFgRsYWI1MRkwFwYDVQQKDBBM
YWI1IERldk9wcyBJbmMuMRQwEgYDVQQLDAt3d3cubGFiNS5jYTEkMCIGA1UEAwwb
TGFiNSBEZXZPcHMgSW5jLiBJc3N1aW5nIENBMCowBQYDK2VwAyEAD2d51K6lpExr
UmxjUF0MqBYeEM1VV55bxAfAsyK1oICjZjBkMA4GA1UdDwEB/wQEAwIBBjASBgNV
HRMBAf8ECDAGAQH/AgEAMB0GA1UdDgQWBBTduRdNzorhT4WkW7FI0hzhqsgeHjAf
BgNVHSMEGDAWgBQnj3Xnr+gu6jlMOFVndr6+IjK1qDAFBgMrZXADQQDrnDqr7xTV
w5EXw8OtU1auOtNGbzC6C6ahQm09MAoTo8JpsioC4fF0pVdUKSm55PSFUztrkhxD
b97Zuqy6xJAO
-----END CERTIFICATE-----
