Certificate:
    Data:
        Version: 3 (0x2)
        Serial Number: 2 (0x2)
        Signature Algorithm: sha256WithRSAEncryption
        Issuer: DC=ca, DC=lab5, O=Lab5 DevOps Inc., OU=www.lab5.ca, CN=Lab5 DevOps Inc. Root CA
        Validity
            Not Before: Dec  9 16:16:36 2022 GMT
            Not After : Dec  8 16:16:36 2032 GMT
        Subject: DC=ca, DC=lab5, O=Lab5 DevOps Inc., OU=www.lab5.ca, CN=Lab5 DevOps Inc. Issuing CA
        Subject Public Key Info:
            Public Key Algorithm: rsaEncryption
                Public-Key: (2048 bit)
                Modulus:
                    00:ea:64:48:b3:9d:f7:5f:35:8e:d6:49:d1:cf:57:
                    a9:93:8f:64:cb:4b:b0:37:b9:dc:d3:2f:b4:db:d9:
                    83:fd:18:5a:78:b0:3c:e5:14:08:57:03:9b:d1:33:
                    f4:76:6a:e3:a8:36:d6:7c:cb:5a:ba:b9:d1:59:89:
                    f8:d3:52:43:4d:c0:8a:3e:9a:45:1f:2b:ac:2f:7c:
                    cd:23:c7:3a:12:e7:21:56:6e:35:5e:f0:3d:ca:ad:
                    6c:c9:16:47:d0:b7:50:52:d2:57:2b:4e:e9:bb:44:
                    b0:2f:b1:fd:b4:20:58:f2:ea:48:55:f2:f9:fa:41:
                    17:15:df:9c:f7:81:f7:ed:1d:5f:6f:9e:41:48:da:
                    45:75:77:00:31:be:a8:f1:c4:87:d2:06:94:89:af:
                    1c:f5:6e:74:28:56:2b:1f:63:22:33:15:69:87:1b:
                    52:6c:03:df:57:94:34:a1:82:7d:76:a6:f6:e0:ba:
                    c6:e7:ee:56:49:de:a8:da:c4:1f:7d:44:7f:b5:7b:
                    b9:e4:f6:0f:d3:8c:16:39:ee:ed:03:e8:b3:c0:41:
                    6a:ba:34:f7:bb:11:52:75:8e:a4:86:83:15:e0:22:
                    33:2b:0b:d6:1e:4a:cc:39:77:94:71:aa:29:a2:5c:
                    5b:e4:2e:7f:4e:72:e2:e4:9d:3d:1d:67:2a:6f:ea:
                    4c:cb
                Exponent: 65537 (0x10001)
        X509v3 extensions:
            X509v3 Key Usage: critical
                Certificate Sign, CRL Sign
            X509v3 Basic Constraints: critical
                CA:TRUE, pathlen:0
            X509v3 Subject Key Identifier: 
                72:8D:C3:15:FA:A1:A8:FD:14:5B:BB:5C:1A:05:FB:57:A6:2C:6D:74
            X509v3 Authority Key Identifier: 
                9E:B6:3B:A6:7C:F0:C9:B6:8C:86:2F:4C:52:F1:2E:B5:9F:26:50:27
    Signature Algorithm: sha256WithRSAEncryption
    Signature Value:
        a3:14:0c:6a:86:f2:cd:74:a4:51:d1:93:b9:4c:88:55:83:ef:
        84:26:98:fb:06:b0:01:4b:2e:a4:9d:a2:f7:66:95:27:62:e3:
        8b:13:cd:61:07:41:62:ff:f7:7f:78:78:bc:93:2f:d3:ff:ff:
        ea:8f:23:44:ba:bf:6e:6b:a3:44:87:b8:4d:af:1d:f1:d3:13:
        95:15:76:de:c7:69:e1:2c:4c:bc:8f:fa:0a:a0:e4:06:7f:53:
        97:a0:22:7b:7c:b7:05:9d:95:9c:eb:dd:db:81:21:d7:8d:48:
        ce:da:33:b8:aa:78:23:9d:45:78:9c:26:af:85:a3:a0:e6:a2:
        bf:70:f3:9b:04:32:aa:44:82:16:34:00:4a:04:39:aa:f7:a6:
        f9:72:82:16:29:7a:6e:d6:92:cd:b4:31:2b:85:78:37:f2:8e:
        5d:94:31:b5:96:f4:77:44:06:f0:e9:73:41:eb:53:8b:5f:27:
        a1:f2:7b:4f:0e:c9:cf:b9:55:b5:eb:79:3e:03:33:6e:be:36:
        a3:36:83:c8:67:71:74:c3:91:c1:0a:ea:b9:ab:72:23:37:ae:
        a2:4d:e6:4f:e4:1d:cf:c1:a1:86:60:13:aa:59:f3:df:3f:e2:
        61:04:29:ac:c1:a5:29:63:d8:fe:37:74:4a:9b:c0:34:5d:5e:
        02:fe:67:86
-----BEGIN CERTIFICATE-----
MIID4TCCAsmgAwIBAgIBAjANBgkqhkiG9w0BAQsFADB+MRIwEAYKCZImiZPyLGQB
GRYCY2ExFDASBgoJkiaJk/IsZAEZFgRsYWI1MRkwFwYDVQQKDBBMYWI1IERldk9w
cyBJbmMuMRQwEgYDVQQLDAt3d3cubGFiNS5jYTEhMB8GA1UEAwwYTGFiNSBEZXZP
cHMgSW5jLiBSb290IENBMB4XDTIyMTIwOTE2MTYzNloXDTMyMTIwODE2MTYzNlow
gYExEjAQBgoJkiaJk/IsZAEZFgJjYTEUMBIGCgmSJomT8ixkARkWBGxhYjUxGTAX
BgNVBAoMEExhYjUgRGV2T3BzIEluYy4xFDASBgNVBAsMC3d3dy5sYWI1LmNhMSQw
IgYDVQQDDBtMYWI1IERldk9wcyBJbmMuIElzc3VpbmcgQ0EwggEiMA0GCSqGSIb3
DQEBAQUAA4IBDwAwggEKAoIBAQDqZEiznfdfNY7WSdHPV6mTj2TLS7A3udzTL7Tb
2YP9GFp4sDzlFAhXA5vRM/R2auOoNtZ8y1q6udFZifjTUkNNwIo+mkUfK6wvfM0j
xzoS5yFWbjVe8D3KrWzJFkfQt1BS0lcrTum7RLAvsf20IFjy6khV8vn6QRcV35z3
gfftHV9vnkFI2kV1dwAxvqjxxIfSBpSJrxz1bnQoVisfYyIzFWmHG1JsA99XlDSh
gn12pvbgusbn7lZJ3qjaxB99RH+1e7nk9g/TjBY57u0D6LPAQWq6NPe7EVJ1jqSG
gxXgIjMrC9YeSsw5d5RxqimiXFvkLn9OcuLknT0dZypv6kzLAgMBAAGjZjBkMA4G
A1UdDwEB/wQEAwIBBjASBgNVHRMBAf8ECDAGAQH/AgEAMB0GA1UdDgQWBBRyjcMV
+qGo/RRbu1waBftXpixtdDAfBgNVHSMEGDAWgBSetjumfPDJtoyGL0xS8S61nyZQ
JzANBgkqhkiG9w0BAQsFAAOCAQEAoxQMaobyzXSkUdGTuUyIVYPvhCaY+wawAUsu
pJ2i92aVJ2LjixPNYQdBYv/3f3h4vJMv0///6o8jRLq/bmujRIe4Ta8d8dMTlRV2
3sdp4SxMvI/6CqDkBn9Tl6Aie3y3BZ2VnOvd24Eh141IztozuKp4I51FeJwmr4Wj
oOaiv3DzmwQyqkSCFjQASgQ5qvem+XKCFil6btaSzbQxK4V4N/KOXZQxtZb0d0QG
8OlzQetTi18nofJ7Tw7Jz7lVtet5PgMzbr42ozaDyGdxdMORwQrquatyIzeuok3m
T+Qdz8GhhmATqlnz3z/iYQQprMGlKWPY/jd0SpvANF1eAv5nhg==
-----END CERTIFICATE-----
