Certificate:
    Data:
        Version: 3 (0x2)
        Serial Number: 2 (0x2)
        Signature Algorithm: sha256WithRSAEncryption
        Issuer: DC=ca, DC=lab5, O=Lab5 DevOps Inc., OU=www.lab5.ca, CN=Root CA G1
        Validity
            Not Before: May  1 14:59:34 2022 GMT
            Not After : Apr 30 14:59:34 2032 GMT
        Subject: DC=ca, DC=lab5, O=Lab5 DevOps Inc., OU=www.lab5.ca, CN=Issuing CA G1
        Subject Public Key Info:
            Public Key Algorithm: rsaEncryption
                RSA Public-Key: (2048 bit)
                Modulus:
                    00:c5:1b:09:7c:ce:bc:a4:d1:6c:58:04:47:c7:1c:
                    b8:8b:c2:c8:69:d4:48:6b:9d:6e:95:12:a4:8b:80:
                    88:fc:66:93:c6:d0:90:0b:8a:c1:14:00:02:1e:80:
                    b7:cd:57:cf:af:66:f0:1a:5b:eb:38:6b:1d:06:08:
                    35:a6:3e:29:8d:51:eb:79:a7:20:89:7e:c5:d4:c0:
                    50:4e:59:65:42:2d:6d:fa:3a:ea:7a:0a:ff:8e:b4:
                    ff:46:d3:49:6b:08:b7:2d:74:fe:72:3f:d1:2b:63:
                    db:e3:3c:0a:13:ce:b9:f9:43:58:d3:2d:df:ff:3a:
                    10:be:ca:97:09:bb:c5:fe:67:22:41:f7:24:ae:54:
                    17:84:8d:4a:ab:e8:9f:c5:13:c4:f5:28:ad:74:77:
                    3b:8c:e2:66:bf:04:ec:c4:0b:69:f3:b7:d2:16:f2:
                    8b:cf:76:e1:93:83:be:e2:69:6e:4b:5b:74:44:b9:
                    8a:90:a9:67:a1:06:26:41:9a:d6:7a:f3:0d:6a:22:
                    53:dd:ec:44:6b:8f:05:07:a8:c3:bf:06:94:7d:c5:
                    3c:89:86:0b:78:fe:3b:59:eb:08:c9:9f:69:a8:1b:
                    d3:ef:a2:cc:26:f9:dc:c8:fa:6d:f3:4c:9a:1c:32:
                    fa:9d:89:99:6e:55:ee:6d:b8:ea:c5:96:f5:f3:53:
                    d2:d9
                Exponent: 65537 (0x10001)
        X509v3 extensions:
            X509v3 Key Usage: critical
                Certificate Sign, CRL Sign
            X509v3 Basic Constraints: critical
                CA:TRUE, pathlen:0
            X509v3 Subject Key Identifier: 
                B3:92:66:CC:E2:8F:C6:DB:91:27:E2:83:96:33:4A:55:FD:50:22:77
            X509v3 Authority Key Identifier: 
                keyid:C1:86:BB:7E:1B:F8:85:87:68:DF:75:C0:FA:47:67:53:94:2B:D3:DD

    Signature Algorithm: sha256WithRSAEncryption
         9d:5a:a5:33:fd:90:3a:1e:18:3c:ad:39:94:e8:aa:11:91:29:
         f3:7f:bb:f2:39:4d:5f:fe:7c:e0:51:3f:2d:94:1d:f7:98:77:
         66:ea:a5:48:45:bc:dc:55:ee:33:ab:97:96:83:07:ea:b4:36:
         d0:05:ba:c1:95:a8:3d:35:9a:8e:34:2a:f3:69:94:2c:7c:da:
         94:1e:6a:80:0d:2e:83:54:dd:ad:d8:6e:b6:68:3a:3f:d6:27:
         df:34:8c:a8:ae:7d:d9:bf:5f:62:74:a0:53:8e:0c:92:6f:fd:
         20:58:9b:1a:ef:75:de:57:e3:5a:ea:be:a5:3c:00:62:1d:27:
         17:17:3e:2d:07:80:44:78:3b:e7:bd:41:d1:c8:41:0e:96:e3:
         eb:df:b1:7d:86:5c:2c:f7:1f:ea:5d:b3:d3:ae:32:af:2d:57:
         73:3a:4c:8e:20:86:1d:23:85:9d:b6:91:c7:4d:30:13:dc:a7:
         72:a7:57:be:0e:2b:08:82:6e:d0:a9:5e:6b:a1:5b:16:4e:b3:
         ec:4a:1e:10:3a:9d:00:cc:dc:e1:18:f1:66:3b:56:19:4c:55:
         bc:63:96:e3:a5:4f:51:70:d4:26:e9:26:36:6f:d9:62:a7:e6:
         2a:c4:ee:2d:39:27:25:18:ab:c2:3b:c9:36:a8:a7:86:9a:0f:
         ae:f6:d1:3b
-----BEGIN CERTIFICATE-----
MIIDxDCCAqygAwIBAgIBAjANBgkqhkiG9w0BAQsFADBwMRIwEAYKCZImiZPyLGQB
GRYCY2ExFDASBgoJkiaJk/IsZAEZFgRsYWI1MRkwFwYDVQQKDBBMYWI1IERldk9w
cyBJbmMuMRQwEgYDVQQLDAt3d3cubGFiNS5jYTETMBEGA1UEAwwKUm9vdCBDQSBH
MTAeFw0yMjA1MDExNDU5MzRaFw0zMjA0MzAxNDU5MzRaMHMxEjAQBgoJkiaJk/Is
ZAEZFgJjYTEUMBIGCgmSJomT8ixkARkWBGxhYjUxGTAXBgNVBAoMEExhYjUgRGV2
T3BzIEluYy4xFDASBgNVBAsMC3d3dy5sYWI1LmNhMRYwFAYDVQQDDA1Jc3N1aW5n
IENBIEcxMIIBIjANBgkqhkiG9w0BAQEFAAOCAQ8AMIIBCgKCAQEAxRsJfM68pNFs
WARHxxy4i8LIadRIa51ulRKki4CI/GaTxtCQC4rBFAACHoC3zVfPr2bwGlvrOGsd
Bgg1pj4pjVHreacgiX7F1MBQTlllQi1t+jrqegr/jrT/RtNJawi3LXT+cj/RK2Pb
4zwKE865+UNY0y3f/zoQvsqXCbvF/mciQfckrlQXhI1Kq+ifxRPE9SitdHc7jOJm
vwTsxAtp87fSFvKLz3bhk4O+4mluS1t0RLmKkKlnoQYmQZrWevMNaiJT3exEa48F
B6jDvwaUfcU8iYYLeP47WesIyZ9pqBvT76LMJvncyPpt80yaHDL6nYmZblXubbjq
xZb181PS2QIDAQABo2YwZDAOBgNVHQ8BAf8EBAMCAQYwEgYDVR0TAQH/BAgwBgEB
/wIBADAdBgNVHQ4EFgQUs5JmzOKPxtuRJ+KDljNKVf1QIncwHwYDVR0jBBgwFoAU
wYa7fhv4hYdo33XA+kdnU5Qr090wDQYJKoZIhvcNAQELBQADggEBAJ1apTP9kDoe
GDytOZToqhGRKfN/u/I5TV/+fOBRPy2UHfeYd2bqpUhFvNxV7jOrl5aDB+q0NtAF
usGVqD01mo40KvNplCx82pQeaoANLoNU3a3YbrZoOj/WJ980jKiufdm/X2J0oFOO
DJJv/SBYmxrvdd5X41rqvqU8AGIdJxcXPi0HgER4O+e9QdHIQQ6W4+vfsX2GXCz3
H+pds9OuMq8tV3M6TI4ghh0jhZ22kcdNMBPcp3KnV74OKwiCbtCpXmuhWxZOs+xK
HhA6nQDM3OEY8WY7VhlMVbxjluOlT1Fw1CbpJjZv2WKn5irE7i05JyUYq8I7yTao
p4aaD6720Ts=
-----END CERTIFICATE-----
