Certificate:
    Data:
        Version: 3 (0x2)
        Serial Number: 1 (0x1)
        Signature Algorithm: ED25519
        Issuer: DC=ca, DC=lab5, O=Lab5 DevOps Inc., OU=www.lab5.ca, CN=Lab5 DevOps Inc. Issuing CA
        Validity
            Not Before: Mar  1 15:51:12 2024 GMT
            Not After : Mar  1 15:51:12 2034 GMT
        Subject: DC=ca, DC=lab5, O=Lab5 DevOps Inc., OU=www.lab5.ca, CN=www.lab5.ca
        Subject Public Key Info:
            Public Key Algorithm: ED25519
                ED25519 Public-Key:
                pub:
                    a6:b3:a8:d0:df:c4:df:9a:3a:e5:1e:89:d7:f2:69:
                    40:8b:ed:7a:2d:7c:e0:ac:ec:4d:3d:93:ba:c2:be:
                    ae:e4
        X509v3 extensions:
            X509v3 Key Usage: critical
                Digital Signature, Key Encipherment
            X509v3 Basic Constraints: 
                CA:FALSE
            X509v3 Extended Key Usage: 
                TLS Web Server Authentication, TLS Web Client Authentication
            X509v3 Subject Key Identifier: 
                7C:8C:BB:39:5D:40:FE:01:C5:16:FE:1A:23:B2:B7:89:FB:6A:45:BC
            X509v3 Authority Key Identifier: 
                BA:F1:13:58:FC:B3:07:AE:1D:35:19:5C:3A:F1:BF:83:5E:B3:5A:94
            X509v3 Subject Alternative Name: 
                DNS:www.lab5.ca, DNS:log.lab5.ca, IP Address:10.99.99.100, IP Address:127.0.0.1
    Signature Algorithm: ED25519
    Signature Value:
        93:62:a8:c6:3a:52:56:aa:1b:ab:71:15:26:3e:01:f3:1f:94:
        6d:98:20:15:d7:f4:38:fc:02:47:b2:3f:ff:84:ad:79:3d:ce:
        cb:b1:65:f7:24:00:95:71:5d:5a:3b:da:6c:1c:6b:7e:10:59:
        43:5e:1f:b2:15:0b:cf:53:4a:04
-----BEGIN CERTIFICATE-----
MIICUTCCAgOgAwIBAgIBATAFBgMrZXAwgYExEjAQBgoJkiaJk/IsZAEZFgJjYTEU
MBIGCgmSJomT8ixkARkWBGxhYjUxGTAXBgNVBAoMEExhYjUgRGV2T3BzIEluYy4x
FDASBgNVBAsMC3d3dy5sYWI1LmNhMSQwIgYDVQQDDBtMYWI1IERldk9wcyBJbmMu
IElzc3VpbmcgQ0EwHhcNMjQwMzAxMTU1MTEyWhcNMzQwMzAxMTU1MTEyWjBxMRIw
EAYKCZImiZPyLGQBGRYCY2ExFDASBgoJkiaJk/IsZAEZFgRsYWI1MRkwFwYDVQQK
DBBMYWI1IERldk9wcyBJbmMuMRQwEgYDVQQLDAt3d3cubGFiNS5jYTEUMBIGA1UE
AwwLd3d3LmxhYjUuY2EwKjAFBgMrZXADIQCms6jQ38TfmjrlHonX8mlAi+16LXzg
rOxNPZO6wr6u5KOBrjCBqzAOBgNVHQ8BAf8EBAMCBaAwCQYDVR0TBAIwADAdBgNV
HSUEFjAUBggrBgEFBQcDAQYIKwYBBQUHAwIwHQYDVR0OBBYEFHyMuzldQP4BxRb+
GiOyt4n7akW8MB8GA1UdIwQYMBaAFLrxE1j8sweuHTUZXDrxv4Nes1qUMC8GA1Ud
EQQoMCaCC3d3dy5sYWI1LmNhggtsb2cubGFiNS5jYYcECmNjZIcEfwAAATAFBgMr
ZXADQQCTYqjGOlJWqhurcRUmPgHzH5RtmCAV1/Q4/AJHsj//hK15Pc7LsWX3JACV
cV1aO9psHGt+EFlDXh+yFQvPU0oE
-----END CERTIFICATE-----
