Certificate:
    Data:
        Version: 3 (0x2)
        Serial Number: 1 (0x1)
        Signature Algorithm: ED25519
        Issuer: DC=ca, DC=lab5, O=Lab5 DevOps Inc., OU=www.lab5.ca, CN=Lab5 DevOps Inc. Issuing CA
        Validity
            Not Before: Mar  2 00:51:05 2024 GMT
            Not After : Mar  2 00:51:05 2034 GMT
        Subject: DC=ca, DC=lab5, O=Lab5 DevOps Inc., OU=www.lab5.ca, CN=www.lab5.ca
        Subject Public Key Info:
            Public Key Algorithm: ED25519
                ED25519 Public-Key:
                pub:
                    88:4e:eb:a2:35:ef:68:af:33:86:bf:f2:4b:c7:2d:
                    04:bf:6c:15:33:da:64:9a:24:ba:64:a2:14:87:70:
                    91:ff
        X509v3 extensions:
            X509v3 Key Usage: critical
                Digital Signature, Key Encipherment
            X509v3 Basic Constraints: 
                CA:FALSE
            X509v3 Extended Key Usage: 
                TLS Web Server Authentication, TLS Web Client Authentication
            X509v3 Subject Key Identifier: 
                B8:FA:07:F8:4B:CD:7C:55:A8:A6:6B:F1:C5:6F:4F:25:5F:8A:32:69
            X509v3 Authority Key Identifier: 
                38:AD:47:97:8F:C6:8A:2E:0C:41:0C:04:79:17:A9:8B:5C:3B:79:59
            X509v3 Subject Alternative Name: 
                DNS:www.lab5.ca, DNS:log.lab5.ca, IP Address:10.99.99.100, IP Address:127.0.0.1
    Signature Algorithm: ED25519
    Signature Value:
        90:57:18:93:4b:d5:2f:5b:11:75:e0:1a:03:71:2b:2c:4e:54:
        c1:1a:e3:c7:78:3b:71:5e:db:cf:4f:72:37:59:1c:59:51:bd:
        e0:db:8d:7a:37:9c:0b:c4:cd:5d:b4:af:f0:3e:12:7a:4c:a8:
        cf:d5:85:f5:9a:96:ec:aa:6d:00
-----BEGIN CERTIFICATE-----
MIICUTCCAgOgAwIBAgIBATAFBgMrZXAwgYExEjAQBgoJkiaJk/IsZAEZFgJjYTEU
MBIGCgmSJomT8ixkARkWBGxhYjUxGTAXBgNVBAoMEExhYjUgRGV2T3BzIEluYy4x
FDASBgNVBAsMC3d3dy5sYWI1LmNhMSQwIgYDVQQDDBtMYWI1IERldk9wcyBJbmMu
IElzc3VpbmcgQ0EwHhcNMjQwMzAyMDA1MTA1WhcNMzQwMzAyMDA1MTA1WjBxMRIw
EAYKCZImiZPyLGQBGRYCY2ExFDASBgoJkiaJk/IsZAEZFgRsYWI1MRkwFwYDVQQK
DBBMYWI1IERldk9wcyBJbmMuMRQwEgYDVQQLDAt3d3cubGFiNS5jYTEUMBIGA1UE
AwwLd3d3LmxhYjUuY2EwKjAFBgMrZXADIQCITuuiNe9orzOGv/JLxy0Ev2wVM9pk
miS6ZKIUh3CR/6OBrjCBqzAOBgNVHQ8BAf8EBAMCBaAwCQYDVR0TBAIwADAdBgNV
HSUEFjAUBggrBgEFBQcDAQYIKwYBBQUHAwIwHQYDVR0OBBYEFLj6B/hLzXxVqKZr
8cVvTyVfijJpMB8GA1UdIwQYMBaAFDitR5ePxoouDEEMBHkXqYtcO3lZMC8GA1Ud
EQQoMCaCC3d3dy5sYWI1LmNhggtsb2cubGFiNS5jYYcECmNjZIcEfwAAATAFBgMr
ZXADQQCQVxiTS9UvWxF14BoDcSssTlTBGuPHeDtxXtvPT3I3WRxZUb3g2416N5wL
xM1dtK/wPhJ6TKjP1YX1mpbsqm0A
-----END CERTIFICATE-----
