Certificate:
    Data:
        Version: 3 (0x2)
        Serial Number: 1 (0x1)
        Signature Algorithm: ED25519
        Issuer: DC=ca, DC=lab5, O=Lab5 DevOps Inc., OU=www.lab5.ca, CN=Lab5 DevOps Inc. Issuing CA
        Validity
            Not Before: Mar  1 15:14:36 2024 GMT
            Not After : Mar  1 15:14:36 2034 GMT
        Subject: DC=ca, DC=lab5, O=Lab5 DevOps Inc., OU=www.lab5.ca, CN=www.lab5.ca
        Subject Public Key Info:
            Public Key Algorithm: ED25519
                ED25519 Public-Key:
                pub:
                    45:6f:4d:74:3f:62:7e:29:1a:88:ed:b4:24:21:c8:
                    f3:68:90:f3:a7:4a:4f:3f:c4:6b:ad:f0:bf:98:fa:
                    48:7f
        X509v3 extensions:
            X509v3 Key Usage: critical
                Digital Signature, Key Encipherment
            X509v3 Basic Constraints: 
                CA:FALSE
            X509v3 Extended Key Usage: 
                TLS Web Server Authentication, TLS Web Client Authentication
            X509v3 Subject Key Identifier: 
                4D:43:97:6C:96:B2:4E:F3:5D:C7:FD:6C:B4:BD:1C:9C:66:5C:5D:B8
            X509v3 Authority Key Identifier: 
                26:CC:2E:BE:66:ED:7C:A7:50:45:CD:44:C6:34:E2:61:24:FA:6A:DE
            X509v3 Subject Alternative Name: 
                DNS:www.lab5.ca, DNS:log.lab5.ca, IP Address:10.99.99.100, IP Address:127.0.0.1
    Signature Algorithm: ED25519
    Signature Value:
        bd:ce:48:24:f5:9c:5a:ce:d4:0d:f4:8b:3c:db:e5:f2:ed:dc:
        4b:07:b2:8a:50:a4:8b:be:4e:58:b9:50:42:a1:6f:ac:0e:dd:
        67:b7:a9:03:eb:c4:2e:16:65:af:6f:7a:e7:c6:66:db:07:ff:
        3b:fe:8c:91:82:33:9a:41:9d:0d
-----BEGIN CERTIFICATE-----
MIICUTCCAgOgAwIBAgIBATAFBgMrZXAwgYExEjAQBgoJkiaJk/IsZAEZFgJjYTEU
MBIGCgmSJomT8ixkARkWBGxhYjUxGTAXBgNVBAoMEExhYjUgRGV2T3BzIEluYy4x
FDASBgNVBAsMC3d3dy5sYWI1LmNhMSQwIgYDVQQDDBtMYWI1IERldk9wcyBJbmMu
IElzc3VpbmcgQ0EwHhcNMjQwMzAxMTUxNDM2WhcNMzQwMzAxMTUxNDM2WjBxMRIw
EAYKCZImiZPyLGQBGRYCY2ExFDASBgoJkiaJk/IsZAEZFgRsYWI1MRkwFwYDVQQK
DBBMYWI1IERldk9wcyBJbmMuMRQwEgYDVQQLDAt3d3cubGFiNS5jYTEUMBIGA1UE
AwwLd3d3LmxhYjUuY2EwKjAFBgMrZXADIQBFb010P2J+KRqI7bQkIcjzaJDzp0pP
P8RrrfC/mPpIf6OBrjCBqzAOBgNVHQ8BAf8EBAMCBaAwCQYDVR0TBAIwADAdBgNV
HSUEFjAUBggrBgEFBQcDAQYIKwYBBQUHAwIwHQYDVR0OBBYEFE1Dl2yWsk7zXcf9
bLS9HJxmXF24MB8GA1UdIwQYMBaAFCbMLr5m7XynUEXNRMY04mEk+mreMC8GA1Ud
EQQoMCaCC3d3dy5sYWI1LmNhggtsb2cubGFiNS5jYYcECmNjZIcEfwAAATAFBgMr
ZXADQQC9zkgk9ZxaztQN9Is82+Xy7dxLB7KKUKSLvk5YuVBCoW+sDt1nt6kD68Qu
FmWvb3rnxmbbB/87/oyRgjOaQZ0N
-----END CERTIFICATE-----
