Certificate:
    Data:
        Version: 3 (0x2)
        Serial Number: 1 (0x1)
        Signature Algorithm: ED25519
        Issuer: DC=ca, DC=lab5, O=Lab5 DevOps Inc., OU=www.lab5.ca, CN=Lab5 DevOps Inc. Issuing CA
        Validity
            Not Before: Mar  2 00:59:38 2024 GMT
            Not After : Mar  2 00:59:38 2034 GMT
        Subject: DC=ca, DC=lab5, O=Lab5 DevOps Inc., OU=www.lab5.ca, CN=www.lab5.ca
        Subject Public Key Info:
            Public Key Algorithm: ED25519
                ED25519 Public-Key:
                pub:
                    f2:ee:e9:f6:bf:f9:0d:98:b5:6d:45:4d:d8:c3:cf:
                    6a:fe:11:a1:89:18:be:dd:3f:4d:0d:93:18:1e:96:
                    49:31
        X509v3 extensions:
            X509v3 Key Usage: critical
                Digital Signature, Key Encipherment
            X509v3 Basic Constraints: 
                CA:FALSE
            X509v3 Extended Key Usage: 
                TLS Web Server Authentication, TLS Web Client Authentication
            X509v3 Subject Key Identifier: 
                A6:45:8E:74:16:BA:87:C3:A4:75:BE:9B:B7:F9:8E:AA:8F:A7:EF:29
            X509v3 Authority Key Identifier: 
                19:08:E6:46:E8:1D:EF:13:86:34:65:52:2B:C8:2E:66:6C:04:7A:27
            X509v3 Subject Alternative Name: 
                DNS:www.lab5.ca, DNS:log.lab5.ca, IP Address:10.99.99.100, IP Address:127.0.0.1
    Signature Algorithm: ED25519
    Signature Value:
        e4:87:8f:7b:64:1e:49:a4:5a:cc:0f:bb:db:bf:99:cf:36:51:
        de:87:f6:f6:71:3d:49:23:92:b8:ef:e1:61:c0:68:53:2e:33:
        96:e4:94:4b:a0:76:84:8a:d7:2e:89:e9:93:74:53:74:58:39:
        f2:a4:ce:7e:69:08:f8:16:62:0a
-----BEGIN CERTIFICATE-----
MIICUTCCAgOgAwIBAgIBATAFBgMrZXAwgYExEjAQBgoJkiaJk/IsZAEZFgJjYTEU
MBIGCgmSJomT8ixkARkWBGxhYjUxGTAXBgNVBAoMEExhYjUgRGV2T3BzIEluYy4x
FDASBgNVBAsMC3d3dy5sYWI1LmNhMSQwIgYDVQQDDBtMYWI1IERldk9wcyBJbmMu
IElzc3VpbmcgQ0EwHhcNMjQwMzAyMDA1OTM4WhcNMzQwMzAyMDA1OTM4WjBxMRIw
EAYKCZImiZPyLGQBGRYCY2ExFDASBgoJkiaJk/IsZAEZFgRsYWI1MRkwFwYDVQQK
DBBMYWI1IERldk9wcyBJbmMuMRQwEgYDVQQLDAt3d3cubGFiNS5jYTEUMBIGA1UE
AwwLd3d3LmxhYjUuY2EwKjAFBgMrZXADIQDy7un2v/kNmLVtRU3Yw89q/hGhiRi+
3T9NDZMYHpZJMaOBrjCBqzAOBgNVHQ8BAf8EBAMCBaAwCQYDVR0TBAIwADAdBgNV
HSUEFjAUBggrBgEFBQcDAQYIKwYBBQUHAwIwHQYDVR0OBBYEFKZFjnQWuofDpHW+
m7f5jqqPp+8pMB8GA1UdIwQYMBaAFBkI5kboHe8ThjRlUivILmZsBHonMC8GA1Ud
EQQoMCaCC3d3dy5sYWI1LmNhggtsb2cubGFiNS5jYYcECmNjZIcEfwAAATAFBgMr
ZXADQQDkh497ZB5JpFrMD7vbv5nPNlHeh/b2cT1JI5K47+FhwGhTLjOW5JRLoHaE
itcuiemTdFN0WDnypM5+aQj4FmIK
-----END CERTIFICATE-----
