Certificate:
    Data:
        Version: 3 (0x2)
        Serial Number: 1 (0x1)
        Signature Algorithm: ED25519
        Issuer: DC=ca, DC=lab5, O=Lab5 DevOps Inc., OU=www.lab5.ca, CN=Lab5 DevOps Inc. Issuing CA
        Validity
            Not Before: Mar  1 15:18:13 2024 GMT
            Not After : Mar  1 15:18:13 2034 GMT
        Subject: DC=ca, DC=lab5, O=Lab5 DevOps Inc., OU=www.lab5.ca, CN=www.lab5.ca
        Subject Public Key Info:
            Public Key Algorithm: ED25519
                ED25519 Public-Key:
                pub:
                    d3:b6:a2:db:bd:62:0f:91:d0:2c:e0:1e:32:0c:24:
                    eb:43:6f:1e:32:be:9b:93:00:02:a5:b6:c6:50:b8:
                    b9:18
        X509v3 extensions:
            X509v3 Key Usage: critical
                Digital Signature, Key Encipherment
            X509v3 Basic Constraints: 
                CA:FALSE
            X509v3 Extended Key Usage: 
                TLS Web Server Authentication, TLS Web Client Authentication
            X509v3 Subject Key Identifier: 
                29:88:74:C7:89:DE:92:20:8A:32:5A:FF:BF:AC:EA:45:1C:50:82:84
            X509v3 Authority Key Identifier: 
                FF:E7:71:20:A9:3D:7A:E7:88:E9:5A:47:C7:D2:7A:83:24:1A:B7:D5
            X509v3 Subject Alternative Name: 
                DNS:www.lab5.ca, DNS:log.lab5.ca, IP Address:10.99.99.100, IP Address:127.0.0.1
    Signature Algorithm: ED25519
    Signature Value:
        7b:69:17:5b:fa:a2:a3:5c:87:2f:8f:f8:c9:12:8f:b9:0f:6d:
        57:90:1d:9a:e0:eb:9f:cc:9d:b7:ad:1e:2e:9d:5e:2b:9b:23:
        62:75:e2:e4:ee:4c:df:fc:fa:29:98:79:e8:4c:17:d6:6d:6f:
        b0:c8:ce:28:80:1a:b6:97:3c:0c
-----BEGIN CERTIFICATE-----
MIICUTCCAgOgAwIBAgIBATAFBgMrZXAwgYExEjAQBgoJkiaJk/IsZAEZFgJjYTEU
MBIGCgmSJomT8ixkARkWBGxhYjUxGTAXBgNVBAoMEExhYjUgRGV2T3BzIEluYy4x
FDASBgNVBAsMC3d3dy5sYWI1LmNhMSQwIgYDVQQDDBtMYWI1IERldk9wcyBJbmMu
IElzc3VpbmcgQ0EwHhcNMjQwMzAxMTUxODEzWhcNMzQwMzAxMTUxODEzWjBxMRIw
EAYKCZImiZPyLGQBGRYCY2ExFDASBgoJkiaJk/IsZAEZFgRsYWI1MRkwFwYDVQQK
DBBMYWI1IERldk9wcyBJbmMuMRQwEgYDVQQLDAt3d3cubGFiNS5jYTEUMBIGA1UE
AwwLd3d3LmxhYjUuY2EwKjAFBgMrZXADIQDTtqLbvWIPkdAs4B4yDCTrQ28eMr6b
kwACpbbGULi5GKOBrjCBqzAOBgNVHQ8BAf8EBAMCBaAwCQYDVR0TBAIwADAdBgNV
HSUEFjAUBggrBgEFBQcDAQYIKwYBBQUHAwIwHQYDVR0OBBYEFCmIdMeJ3pIgijJa
/7+s6kUcUIKEMB8GA1UdIwQYMBaAFP/ncSCpPXrniOlaR8fSeoMkGrfVMC8GA1Ud
EQQoMCaCC3d3dy5sYWI1LmNhggtsb2cubGFiNS5jYYcECmNjZIcEfwAAATAFBgMr
ZXADQQB7aRdb+qKjXIcvj/jJEo+5D21XkB2a4OufzJ23rR4unV4rmyNideLk7kzf
/PopmHnoTBfWbW+wyM4ogBq2lzwM
-----END CERTIFICATE-----
