Certificate:
    Data:
        Version: 3 (0x2)
        Serial Number: 1 (0x1)
        Signature Algorithm: ED25519
        Issuer: DC=ca, DC=lab5, O=Lab5 DevOps Inc., OU=www.lab5.ca, CN=Lab5 DevOps Inc. Issuing CA
        Validity
            Not Before: Mar  1 15:44:28 2024 GMT
            Not After : Mar  1 15:44:28 2034 GMT
        Subject: DC=ca, DC=lab5, O=Lab5 DevOps Inc., OU=www.lab5.ca, CN=www.lab5.ca
        Subject Public Key Info:
            Public Key Algorithm: ED25519
                ED25519 Public-Key:
                pub:
                    38:5c:98:61:e2:fa:b1:da:0d:a8:ae:81:3f:54:43:
                    56:78:f3:f1:ee:ca:a4:5c:c3:1f:c8:2a:93:7c:0e:
                    09:aa
        X509v3 extensions:
            X509v3 Key Usage: critical
                Digital Signature, Key Encipherment
            X509v3 Basic Constraints: 
                CA:FALSE
            X509v3 Extended Key Usage: 
                TLS Web Server Authentication, TLS Web Client Authentication
            X509v3 Subject Key Identifier: 
                71:65:06:DA:C7:1D:21:F0:83:96:AE:2A:E3:B4:38:9C:53:F2:93:70
            X509v3 Authority Key Identifier: 
                D3:37:BD:1A:60:80:21:F2:DE:45:01:AD:7B:0C:46:AC:5C:9F:48:4E
            X509v3 Subject Alternative Name: 
                DNS:www.lab5.ca, DNS:log.lab5.ca, IP Address:10.99.99.100, IP Address:127.0.0.1
    Signature Algorithm: ED25519
    Signature Value:
        cf:98:19:03:62:2c:2c:a0:73:d5:8a:42:a8:cf:0b:df:c0:b8:
        de:be:f1:38:5e:7c:90:64:ee:b8:e3:61:81:de:5f:4a:f3:3f:
        de:86:7a:cd:ea:8d:20:07:8f:95:80:9b:d4:41:1d:12:d1:ca:
        f5:ae:83:9e:23:ea:be:49:e5:05
-----BEGIN CERTIFICATE-----
MIICUTCCAgOgAwIBAgIBATAFBgMrZXAwgYExEjAQBgoJkiaJk/IsZAEZFgJjYTEU
MBIGCgmSJomT8ixkARkWBGxhYjUxGTAXBgNVBAoMEExhYjUgRGV2T3BzIEluYy4x
FDASBgNVBAsMC3d3dy5sYWI1LmNhMSQwIgYDVQQDDBtMYWI1IERldk9wcyBJbmMu
IElzc3VpbmcgQ0EwHhcNMjQwMzAxMTU0NDI4WhcNMzQwMzAxMTU0NDI4WjBxMRIw
EAYKCZImiZPyLGQBGRYCY2ExFDASBgoJkiaJk/IsZAEZFgRsYWI1MRkwFwYDVQQK
DBBMYWI1IERldk9wcyBJbmMuMRQwEgYDVQQLDAt3d3cubGFiNS5jYTEUMBIGA1UE
AwwLd3d3LmxhYjUuY2EwKjAFBgMrZXADIQA4XJhh4vqx2g2oroE/VENWePPx7sqk
XMMfyCqTfA4JqqOBrjCBqzAOBgNVHQ8BAf8EBAMCBaAwCQYDVR0TBAIwADAdBgNV
HSUEFjAUBggrBgEFBQcDAQYIKwYBBQUHAwIwHQYDVR0OBBYEFHFlBtrHHSHwg5au
KuO0OJxT8pNwMB8GA1UdIwQYMBaAFNM3vRpggCHy3kUBrXsMRqxcn0hOMC8GA1Ud
EQQoMCaCC3d3dy5sYWI1LmNhggtsb2cubGFiNS5jYYcECmNjZIcEfwAAATAFBgMr
ZXADQQDPmBkDYiwsoHPVikKozwvfwLjevvE4XnyQZO6442GB3l9K8z/ehnrN6o0g
B4+VgJvUQR0S0cr1roOeI+q+SeUF
-----END CERTIFICATE-----
