Certificate:
    Data:
        Version: 3 (0x2)
        Serial Number: 1 (0x1)
        Signature Algorithm: ED25519
        Issuer: DC=ca, DC=lab5, O=Lab5 DevOps Inc., OU=www.lab5.ca, CN=Lab5 DevOps Inc. Issuing CA
        Validity
            Not Before: Mar  1 21:56:31 2024 GMT
            Not After : Mar  1 21:56:31 2034 GMT
        Subject: DC=ca, DC=lab5, O=Lab5 DevOps Inc., OU=www.lab5.ca, CN=www.lab5.ca
        Subject Public Key Info:
            Public Key Algorithm: ED25519
                ED25519 Public-Key:
                pub:
                    74:d1:eb:6b:ab:ec:71:8e:6b:0c:7e:93:52:e7:89:
                    81:7f:3f:aa:f4:e1:29:3a:7b:37:c7:c7:ba:58:7e:
                    09:d6
        X509v3 extensions:
            X509v3 Key Usage: critical
                Digital Signature, Key Encipherment
            X509v3 Basic Constraints: 
                CA:FALSE
            X509v3 Extended Key Usage: 
                TLS Web Server Authentication, TLS Web Client Authentication
            X509v3 Subject Key Identifier: 
                37:78:C2:DF:22:CA:58:09:9E:81:BE:33:9F:22:AA:AA:7C:FC:11:91
            X509v3 Authority Key Identifier: 
                5E:C4:AB:98:B2:27:E6:F5:1D:6E:13:6B:61:6C:CE:B4:8C:0B:1B:B5
            X509v3 Subject Alternative Name: 
                DNS:www.lab5.ca, DNS:log.lab5.ca, IP Address:10.99.99.100, IP Address:127.0.0.1
    Signature Algorithm: ED25519
    Signature Value:
        db:f0:80:f2:5b:4e:3a:b0:05:fe:95:86:bd:16:97:6a:89:27:
        7d:ae:f2:23:15:2f:25:56:0c:39:2b:34:3b:59:3e:fa:93:fb:
        21:87:12:70:99:d4:f3:38:58:a7:9f:2a:ad:1b:57:10:0f:32:
        f2:88:4a:61:e9:d4:2d:54:94:09
-----BEGIN CERTIFICATE-----
MIICUTCCAgOgAwIBAgIBATAFBgMrZXAwgYExEjAQBgoJkiaJk/IsZAEZFgJjYTEU
MBIGCgmSJomT8ixkARkWBGxhYjUxGTAXBgNVBAoMEExhYjUgRGV2T3BzIEluYy4x
FDASBgNVBAsMC3d3dy5sYWI1LmNhMSQwIgYDVQQDDBtMYWI1IERldk9wcyBJbmMu
IElzc3VpbmcgQ0EwHhcNMjQwMzAxMjE1NjMxWhcNMzQwMzAxMjE1NjMxWjBxMRIw
EAYKCZImiZPyLGQBGRYCY2ExFDASBgoJkiaJk/IsZAEZFgRsYWI1MRkwFwYDVQQK
DBBMYWI1IERldk9wcyBJbmMuMRQwEgYDVQQLDAt3d3cubGFiNS5jYTEUMBIGA1UE
AwwLd3d3LmxhYjUuY2EwKjAFBgMrZXADIQB00etrq+xxjmsMfpNS54mBfz+q9OEp
Ons3x8e6WH4J1qOBrjCBqzAOBgNVHQ8BAf8EBAMCBaAwCQYDVR0TBAIwADAdBgNV
HSUEFjAUBggrBgEFBQcDAQYIKwYBBQUHAwIwHQYDVR0OBBYEFDd4wt8iylgJnoG+
M58iqqp8/BGRMB8GA1UdIwQYMBaAFF7Eq5iyJ+b1HW4Ta2FszrSMCxu1MC8GA1Ud
EQQoMCaCC3d3dy5sYWI1LmNhggtsb2cubGFiNS5jYYcECmNjZIcEfwAAATAFBgMr
ZXADQQDb8IDyW046sAX+lYa9FpdqiSd9rvIjFS8lVgw5KzQ7WT76k/shhxJwmdTz
OFinnyqtG1cQDzLyiEph6dQtVJQJ
-----END CERTIFICATE-----
