Certificate:
    Data:
        Version: 3 (0x2)
        Serial Number:
            03:eb:89:cd:68:3c:3f:8b:4a:3a:1c:fe:91:61:bd:f4:3c:33:07:88
        Signature Algorithm: sha256WithRSAEncryption
        Issuer: DC=ca, DC=lab5, O=Lab5 DevOps Inc., OU=www.lab5.ca, CN=Lab5 DevOps Inc. Issuing CA
        Validity
            Not Before: Mar 29 12:35:17 2024 GMT
            Not After : Mar 29 12:35:17 2034 GMT
        Subject: DC=ca, DC=lab5, O=Lab5 DevOps Inc., OU=www.lab5.ca, CN=John.Doe
        Subject Public Key Info:
            Public Key Algorithm: rsaEncryption
                Public-Key: (2048 bit)
                Modulus:
                    00:c2:02:60:20:57:0a:28:d2:62:f3:14:e4:68:30:
                    1a:bc:fa:42:c0:c1:ed:1c:a1:96:d3:72:9a:d3:8e:
                    50:5c:5e:0d:04:bc:23:db:26:22:36:e1:63:dc:25:
                    7b:66:3b:d4:58:ab:2f:7f:7f:47:38:00:d2:35:30:
                    1d:9c:56:e7:f2:b7:eb:a5:8e:ef:76:47:dc:3b:17:
                    e9:03:7b:34:74:5d:d4:ef:63:d4:6f:3f:2e:56:c1:
                    57:4b:cd:3b:08:8e:d1:48:2b:b7:e7:08:3e:17:b8:
                    47:32:b8:f7:ce:c8:9e:6c:6b:91:f0:37:1c:87:a4:
                    af:ab:52:13:82:3a:03:04:e6:f0:b9:9c:0b:53:60:
                    6c:04:43:2a:77:b2:48:7e:e5:8b:5e:66:ce:3a:ae:
                    f9:39:19:f5:cc:54:de:f8:73:86:2d:61:36:13:b9:
                    0d:05:f9:54:3e:33:21:f2:1f:d5:01:14:2e:a8:ed:
                    be:88:85:5e:93:25:6f:79:8a:84:6f:4e:7f:8e:a3:
                    1a:7b:cb:72:28:a6:f7:06:67:37:9e:45:9d:c2:9e:
                    17:f1:e4:7c:ca:e6:2a:cf:99:e5:c6:13:05:3c:3f:
                    6e:6c:3e:e4:47:33:88:88:2e:15:05:0c:02:de:75:
                    5a:b4:9e:1d:44:a4:79:23:da:cc:f0:46:1f:2f:f7:
                    cf:21
                Exponent: 65537 (0x10001)
        X509v3 extensions:
            X509v3 Key Usage: critical
                Digital Signature, Key Encipherment
            X509v3 Basic Constraints: 
                CA:FALSE
            X509v3 Extended Key Usage: 
                TLS Web Server Authentication, TLS Web Client Authentication, Code Signing, E-mail Protection
            X509v3 Subject Key Identifier: 
                FA:F0:2A:33:90:5C:B8:97:18:CA:20:A3:62:B5:56:F5:BB:28:EC:36
            X509v3 Authority Key Identifier: 
                50:D9:15:D1:2E:4B:13:4A:FC:32:A5:BE:B6:C7:AE:F6:29:B8:3C:E7
            X509v3 Subject Alternative Name: 
                email:john.doe@lab5.ca
    Signature Algorithm: sha256WithRSAEncryption
    Signature Value:
        32:97:4c:12:c7:ce:53:bc:1d:df:52:da:02:d3:a0:dd:55:7d:
        cd:b6:45:76:06:a5:8b:14:21:53:e3:a3:61:4b:0c:33:cd:02:
        de:aa:91:de:fe:cb:f8:e5:b3:85:9f:ca:c7:1b:fd:7f:53:b8:
        af:61:c2:96:d9:cf:db:f5:20:8b:a4:b5:25:02:a5:5e:b1:ef:
        4c:e3:7c:91:38:d5:ea:1a:46:d4:45:ae:14:37:51:cd:f8:e2:
        c3:3a:9f:68:fb:dd:e3:8e:1f:6e:ff:c9:72:5e:8f:4d:ae:f6:
        3f:b3:1f:00:db:6a:c2:7f:23:a9:38:19:5f:c0:7c:77:bb:ff:
        6e:7a:ab:17:89:37:0c:ca:5c:fd:18:2d:08:4f:ca:13:e1:ff:
        4e:cb:d6:14:ee:c6:70:06:ee:d4:7b:fe:60:17:51:55:0a:b9:
        3e:fb:7d:86:fa:fb:84:98:7d:84:b4:c9:6a:8e:a9:49:f3:d3:
        f9:a9:8b:c0:cd:f5:40:70:54:ff:06:ab:c6:c0:34:e2:cc:eb:
        41:56:39:93:0b:f7:1f:88:a0:c6:d3:41:8e:27:23:6f:99:37:
        5d:2a:e5:77:16:9d:17:04:9e:b4:db:09:d9:86:a9:53:0e:3a:
        15:b4:df:3f:ed:44:66:6e:77:65:f6:fb:a0:14:d9:2f:93:72:
        10:87:c5:7b:68:fe:89:52:9f:d3:85:9b:c1:1b:59:94:ec:34:
        1e:45:92:de:d6:33:eb:2e:65:52:e3:0f:3e:7b:09:ce:b4:7c:
        ed:fd:b1:3d:0f:e1:71:6f:f4:0e:29:a3:aa:85:16:e7:98:a6:
        a0:f1:80:3d:d7:31:34:4a:7f:15:c8:2b:c6:62:1a:dc:b7:71:
        de:e4:88:c6:b8:7d:37:12:47:f8:e3:b2:d6:70:b5:5b:8a:3b:
        a1:f0:27:d8:f2:d6:a7:29:78:98:7e:f1:4d:d0:a2:58:08:88:
        68:76:85:a5:b1:c6:3d:3d:6c:3a:0d:26:92:28:7a:f1:b7:bb:
        17:5c:44:b2:07:02:13:97:24:e0:33:61:5d:02:8f:8f:24:d9:
        be:57:fe:68:d1:3a:54:da:38:61:fe:82:dc:7a:4c:eb:0f:f4:
        02:9d:6c:21:5e:c5:e3:39:39:3e:8a:2f:c2:95:bd:58:2b:cb:
        65:a7:b7:37:ff:d8:d7:20:82:08:77:89:82:21:12:35:15:59:
        9e:67:5b:9c:d1:63:93:f1:ea:1f:87:67:83:cb:a3:56:da:50:
        af:9f:b7:12:06:8e:fa:75:50:e3:1d:d8:73:b2:27:43:4b:5b:
        58:22:e3:45:5e:9a:c5:6c:98:52:00:67:20:c4:95:01:4c:7d:
        59:9c:98:b4:1a:57:f9:f9
-----BEGIN CERTIFICATE-----
MIIFLTCCAxWgAwIBAgIUA+uJzWg8P4tKOhz+kWG99DwzB4gwDQYJKoZIhvcNAQEL
BQAwgYExEjAQBgoJkiaJk/IsZAEZFgJjYTEUMBIGCgmSJomT8ixkARkWBGxhYjUx
GTAXBgNVBAoMEExhYjUgRGV2T3BzIEluYy4xFDASBgNVBAsMC3d3dy5sYWI1LmNh
MSQwIgYDVQQDDBtMYWI1IERldk9wcyBJbmMuIElzc3VpbmcgQ0EwHhcNMjQwMzI5
MTIzNTE3WhcNMzQwMzI5MTIzNTE3WjBuMRIwEAYKCZImiZPyLGQBGRYCY2ExFDAS
BgoJkiaJk/IsZAEZFgRsYWI1MRkwFwYDVQQKDBBMYWI1IERldk9wcyBJbmMuMRQw
EgYDVQQLDAt3d3cubGFiNS5jYTERMA8GA1UEAwwISm9obi5Eb2UwggEiMA0GCSqG
SIb3DQEBAQUAA4IBDwAwggEKAoIBAQDCAmAgVwoo0mLzFORoMBq8+kLAwe0coZbT
cprTjlBcXg0EvCPbJiI24WPcJXtmO9RYqy9/f0c4ANI1MB2cVufyt+ulju92R9w7
F+kDezR0XdTvY9RvPy5WwVdLzTsIjtFIK7fnCD4XuEcyuPfOyJ5sa5HwNxyHpK+r
UhOCOgME5vC5nAtTYGwEQyp3skh+5YteZs46rvk5GfXMVN74c4YtYTYTuQ0F+VQ+
MyHyH9UBFC6o7b6IhV6TJW95ioRvTn+Ooxp7y3IopvcGZzeeRZ3Cnhfx5HzK5irP
meXGEwU8P25sPuRHM4iILhUFDALedVq0nh1EpHkj2szwRh8v988hAgMBAAGjga4w
gaswDgYDVR0PAQH/BAQDAgWgMAkGA1UdEwQCMAAwMQYDVR0lBCowKAYIKwYBBQUH
AwEGCCsGAQUFBwMCBggrBgEFBQcDAwYIKwYBBQUHAwQwHQYDVR0OBBYEFPrwKjOQ
XLiXGMogo2K1VvW7KOw2MB8GA1UdIwQYMBaAFFDZFdEuSxNK/DKlvrbHrvYpuDzn
MBsGA1UdEQQUMBKBEGpvaG4uZG9lQGxhYjUuY2EwDQYJKoZIhvcNAQELBQADggIB
ADKXTBLHzlO8Hd9S2gLToN1Vfc22RXYGpYsUIVPjo2FLDDPNAt6qkd7+y/jls4Wf
yscb/X9TuK9hwpbZz9v1IIuktSUCpV6x70zjfJE41eoaRtRFrhQ3Uc344sM6n2j7
3eOOH27/yXJej02u9j+zHwDbasJ/I6k4GV/AfHe7/256qxeJNwzKXP0YLQhPyhPh
/07L1hTuxnAG7tR7/mAXUVUKuT77fYb6+4SYfYS0yWqOqUnz0/mpi8DN9UBwVP8G
q8bANOLM60FWOZML9x+IoMbTQY4nI2+ZN10q5XcWnRcEnrTbCdmGqVMOOhW03z/t
RGZud2X2+6AU2S+TchCHxXto/olSn9OFm8EbWZTsNB5Fkt7WM+suZVLjDz57Cc60
fO39sT0P4XFv9A4po6qFFueYpqDxgD3XMTRKfxXIK8ZiGty3cd7kiMa4fTcSR/jj
stZwtVuKO6HwJ9jy1qcpeJh+8U3QolgIiGh2haWxxj09bDoNJpIoevG3uxdcRLIH
AhOXJOAzYV0Cj48k2b5X/mjROlTaOGH+gtx6TOsP9AKdbCFexeM5OT6KL8KVvVgr
y2Wntzf/2Ncgggh3iYIhEjUVWZ5nW5zRY5Px6h+HZ4PLo1baUK+ftxIGjvp1UOMd
2HOyJ0NLW1gi40VemsVsmFIAZyDElQFMfVmcmLQaV/n5
-----END CERTIFICATE-----
