Certificate:
    Data:
        Version: 3 (0x2)
        Serial Number:
            04:21:8c:88:0e:d6:b9:40:12:52:b3:9b:2a:8d:cf:21:e3:27:88:fc
        Signature Algorithm: sha256WithRSAEncryption
        Issuer: DC=ca, DC=lab5, O=Lab5 DevOps Inc., OU=www.lab5.ca, CN=Lab5 DevOps Inc. Issuing CA
        Validity
            Not Before: May 20 10:56:20 2024 GMT
            Not After : May 20 10:56:20 2034 GMT
        Subject: DC=ca, DC=lab5, O=Lab5 DevOps Inc., OU=www.lab5.ca, CN=www.lab5.ca
        Subject Public Key Info:
            Public Key Algorithm: rsaEncryption
                Public-Key: (2048 bit)
                Modulus:
                    00:bb:f3:47:e3:64:72:f7:3e:aa:1e:f8:55:dd:3c:
                    af:e9:ed:60:9e:14:e2:9d:9b:69:67:f4:a6:a6:3f:
                    69:88:eb:ea:77:2b:5e:63:d2:d0:9a:0a:6e:32:12:
                    fb:6f:d4:b0:33:aa:f3:fd:f3:b1:5c:7a:9c:5f:a9:
                    b1:5c:4c:f5:9d:16:9e:41:dc:db:0e:a8:86:cc:67:
                    9d:b6:74:1b:af:08:63:49:87:6e:f0:9b:67:22:8e:
                    a1:0a:da:f1:51:8f:a1:50:cf:cd:4c:16:69:c4:72:
                    09:3c:6d:5f:03:5d:a3:25:60:5b:0b:66:dd:48:df:
                    b5:54:1d:8e:ff:52:0e:95:e7:a3:72:16:91:43:22:
                    1e:69:04:2f:91:33:07:fa:89:b5:81:7e:56:d5:40:
                    14:f5:e4:16:85:14:f3:9d:e8:b7:64:64:60:ba:e0:
                    0b:8d:a4:16:3e:5b:2d:7e:29:ae:d2:22:e4:78:60:
                    d9:2d:84:5b:82:2f:23:d2:5f:55:c7:46:ab:da:55:
                    c3:be:0c:52:e9:1b:d6:18:79:ab:f4:ee:63:66:df:
                    f2:5b:ef:e6:89:79:55:82:58:60:bd:fa:da:f8:bb:
                    ff:16:c5:66:39:bd:27:f3:78:77:f7:d6:3d:39:ce:
                    09:30:6d:ea:af:62:64:ff:6b:6c:ed:1d:f6:c2:6d:
                    9e:7b
                Exponent: 65537 (0x10001)
        X509v3 extensions:
            X509v3 Key Usage: critical
                Digital Signature, Key Encipherment
            X509v3 Basic Constraints: 
                CA:FALSE
            X509v3 Extended Key Usage: 
                TLS Web Server Authentication, TLS Web Client Authentication, Code Signing, E-mail Protection
            X509v3 Subject Key Identifier: 
                5B:D1:62:C9:58:1C:82:72:E6:49:56:C5:8E:E5:26:00:49:75:01:88
            X509v3 Authority Key Identifier: 
                99:BF:D9:34:61:DC:FF:C0:54:67:6B:62:3A:AF:BF:46:AC:C2:1F:D4
            X509v3 Subject Alternative Name: 
                DNS:www.lab5.ca, IP Address:127.0.0.1, email:user@email.com
    Signature Algorithm: sha256WithRSAEncryption
    Signature Value:
        8b:d1:8b:44:66:5d:fb:50:a3:46:d0:74:bb:80:42:8f:cf:ae:
        0b:9d:5b:40:2f:88:5b:88:d0:47:4f:8f:eb:b3:d2:26:54:bd:
        0e:12:1f:63:8a:f2:2a:02:58:9a:1a:79:c1:8c:4d:fb:43:48:
        c0:0a:a5:a1:99:c5:78:72:de:15:c4:7d:1b:a7:5a:07:24:4f:
        2f:82:4a:8f:b1:77:f3:ca:44:ae:f0:a8:8f:53:48:33:31:04:
        2a:1a:4a:b7:28:e7:59:aa:66:17:36:4c:ae:35:ea:6c:9a:32:
        ab:43:01:dc:29:1d:02:c2:8c:f2:c5:46:52:7c:62:a1:c2:be:
        e5:10:99:3b:2d:ab:48:74:ed:f1:b6:a2:51:a7:f0:a1:2b:f1:
        1b:fa:4d:ba:cb:03:d9:19:05:37:ff:21:e5:0b:be:17:4d:17:
        ca:54:93:78:f1:df:1c:24:09:3d:25:6f:7a:e6:38:2d:a4:ec:
        a4:31:fa:ba:e8:2e:40:72:eb:42:4d:6d:22:9b:55:65:6d:e1:
        4f:b6:6c:f2:df:07:0a:37:56:a1:8c:f2:71:c1:13:80:f5:b5:
        60:1c:5e:d7:cb:c9:4f:81:3c:96:fa:df:72:f0:90:fe:54:d6:
        03:e0:c3:8b:c7:37:ed:44:16:44:f5:e8:9a:57:b9:5a:6e:a9:
        7c:d3:3e:32:1f:84:7d:34:f7:e7:ef:40:08:ff:3a:c8:7e:1c:
        29:97:0e:fd:79:ec:18:a1:b0:43:f4:18:01:ec:39:8e:21:d1:
        74:e8:ff:89:0e:73:db:30:7c:23:b4:d1:65:d7:3c:36:56:67:
        f5:8a:a5:0e:79:ac:6f:e1:7b:16:d8:0c:d0:df:51:cf:3d:ae:
        8c:cf:ee:8a:14:71:ff:49:76:b2:ba:33:a9:17:88:16:89:b8:
        88:4e:c5:e9:f1:97:d4:02:ad:3c:b0:f2:bf:39:a9:e5:0f:19:
        07:cc:80:60:ab:7a:8a:25:4b:df:95:9d:3d:cb:31:b1:b6:5e:
        d1:fd:ee:17:5b:b1:0d:28:00:b4:79:ce:d5:dc:07:8d:cc:64:
        fe:83:4a:1c:2d:61:18:17:14:67:94:cd:2d:4f:70:b1:5f:a6:
        5f:d5:a4:e9:ad:d2:fb:a5:b9:01:7b:59:5e:7b:56:d4:da:dc:
        ab:15:7d:10:f1:87:d7:c1:7f:6a:05:f0:9d:04:d3:73:ae:e9:
        1a:44:24:32:9b:97:17:27:9b:06:7d:7f:87:83:57:ba:4c:9f:
        98:c6:ba:65:34:7e:ad:a9:a4:8b:1a:c6:a0:fe:ad:79:77:c9:
        85:ba:70:fd:f9:e8:66:b3:6c:65:80:33:21:28:6c:cd:53:c5:
        d6:27:64:e0:37:4e:99:26
-----BEGIN CERTIFICATE-----
MIIFQTCCAymgAwIBAgIUBCGMiA7WuUASUrObKo3PIeMniPwwDQYJKoZIhvcNAQEL
BQAwgYExEjAQBgoJkiaJk/IsZAEZFgJjYTEUMBIGCgmSJomT8ixkARkWBGxhYjUx
GTAXBgNVBAoMEExhYjUgRGV2T3BzIEluYy4xFDASBgNVBAsMC3d3dy5sYWI1LmNh
MSQwIgYDVQQDDBtMYWI1IERldk9wcyBJbmMuIElzc3VpbmcgQ0EwHhcNMjQwNTIw
MTA1NjIwWhcNMzQwNTIwMTA1NjIwWjBxMRIwEAYKCZImiZPyLGQBGRYCY2ExFDAS
BgoJkiaJk/IsZAEZFgRsYWI1MRkwFwYDVQQKDBBMYWI1IERldk9wcyBJbmMuMRQw
EgYDVQQLDAt3d3cubGFiNS5jYTEUMBIGA1UEAwwLd3d3LmxhYjUuY2EwggEiMA0G
CSqGSIb3DQEBAQUAA4IBDwAwggEKAoIBAQC780fjZHL3Pqoe+FXdPK/p7WCeFOKd
m2ln9KamP2mI6+p3K15j0tCaCm4yEvtv1LAzqvP987FcepxfqbFcTPWdFp5B3NsO
qIbMZ522dBuvCGNJh27wm2cijqEK2vFRj6FQz81MFmnEcgk8bV8DXaMlYFsLZt1I
37VUHY7/Ug6V56NyFpFDIh5pBC+RMwf6ibWBflbVQBT15BaFFPOd6LdkZGC64AuN
pBY+Wy1+Ka7SIuR4YNkthFuCLyPSX1XHRqvaVcO+DFLpG9YYeav07mNm3/Jb7+aJ
eVWCWGC9+tr4u/8WxWY5vSfzeHf31j05zgkwbeqvYmT/a2ztHfbCbZ57AgMBAAGj
gb8wgbwwDgYDVR0PAQH/BAQDAgWgMAkGA1UdEwQCMAAwMQYDVR0lBCowKAYIKwYB
BQUHAwEGCCsGAQUFBwMCBggrBgEFBQcDAwYIKwYBBQUHAwQwHQYDVR0OBBYEFFvR
YslYHIJy5klWxY7lJgBJdQGIMB8GA1UdIwQYMBaAFJm/2TRh3P/AVGdrYjqvv0as
wh/UMCwGA1UdEQQlMCOCC3d3dy5sYWI1LmNhhwR/AAABgQ51c2VyQGVtYWlsLmNv
bTANBgkqhkiG9w0BAQsFAAOCAgEAi9GLRGZd+1CjRtB0u4BCj8+uC51bQC+IW4jQ
R0+P67PSJlS9DhIfY4ryKgJYmhp5wYxN+0NIwAqloZnFeHLeFcR9G6daByRPL4JK
j7F388pErvCoj1NIMzEEKhpKtyjnWapmFzZMrjXqbJoyq0MB3CkdAsKM8sVGUnxi
ocK+5RCZOy2rSHTt8baiUafwoSvxG/pNussD2RkFN/8h5Qu+F00XylSTePHfHCQJ
PSVveuY4LaTspDH6uuguQHLrQk1tIptVZW3hT7Zs8t8HCjdWoYzyccETgPW1YBxe
18vJT4E8lvrfcvCQ/lTWA+DDi8c37UQWRPXomle5Wm6pfNM+Mh+EfTT35+9ACP86
yH4cKZcO/XnsGKGwQ/QYAew5jiHRdOj/iQ5z2zB8I7TRZdc8NlZn9YqlDnmsb+F7
FtgM0N9Rzz2ujM/uihRx/0l2srozqReIFom4iE7F6fGX1AKtPLDyvzmp5Q8ZB8yA
YKt6iiVL35WdPcsxsbZe0f3uF1uxDSgAtHnO1dwHjcxk/oNKHC1hGBcUZ5TNLU9w
sV+mX9Wk6a3S+6W5AXtZXntW1NrcqxV9EPGH18F/agXwnQTTc67pGkQkMpuXFyeb
Bn1/h4NXukyfmMa6ZTR+ramkixrGoP6teXfJhbpw/fnoZrNsZYAzIShszVPF1idk
4DdOmSY=
-----END CERTIFICATE-----
