Certificate:
    Data:
        Version: 3 (0x2)
        Serial Number:
            0a:29:41:6f:13:52:a5:d7:d8:a0:28:c0:fb:d8:56:e1:1f:45:bc:1f
        Signature Algorithm: sha256WithRSAEncryption
        Issuer: DC=ca, DC=lab5, O=Lab5 DevOps Inc., OU=www.lab5.ca, CN=Lab5 DevOps Inc. Issuing CA
        Validity
            Not Before: Mar 17 21:20:07 2024 GMT
            Not After : Mar 17 21:20:07 2034 GMT
        Subject: DC=ca, DC=lab5, O=Lab5 DevOps Inc., OU=www.lab5.ca, CN=db.lab5.ca
        Subject Public Key Info:
            Public Key Algorithm: rsaEncryption
                Public-Key: (2048 bit)
                Modulus:
                    00:e1:77:86:2d:7d:25:bc:e5:4a:9a:20:24:6f:cd:
                    60:0c:2c:f6:37:b1:29:38:76:4f:12:00:8d:51:4e:
                    66:61:79:8e:10:63:7e:a6:0f:ee:59:ec:15:4c:54:
                    78:a3:97:e6:a0:da:de:a8:15:6a:01:f0:3e:f7:da:
                    c9:c7:eb:4e:b1:96:9c:2e:66:5a:a5:5f:e2:e4:34:
                    79:41:96:d0:33:f4:92:b6:01:d1:e5:c8:b2:63:9c:
                    b5:d7:77:6e:f0:a9:a9:df:69:14:f5:0e:d8:1d:28:
                    e4:9c:48:02:77:23:ee:9b:08:36:7f:a2:cc:b9:c5:
                    7f:85:2f:3c:70:4b:73:f9:b5:63:a5:ed:17:c7:14:
                    2a:ee:cf:96:27:3f:df:74:0d:29:5c:c3:55:ea:23:
                    45:a1:cf:e8:ec:77:8e:0c:14:a8:8e:00:53:06:aa:
                    b6:e1:f7:e1:d9:42:b0:f0:85:08:a7:d9:ba:7e:08:
                    55:73:d8:cb:82:08:94:6b:7e:f1:00:4f:a4:77:f2:
                    ab:37:f5:ac:32:fb:09:6c:71:fd:0b:78:cc:3b:70:
                    69:67:cc:6c:90:57:5b:c3:2e:ac:57:78:8b:b2:90:
                    61:7b:dc:b9:48:2d:c5:c2:cf:53:70:55:00:7b:e7:
                    56:6b:be:1b:17:7e:61:1c:10:f5:8e:05:dd:1b:42:
                    94:89
                Exponent: 65537 (0x10001)
        X509v3 extensions:
            X509v3 Key Usage: critical
                Digital Signature, Key Encipherment
            X509v3 Basic Constraints: 
                CA:FALSE
            X509v3 Extended Key Usage: 
                TLS Web Server Authentication, TLS Web Client Authentication, Code Signing, E-mail Protection
            X509v3 Subject Key Identifier: 
                8E:12:BC:8B:56:39:9B:9C:DC:84:ED:AD:26:72:71:AA:6F:DA:8F:90
            X509v3 Authority Key Identifier: 
                9E:AD:B5:AC:D1:D7:CD:C7:0A:19:D7:DA:07:A3:A4:64:5A:D5:95:D4
            X509v3 Subject Alternative Name: 
                email:kb@lab5.ca, DNS:db.lab5.ca, DNS:db1.lab5.ca, IP Address:10.88.88.88, IP Address:127.0.0.1
    Signature Algorithm: sha256WithRSAEncryption
    Signature Value:
        76:0f:e1:9c:b4:82:80:92:05:5d:96:5f:f0:2e:a4:d3:61:cd:
        2a:4f:18:82:5a:ad:3f:d7:22:95:5b:6b:79:4b:ad:69:c9:a7:
        1b:34:f9:ca:a4:7d:36:6c:f9:4d:40:21:6b:c0:ad:a5:2d:af:
        f5:5b:68:f9:11:11:70:1f:1f:ee:85:b4:57:5e:9d:bd:a9:d4:
        c2:72:d2:a7:85:4d:b5:23:6d:1a:7c:60:fb:db:dc:8b:0a:d2:
        8a:b0:86:7d:06:84:a7:a8:d5:57:4f:b3:ff:9a:89:35:0b:41:
        93:97:5c:5a:d5:2b:35:b5:e8:20:fa:3b:15:9a:4b:b6:0c:4b:
        91:bd:72:0f:d3:a8:a4:db:2f:f5:b3:e6:16:e8:91:42:2c:63:
        7a:d9:b5:f6:c4:d8:3d:ca:c3:f2:e4:34:67:39:1d:b6:97:d0:
        15:6d:6e:af:df:dd:d0:4d:65:bf:69:a7:d4:f8:38:ed:14:96:
        ce:b5:f2:c9:16:e0:e0:af:15:46:6d:a6:e7:ab:0d:4d:b6:45:
        15:87:b0:69:b5:70:e8:81:75:ea:25:09:f0:6e:36:c7:31:91:
        e5:73:f8:20:ba:a0:22:30:2c:75:c2:90:c8:39:3a:62:dc:3d:
        33:9d:3e:49:9e:88:35:3b:39:ba:d9:70:b2:80:51:8a:e0:16:
        90:80:4b:7c
-----BEGIN CERTIFICATE-----
MIIETjCCAzagAwIBAgIUCilBbxNSpdfYoCjA+9hW4R9FvB8wDQYJKoZIhvcNAQEL
BQAwgYExEjAQBgoJkiaJk/IsZAEZFgJjYTEUMBIGCgmSJomT8ixkARkWBGxhYjUx
GTAXBgNVBAoMEExhYjUgRGV2T3BzIEluYy4xFDASBgNVBAsMC3d3dy5sYWI1LmNh
MSQwIgYDVQQDDBtMYWI1IERldk9wcyBJbmMuIElzc3VpbmcgQ0EwHhcNMjQwMzE3
MjEyMDA3WhcNMzQwMzE3MjEyMDA3WjBwMRIwEAYKCZImiZPyLGQBGRYCY2ExFDAS
BgoJkiaJk/IsZAEZFgRsYWI1MRkwFwYDVQQKDBBMYWI1IERldk9wcyBJbmMuMRQw
EgYDVQQLDAt3d3cubGFiNS5jYTETMBEGA1UEAwwKZGIubGFiNS5jYTCCASIwDQYJ
KoZIhvcNAQEBBQADggEPADCCAQoCggEBAOF3hi19JbzlSpogJG/NYAws9jexKTh2
TxIAjVFOZmF5jhBjfqYP7lnsFUxUeKOX5qDa3qgVagHwPvfaycfrTrGWnC5mWqVf
4uQ0eUGW0DP0krYB0eXIsmOctdd3bvCpqd9pFPUO2B0o5JxIAncj7psINn+izLnF
f4UvPHBLc/m1Y6XtF8cUKu7Plic/33QNKVzDVeojRaHP6Ox3jgwUqI4AUwaqtuH3
4dlCsPCFCKfZun4IVXPYy4IIlGt+8QBPpHfyqzf1rDL7CWxx/Qt4zDtwaWfMbJBX
W8MurFd4i7KQYXvcuUgtxcLPU3BVAHvnVmu+Gxd+YRwQ9Y4F3RtClIkCAwEAAaOB
zTCByjAOBgNVHQ8BAf8EBAMCBaAwCQYDVR0TBAIwADAxBgNVHSUEKjAoBggrBgEF
BQcDAQYIKwYBBQUHAwIGCCsGAQUFBwMDBggrBgEFBQcDBDAdBgNVHQ4EFgQUjhK8
i1Y5m5zchO2tJnJxqm/aj5AwHwYDVR0jBBgwFoAUnq21rNHXzccKGdfaB6OkZFrV
ldQwOgYDVR0RBDMwMYEKa2JAbGFiNS5jYYIKZGIubGFiNS5jYYILZGIxLmxhYjUu
Y2GHBApYWFiHBH8AAAEwDQYJKoZIhvcNAQELBQADggEBAHYP4Zy0goCSBV2WX/Au
pNNhzSpPGIJarT/XIpVba3lLrWnJpxs0+cqkfTZs+U1AIWvAraUtr/VbaPkREXAf
H+6FtFdenb2p1MJy0qeFTbUjbRp8YPvb3IsK0oqwhn0GhKeo1VdPs/+aiTULQZOX
XFrVKzW16CD6OxWaS7YMS5G9cg/TqKTbL/Wz5hbokUIsY3rZtfbE2D3Kw/LkNGc5
HbaX0BVtbq/f3dBNZb9pp9T4OO0Uls618skW4OCvFUZtpuerDU22RRWHsGm1cOiB
deolCfBuNscxkeVz+CC6oCIwLHXCkMg5OmLcPTOdPkmeiDU7ObrZcLKAUYrgFpCA
S3w=
-----END CERTIFICATE-----
