Certificate:
    Data:
        Version: 3 (0x2)
        Serial Number:
            0c:34:06:df:14:c8:28:82:a8:f5:20:5d:46:4f:96:c7:d2:67:63:4e
        Signature Algorithm: sha256WithRSAEncryption
        Issuer: DC=ca, DC=lab5, O=Lab5 DevOps Inc., OU=www.lab5.ca, CN=Lab5 DevOps Inc. Issuing CA
        Validity
            Not Before: May 21 05:22:02 2024 GMT
            Not After : May 21 05:22:02 2034 GMT
        Subject: DC=ca, DC=lab5, O=Lab5 DevOps Inc., OU=www.lab5.ca, CN=db.lab5.ca
        Subject Public Key Info:
            Public Key Algorithm: rsaEncryption
                Public-Key: (2048 bit)
                Modulus:
                    00:87:ab:67:da:16:05:db:9c:3d:a8:1f:f6:15:c4:
                    c1:30:ce:02:b5:4e:b1:99:eb:fd:fc:53:4b:77:d0:
                    55:b7:91:1f:7a:4f:d5:ca:3f:cd:7a:8d:e6:41:bc:
                    1c:7a:7d:5e:90:3a:71:b3:30:28:cf:aa:30:bb:e5:
                    fc:76:27:8e:0e:69:93:43:a6:1e:e2:15:35:e4:e9:
                    6c:2a:99:68:1e:08:23:be:2d:3d:6b:df:6b:91:29:
                    cc:b2:d5:7c:db:e5:a1:2b:22:15:a9:d6:62:3f:4d:
                    cd:04:78:00:3e:e5:21:47:98:ba:39:31:4e:da:2f:
                    5c:a8:98:e6:9f:3b:57:a0:f9:f0:c3:05:13:4f:83:
                    42:d0:e7:bb:6e:09:74:f4:be:5f:58:5f:bc:61:39:
                    3c:6b:b5:d8:7b:e6:ec:e2:b1:9f:08:71:f3:f5:50:
                    1b:3e:84:0f:00:e2:98:f3:ef:a2:17:fb:65:14:23:
                    f7:ff:09:6a:c5:5d:7e:b6:0b:20:39:f3:a8:45:eb:
                    da:58:2a:db:5a:9e:8c:c1:14:1b:b8:0d:17:34:7d:
                    da:40:31:b9:b5:76:0a:ee:a4:4b:10:8d:92:ad:42:
                    fc:5f:bf:17:75:f2:d0:3a:6c:0b:c1:0f:a6:cb:07:
                    a6:fd:6f:49:f1:a7:61:cb:4d:e4:23:d8:f1:7c:29:
                    e0:e5
                Exponent: 65537 (0x10001)
        X509v3 extensions:
            X509v3 Key Usage: critical
                Digital Signature, Key Encipherment
            X509v3 Basic Constraints: 
                CA:FALSE
            X509v3 Extended Key Usage: 
                TLS Web Server Authentication, TLS Web Client Authentication, Code Signing, E-mail Protection
            X509v3 Subject Key Identifier: 
                C3:0C:42:01:5E:C4:3E:14:D9:83:A8:9B:8F:AC:2A:79:63:70:B2:9F
            X509v3 Authority Key Identifier: 
                4E:84:73:4A:C4:B1:1F:59:9B:84:1C:98:2A:B3:4B:E6:82:6D:1F:D2
            X509v3 Subject Alternative Name: 
                DNS:db.lab5.ca
    Signature Algorithm: sha256WithRSAEncryption
    Signature Value:
        04:fb:f4:52:97:49:a6:ba:7a:29:6e:64:94:9a:ec:f2:2b:cf:
        86:1c:af:1b:5d:aa:95:42:a3:96:f0:da:5e:f0:6c:2a:c5:15:
        7f:40:1b:ac:d7:37:9c:a5:8b:b3:bc:16:de:d0:c6:52:70:2d:
        9a:8e:05:4c:0e:8f:25:e6:58:63:89:23:9a:ad:c0:53:1c:70:
        7f:a6:2e:b7:da:5b:10:54:96:90:8c:e9:30:da:d3:54:b3:68:
        7c:93:a1:bf:5e:99:61:03:35:91:7b:4f:1e:46:e3:5b:26:3a:
        67:5b:1b:64:2d:a8:84:76:ef:31:3d:0f:d2:0b:a7:35:d4:18:
        b2:47:23:e2:36:7a:b9:b0:39:b3:4d:b2:39:a0:5b:ef:55:e2:
        98:c5:c0:36:76:d7:05:e9:9b:bc:d1:69:d1:99:6a:89:da:df:
        84:b1:70:8a:4b:40:c4:5e:45:f0:ed:c7:21:d4:0e:2b:c1:dc:
        46:b4:84:05:5b:38:b6:d3:c2:28:7d:d9:fa:3f:97:1d:f6:e8:
        8d:cc:df:88:a6:95:a3:66:a2:5e:be:b2:6c:c7:3a:32:cb:17:
        2b:09:13:95:0e:8c:52:0d:4e:78:74:30:67:2b:03:01:d3:f9:
        27:8e:5f:5e:d6:14:1d:a7:9f:94:46:b7:68:4e:98:6e:80:9c:
        c6:d5:30:73:4f:2e:e8:dc:b6:aa:b3:1e:e7:9e:41:c5:25:a7:
        00:a0:85:2f:df:ae:05:eb:d2:c4:3e:82:8b:31:e5:c6:23:49:
        0b:e5:d5:be:4e:79:fa:7e:15:09:7b:a0:6f:d7:b1:4b:61:b6:
        0d:dd:9c:67:b8:02:56:e7:8d:13:9b:f2:76:32:06:09:4e:4c:
        4d:88:1d:34:4c:a4:0e:a8:ce:c0:81:ff:b1:b9:39:b6:da:d5:
        44:af:d3:d4:8a:25:a3:fb:63:58:08:f4:4e:ba:8f:33:69:43:
        c5:6c:6a:24:e4:ef:e9:a7:03:1b:c3:e4:a1:7d:e3:eb:86:eb:
        9d:52:4f:da:1a:56:60:3b:06:f3:1f:fe:1a:98:2f:2c:87:70:
        30:8b:04:cc:3d:a1:96:68:51:f1:98:45:aa:d7:cb:8c:09:80:
        b3:f0:16:17:53:32:4f:fa:63:ac:d1:3d:90:25:55:55:39:6d:
        dd:ea:aa:50:3a:9d:07:89:8a:8d:3b:10:0a:44:78:fe:b0:80:
        53:68:fd:10:ba:ee:77:0c:90:8d:b0:7a:77:7c:e2:f0:d9:94:
        a6:4b:e1:41:71:7e:28:67:c4:5e:0f:e7:a1:07:67:f3:90:f3:
        5b:2f:b5:1a:2f:19:2c:fa:79:de:e2:b6:99:17:2d:fa:24:16:
        1f:75:95:ae:38:d9:c7:36
-----BEGIN CERTIFICATE-----
MIIFKTCCAxGgAwIBAgIUDDQG3xTIKIKo9SBdRk+Wx9JnY04wDQYJKoZIhvcNAQEL
BQAwgYExEjAQBgoJkiaJk/IsZAEZFgJjYTEUMBIGCgmSJomT8ixkARkWBGxhYjUx
GTAXBgNVBAoMEExhYjUgRGV2T3BzIEluYy4xFDASBgNVBAsMC3d3dy5sYWI1LmNh
MSQwIgYDVQQDDBtMYWI1IERldk9wcyBJbmMuIElzc3VpbmcgQ0EwHhcNMjQwNTIx
MDUyMjAyWhcNMzQwNTIxMDUyMjAyWjBwMRIwEAYKCZImiZPyLGQBGRYCY2ExFDAS
BgoJkiaJk/IsZAEZFgRsYWI1MRkwFwYDVQQKDBBMYWI1IERldk9wcyBJbmMuMRQw
EgYDVQQLDAt3d3cubGFiNS5jYTETMBEGA1UEAwwKZGIubGFiNS5jYTCCASIwDQYJ
KoZIhvcNAQEBBQADggEPADCCAQoCggEBAIerZ9oWBducPagf9hXEwTDOArVOsZnr
/fxTS3fQVbeRH3pP1co/zXqN5kG8HHp9XpA6cbMwKM+qMLvl/HYnjg5pk0OmHuIV
NeTpbCqZaB4II74tPWvfa5EpzLLVfNvloSsiFanWYj9NzQR4AD7lIUeYujkxTtov
XKiY5p87V6D58MMFE0+DQtDnu24JdPS+X1hfvGE5PGu12Hvm7OKxnwhx8/VQGz6E
DwDimPPvohf7ZRQj9/8JasVdfrYLIDnzqEXr2lgq21qejMEUG7gNFzR92kAxubV2
Cu6kSxCNkq1C/F+/F3Xy0DpsC8EPpssHpv1vSfGnYctN5CPY8Xwp4OUCAwEAAaOB
qDCBpTAOBgNVHQ8BAf8EBAMCBaAwCQYDVR0TBAIwADAxBgNVHSUEKjAoBggrBgEF
BQcDAQYIKwYBBQUHAwIGCCsGAQUFBwMDBggrBgEFBQcDBDAdBgNVHQ4EFgQUwwxC
AV7EPhTZg6ibj6wqeWNwsp8wHwYDVR0jBBgwFoAUToRzSsSxH1mbhByYKrNL5oJt
H9IwFQYDVR0RBA4wDIIKZGIubGFiNS5jYTANBgkqhkiG9w0BAQsFAAOCAgEABPv0
UpdJprp6KW5klJrs8ivPhhyvG12qlUKjlvDaXvBsKsUVf0AbrNc3nKWLs7wW3tDG
UnAtmo4FTA6PJeZYY4kjmq3AUxxwf6Yut9pbEFSWkIzpMNrTVLNofJOhv16ZYQM1
kXtPHkbjWyY6Z1sbZC2ohHbvMT0P0gunNdQYskcj4jZ6ubA5s02yOaBb71XimMXA
NnbXBembvNFp0ZlqidrfhLFwiktAxF5F8O3HIdQOK8HcRrSEBVs4ttPCKH3Z+j+X
HfbojczfiKaVo2aiXr6ybMc6MssXKwkTlQ6MUg1OeHQwZysDAdP5J45fXtYUHaef
lEa3aE6YboCcxtUwc08u6Ny2qrMe555BxSWnAKCFL9+uBevSxD6CizHlxiNJC+XV
vk55+n4VCXugb9exS2G2Dd2cZ7gCVueNE5vydjIGCU5MTYgdNEykDqjOwIH/sbk5
ttrVRK/T1Iolo/tjWAj0TrqPM2lDxWxqJOTv6acDG8PkoX3j64brnVJP2hpWYDsG
8x/+GpgvLIdwMIsEzD2hlmhR8ZhFqtfLjAmAs/AWF1MyT/pjrNE9kCVVVTlt3eqq
UDqdB4mKjTsQCkR4/rCAU2j9ELrudwyQjbB6d3zi8NmUpkvhQXF+KGfEXg/noQdn
85DzWy+1Gi8ZLPp53uK2mRct+iQWH3WVrjjZxzY=
-----END CERTIFICATE-----
