Certificate:
    Data:
        Version: 3 (0x2)
        Serial Number:
            0c:d9:a3:3d:22:81:3a:af:58:3c:7b:af:29:5a:1b:a2:de:86:51:91
        Signature Algorithm: sha256WithRSAEncryption
        Issuer: DC=ca, DC=lab5, O=Lab5 DevOps Inc., OU=www.lab5.ca, CN=Lab5 DevOps Inc. Issuing CA
        Validity
            Not Before: May 19 17:35:59 2024 GMT
            Not After : May 19 17:35:59 2034 GMT
        Subject: DC=ca, DC=lab5, O=Lab5 DevOps Inc., OU=www.lab5.ca, CN=www.lab5.ca
        Subject Public Key Info:
            Public Key Algorithm: rsaEncryption
                Public-Key: (2048 bit)
                Modulus:
                    00:c6:4c:d7:49:62:1a:76:59:51:b7:18:de:ff:fa:
                    87:41:3b:3e:1e:e8:a8:f1:cb:d1:31:85:c6:c4:c8:
                    7e:d6:4b:8c:fe:f2:8d:aa:7f:a2:bd:82:e7:f2:c7:
                    8b:58:3b:0c:bc:a5:c9:e9:68:dc:7b:02:9e:6b:95:
                    a7:48:36:4a:16:ec:79:d3:ab:c8:e6:74:ae:b9:53:
                    45:ef:9b:ea:16:44:d2:c1:88:2f:b8:58:97:84:0f:
                    86:99:1e:ab:62:74:7c:19:1d:62:d0:80:bf:2b:b0:
                    a5:a5:80:b4:59:68:f9:23:7e:24:2f:aa:de:fa:c1:
                    43:5e:e8:4b:54:39:6f:c6:1d:e1:6e:55:af:e3:fd:
                    75:af:7c:68:07:1e:81:02:4a:84:88:3b:29:ca:bf:
                    a5:78:70:2f:9e:b0:85:b2:ff:e7:b9:3c:bf:7e:36:
                    2f:51:6f:f0:88:24:76:89:a8:b3:98:10:08:b2:7d:
                    44:9d:36:8c:9a:b7:4f:e5:84:32:42:c2:08:a9:ea:
                    1d:7f:0a:cc:3c:25:1f:b6:db:71:31:6c:d4:22:64:
                    96:8f:e4:79:65:0c:d1:37:ec:c8:43:b8:32:81:b7:
                    3a:f5:3c:78:a0:ce:c4:d0:bf:6c:75:b6:1b:43:fa:
                    7d:0c:93:17:4e:e1:10:1b:c4:b6:bf:99:46:7f:44:
                    49:79
                Exponent: 65537 (0x10001)
        X509v3 extensions:
            X509v3 Key Usage: critical
                Digital Signature, Key Encipherment
            X509v3 Basic Constraints: 
                CA:FALSE
            X509v3 Extended Key Usage: 
                TLS Web Server Authentication, TLS Web Client Authentication, Code Signing, E-mail Protection
            X509v3 Subject Key Identifier: 
                54:AF:04:F1:44:F7:AD:12:B3:33:72:B6:01:D6:87:F5:3C:67:11:9F
            X509v3 Authority Key Identifier: 
                4D:3D:92:D5:FE:45:D7:CB:D7:D7:5E:5A:65:52:69:EB:8D:56:D0:39
            X509v3 Subject Alternative Name: 
                DNS:www.lab5.ca, IP Address:127.0.0.1, email:user@email.com
    Signature Algorithm: sha256WithRSAEncryption
    Signature Value:
        7a:7a:33:63:11:c0:26:01:cb:b7:4d:c0:22:3b:4b:ac:dc:7b:
        e1:73:19:26:9e:d3:1a:ae:12:72:11:08:3c:f2:47:e3:88:d4:
        17:3e:a9:47:c4:c0:98:d6:50:9b:a0:bf:f6:fd:b5:14:3b:f8:
        8f:97:8f:5c:69:9c:f4:bc:0d:78:48:f3:ec:88:28:1b:58:a2:
        9a:ef:6e:4d:cb:cb:54:7f:d4:e9:41:99:24:d2:d7:ce:00:a5:
        e9:4a:e9:53:8b:61:12:9d:74:bc:3f:4b:72:bd:7b:35:4d:d9:
        07:b2:af:d9:c8:75:39:84:66:22:38:68:6c:8c:cd:4d:bf:08:
        2b:a2:ba:50:e5:42:95:87:11:85:42:48:c9:35:ae:cb:32:72:
        1e:de:c8:d6:ea:52:9f:07:72:9e:c5:ca:34:a3:e5:16:8c:d2:
        ef:c0:c1:c3:f9:77:52:e2:44:5a:3b:a0:ad:9e:f4:7f:80:0c:
        cf:85:64:a1:96:50:1c:1c:95:67:f7:c5:f1:09:12:00:96:ee:
        67:46:4d:26:aa:4f:d0:aa:2c:46:3c:71:ed:01:f9:9e:1a:7b:
        bb:c2:9b:15:b3:bf:07:ad:3d:6c:48:8b:01:62:ea:2a:9a:1b:
        d2:e6:ab:31:ea:5d:1b:f5:57:ec:e4:6e:4f:62:d1:d2:4c:94:
        52:53:cd:13:39:5d:56:76:28:60:a6:46:25:5c:9b:09:ae:50:
        46:22:e2:60:bb:8b:6a:75:e2:66:42:ac:68:cc:e9:0e:e0:79:
        43:ad:f7:ee:d5:d3:da:67:15:67:d3:b1:32:89:7e:22:b4:02:
        31:ec:f7:fa:33:f0:3a:a7:4d:ac:87:e8:bf:97:ce:da:99:e2:
        61:65:24:b6:cd:c5:ba:68:f7:c5:a2:4f:89:f0:a9:8a:16:d9:
        34:7c:79:14:e9:1b:ab:bb:01:89:fe:df:88:60:02:81:ad:51:
        0a:d8:40:34:ad:c4:b8:38:f9:92:7d:73:54:37:70:47:56:db:
        5e:75:4f:c7:13:0b:ad:e3:a2:0f:52:54:02:e2:05:c2:62:b2:
        f0:3d:0a:a5:23:eb:85:98:ce:65:16:c7:0d:af:57:fb:5b:bb:
        92:1d:8b:d9:de:ec:a7:d1:c0:85:ce:5e:e9:41:9e:37:86:ec:
        43:81:f7:bd:49:d9:2f:61:9c:f0:d9:cf:97:83:3f:45:6a:6d:
        a4:3e:d4:03:bf:07:c4:31:e3:40:da:81:0d:49:7e:44:68:ac:
        ac:5c:f0:1b:b0:4b:3e:4b:f0:e9:2d:4f:93:9f:f0:80:2c:27:
        ac:57:53:f7:a7:f4:8a:f7:3c:6e:9d:a0:92:21:1b:6a:0f:60:
        06:ea:36:2f:f0:e9:b6:71
-----BEGIN CERTIFICATE-----
MIIFQTCCAymgAwIBAgIUDNmjPSKBOq9YPHuvKVobot6GUZEwDQYJKoZIhvcNAQEL
BQAwgYExEjAQBgoJkiaJk/IsZAEZFgJjYTEUMBIGCgmSJomT8ixkARkWBGxhYjUx
GTAXBgNVBAoMEExhYjUgRGV2T3BzIEluYy4xFDASBgNVBAsMC3d3dy5sYWI1LmNh
MSQwIgYDVQQDDBtMYWI1IERldk9wcyBJbmMuIElzc3VpbmcgQ0EwHhcNMjQwNTE5
MTczNTU5WhcNMzQwNTE5MTczNTU5WjBxMRIwEAYKCZImiZPyLGQBGRYCY2ExFDAS
BgoJkiaJk/IsZAEZFgRsYWI1MRkwFwYDVQQKDBBMYWI1IERldk9wcyBJbmMuMRQw
EgYDVQQLDAt3d3cubGFiNS5jYTEUMBIGA1UEAwwLd3d3LmxhYjUuY2EwggEiMA0G
CSqGSIb3DQEBAQUAA4IBDwAwggEKAoIBAQDGTNdJYhp2WVG3GN7/+odBOz4e6Kjx
y9ExhcbEyH7WS4z+8o2qf6K9gufyx4tYOwy8pcnpaNx7Ap5rladINkoW7HnTq8jm
dK65U0Xvm+oWRNLBiC+4WJeED4aZHqtidHwZHWLQgL8rsKWlgLRZaPkjfiQvqt76
wUNe6EtUOW/GHeFuVa/j/XWvfGgHHoECSoSIOynKv6V4cC+esIWy/+e5PL9+Ni9R
b/CIJHaJqLOYEAiyfUSdNoyat0/lhDJCwgip6h1/Csw8JR+223ExbNQiZJaP5Hll
DNE37MhDuDKBtzr1PHigzsTQv2x1thtD+n0MkxdO4RAbxLa/mUZ/REl5AgMBAAGj
gb8wgbwwDgYDVR0PAQH/BAQDAgWgMAkGA1UdEwQCMAAwMQYDVR0lBCowKAYIKwYB
BQUHAwEGCCsGAQUFBwMCBggrBgEFBQcDAwYIKwYBBQUHAwQwHQYDVR0OBBYEFFSv
BPFE960SszNytgHWh/U8ZxGfMB8GA1UdIwQYMBaAFE09ktX+RdfL19deWmVSaeuN
VtA5MCwGA1UdEQQlMCOCC3d3dy5sYWI1LmNhhwR/AAABgQ51c2VyQGVtYWlsLmNv
bTANBgkqhkiG9w0BAQsFAAOCAgEAenozYxHAJgHLt03AIjtLrNx74XMZJp7TGq4S
chEIPPJH44jUFz6pR8TAmNZQm6C/9v21FDv4j5ePXGmc9LwNeEjz7IgoG1iimu9u
TcvLVH/U6UGZJNLXzgCl6UrpU4thEp10vD9Lcr17NU3ZB7Kv2ch1OYRmIjhobIzN
Tb8IK6K6UOVClYcRhUJIyTWuyzJyHt7I1upSnwdynsXKNKPlFozS78DBw/l3UuJE
WjugrZ70f4AMz4VkoZZQHByVZ/fF8QkSAJbuZ0ZNJqpP0KosRjxx7QH5nhp7u8Kb
FbO/B609bEiLAWLqKpob0uarMepdG/VX7ORuT2LR0kyUUlPNEzldVnYoYKZGJVyb
Ca5QRiLiYLuLanXiZkKsaMzpDuB5Q6337tXT2mcVZ9OxMol+IrQCMez3+jPwOqdN
rIfov5fO2pniYWUkts3Fumj3xaJPifCpihbZNHx5FOkbq7sBif7fiGACga1RCthA
NK3EuDj5kn1zVDdwR1bbXnVPxxMLreOiD1JUAuIFwmKy8D0KpSPrhZjOZRbHDa9X
+1u7kh2L2d7sp9HAhc5e6UGeN4bsQ4H3vUnZL2Gc8NnPl4M/RWptpD7UA78HxDHj
QNqBDUl+RGisrFzwG7BLPkvw6S1Pk5/wgCwnrFdT96f0ivc8bp2gkiEbag9gBuo2
L/DptnE=
-----END CERTIFICATE-----
