Certificate:
    Data:
        Version: 3 (0x2)
        Serial Number:
            0e:2b:d2:58:7b:95:15:50:8e:07:d6:da:50:83:e0:00:fa:15:17:a6
        Signature Algorithm: ED25519
        Issuer: DC=ca, DC=lab5, O=Lab5 DevOps Inc., OU=www.lab5.ca, CN=Lab5 DevOps Inc. Issuing CA
        Validity
            Not Before: Mar  2 15:06:13 2024 GMT
            Not After : Mar  2 15:06:13 2034 GMT
        Subject: DC=ca, DC=lab5, O=Lab5 DevOps Inc., OU=www.lab5.ca, CN=db.lab5.ca
        Subject Public Key Info:
            Public Key Algorithm: ED25519
                ED25519 Public-Key:
                pub:
                    f0:46:cf:53:79:39:b6:63:1f:12:ec:63:53:6d:5a:
                    1f:75:95:2f:7c:bb:19:f6:e1:23:bb:54:98:bc:2d:
                    21:b0
        X509v3 extensions:
            X509v3 Key Usage: critical
                Digital Signature, Key Encipherment
            X509v3 Basic Constraints: 
                CA:FALSE
            X509v3 Extended Key Usage: 
                TLS Web Server Authentication, TLS Web Client Authentication
            X509v3 Subject Key Identifier: 
                72:FE:89:76:4A:E7:AC:80:B3:2A:2B:76:DF:2D:F3:B3:71:80:4C:15
            X509v3 Authority Key Identifier: 
                73:EE:1D:17:BD:6B:FF:B1:1F:97:87:5D:9B:0D:DA:08:72:B4:EF:2B
            X509v3 Subject Alternative Name: 
                DNS:db.lab5.ca, DNS:db1.lab5.ca, IP Address:10.88.88.88, IP Address:127.0.0.1
    Signature Algorithm: ED25519
    Signature Value:
        17:1e:ad:f1:fd:30:0d:1c:3a:9b:1b:fd:2d:34:5e:2d:54:59:
        94:a2:6f:f8:e8:0f:a8:45:e0:a6:14:6e:e4:c3:75:ee:50:b0:
        2b:f6:53:3f:56:a1:ba:6b:5a:a9:01:01:9a:f2:3e:04:26:62:
        90:8b:75:5e:f1:86:d8:32:05:04
-----BEGIN CERTIFICATE-----
MIICYjCCAhSgAwIBAgIUDivSWHuVFVCOB9baUIPgAPoVF6YwBQYDK2VwMIGBMRIw
EAYKCZImiZPyLGQBGRYCY2ExFDASBgoJkiaJk/IsZAEZFgRsYWI1MRkwFwYDVQQK
DBBMYWI1IERldk9wcyBJbmMuMRQwEgYDVQQLDAt3d3cubGFiNS5jYTEkMCIGA1UE
AwwbTGFiNSBEZXZPcHMgSW5jLiBJc3N1aW5nIENBMB4XDTI0MDMwMjE1MDYxM1oX
DTM0MDMwMjE1MDYxM1owcDESMBAGCgmSJomT8ixkARkWAmNhMRQwEgYKCZImiZPy
LGQBGRYEbGFiNTEZMBcGA1UECgwQTGFiNSBEZXZPcHMgSW5jLjEUMBIGA1UECwwL
d3d3LmxhYjUuY2ExEzARBgNVBAMMCmRiLmxhYjUuY2EwKjAFBgMrZXADIQDwRs9T
eTm2Yx8S7GNTbVofdZUvfLsZ9uEju1SYvC0hsKOBrTCBqjAOBgNVHQ8BAf8EBAMC
BaAwCQYDVR0TBAIwADAdBgNVHSUEFjAUBggrBgEFBQcDAQYIKwYBBQUHAwIwHQYD
VR0OBBYEFHL+iXZK56yAsyordt8t87NxgEwVMB8GA1UdIwQYMBaAFHPuHRe9a/+x
H5eHXZsN2ghytO8rMC4GA1UdEQQnMCWCCmRiLmxhYjUuY2GCC2RiMS5sYWI1LmNh
hwQKWFhYhwR/AAABMAUGAytlcANBABcerfH9MA0cOpsb/S00Xi1UWZSib/joD6hF
4KYUbuTDde5QsCv2Uz9WobprWqkBAZryPgQmYpCLdV7xhtgyBQQ=
-----END CERTIFICATE-----
