Certificate:
    Data:
        Version: 3 (0x2)
        Serial Number:
            0f:df:f5:94:8a:a5:1a:6b:a6:c2:da:ae:26:95:95:72:0b:9e:1e:e5
        Signature Algorithm: sha256WithRSAEncryption
        Issuer: DC=ca, DC=lab5, O=Lab5 DevOps Inc., OU=www.lab5.ca, CN=Lab5 DevOps Inc. Issuing CA
        Validity
            Not Before: Mar 29 12:34:39 2024 GMT
            Not After : Mar 29 12:34:39 2034 GMT
        Subject: DC=ca, DC=lab5, O=Lab5 DevOps Inc., OU=www.lab5.ca, CN=www.lab5.ca
        Subject Public Key Info:
            Public Key Algorithm: rsaEncryption
                Public-Key: (2048 bit)
                Modulus:
                    00:e2:b6:2d:32:70:29:1b:f5:b4:e7:c0:1a:e3:05:
                    eb:44:c0:da:85:2a:97:e0:e9:1b:d4:55:a7:4e:5d:
                    74:ef:98:54:39:1b:1b:50:e8:e5:0c:e8:33:fd:37:
                    0d:90:a4:01:36:b4:ed:58:ef:df:84:51:b0:a8:ff:
                    d1:47:78:5e:16:7c:dc:e3:a3:18:22:31:ed:d7:f6:
                    3a:16:c8:bb:c9:de:6a:16:a5:8d:10:3a:f0:94:a2:
                    2e:19:31:70:3f:12:a1:0b:b8:1c:56:a7:71:78:c5:
                    92:bf:72:98:22:a7:cb:03:2d:88:d4:a7:06:20:db:
                    a2:2c:f8:d3:eb:fe:2f:6b:65:a8:84:79:d9:71:3b:
                    7a:f8:b4:90:47:73:b2:c8:4c:dd:37:ef:0c:c8:e0:
                    94:bb:c8:43:d8:f0:6d:de:0a:58:0c:dd:0e:f3:f5:
                    d3:8e:a6:97:61:c6:de:68:99:2d:9a:da:e1:53:c0:
                    55:49:64:e8:38:80:64:3b:aa:a6:5a:82:b1:37:e6:
                    1d:e3:10:ee:c5:a0:50:2c:76:98:ed:bf:dd:3f:c2:
                    37:a9:1e:68:ec:d9:57:11:c5:ce:bd:0a:bf:5c:23:
                    07:be:7e:b4:84:dd:9b:77:03:9c:48:df:50:9c:64:
                    c2:08:b1:35:5f:65:4b:12:4a:81:b3:04:ed:d2:79:
                    02:39
                Exponent: 65537 (0x10001)
        X509v3 extensions:
            X509v3 Key Usage: critical
                Digital Signature, Key Encipherment
            X509v3 Basic Constraints: 
                CA:FALSE
            X509v3 Extended Key Usage: 
                TLS Web Server Authentication, TLS Web Client Authentication, Code Signing, E-mail Protection
            X509v3 Subject Key Identifier: 
                FC:66:31:36:5A:54:48:16:46:B6:8C:05:DF:E6:91:A8:14:AC:81:90
            X509v3 Authority Key Identifier: 
                50:D9:15:D1:2E:4B:13:4A:FC:32:A5:BE:B6:C7:AE:F6:29:B8:3C:E7
            X509v3 Subject Alternative Name: 
                DNS:www.lab5.ca, IP Address:127.0.0.1, email:user@email.com
    Signature Algorithm: sha256WithRSAEncryption
    Signature Value:
        2a:bf:ce:2b:3e:d0:d2:e2:01:31:c5:74:2a:51:1f:4f:1c:db:
        3b:8d:ca:d8:24:4d:42:11:4e:15:c6:b6:8b:db:d7:94:2d:a0:
        82:0e:bb:87:cf:4d:52:f6:76:d0:77:b4:b1:3a:b4:f8:76:09:
        56:1e:41:6f:f9:34:61:9c:ae:31:96:d9:b5:ca:64:02:9d:c5:
        63:62:90:6a:b8:da:0a:3f:83:b6:c7:e6:8c:7c:1e:5b:05:e9:
        4a:d5:f0:ba:4b:1f:7f:b2:ac:f6:07:b3:f2:f4:a4:21:81:ba:
        8d:03:e6:63:83:19:5a:23:28:e6:1e:ee:e4:2a:98:87:21:fa:
        65:ce:75:20:b4:43:e0:88:c5:df:b0:b7:f0:17:2e:05:ef:1b:
        ef:ff:5e:bd:c9:6a:3e:25:89:c9:3e:a6:6d:b1:42:c9:0a:5d:
        04:66:d3:a9:c6:56:38:d7:2c:47:90:aa:e3:dc:99:25:a5:5a:
        dc:fd:18:40:02:15:19:09:4f:90:3a:3b:79:ee:45:d9:52:c8:
        a1:5c:d7:99:bf:4a:8f:38:65:13:a9:49:7f:2a:8b:5e:55:c9:
        3b:ce:5e:db:68:07:d6:5c:f8:ec:d4:e6:e0:6e:33:fe:53:b6:
        05:a6:44:63:42:02:2b:5c:72:37:5c:56:55:9a:ef:a4:26:ed:
        c2:bc:2f:c1:90:e4:bf:24:7b:0f:34:5c:da:28:7c:bd:88:74:
        eb:c7:e0:ea:51:06:e1:b4:eb:69:77:c3:87:a2:6b:93:3b:e5:
        1c:ea:9f:2e:00:90:08:17:3c:88:35:62:89:1c:52:3a:5d:e3:
        6d:ea:b6:cb:74:a3:9e:42:2f:74:63:b0:7f:8d:63:cc:71:e1:
        21:58:ba:59:68:a8:f2:55:9b:30:6f:9e:0f:0f:34:0b:08:f7:
        65:c3:b8:c4:62:de:d0:17:6a:45:cc:20:a1:20:97:46:58:30:
        b2:78:f9:bf:64:87:b7:ab:fc:53:8e:ad:c9:ff:19:46:9b:8b:
        55:27:c9:81:f8:d6:b1:42:5f:17:13:cd:51:cd:52:4e:2f:d6:
        d8:e8:e1:2b:6b:63:6e:dd:11:88:ef:43:5f:66:5a:fa:58:f5:
        bc:81:f4:8d:01:fb:f4:53:4b:85:b0:5c:ed:d9:9b:04:f4:79:
        2b:bc:e1:68:8a:4e:05:56:05:25:14:82:e4:03:b7:59:b5:f6:
        18:04:ba:fc:96:09:93:43:a2:7e:80:e2:ad:59:a5:ff:ec:e5:
        d8:a2:92:23:8f:40:b7:24:f0:4d:70:86:48:df:4f:1c:b8:10:
        e5:93:5e:1e:e1:37:34:66:82:3d:c7:1b:07:c3:fe:4b:41:13:
        46:b8:d9:92:0b:80:5b:92
-----BEGIN CERTIFICATE-----
MIIFQTCCAymgAwIBAgIUD9/1lIqlGmumwtquJpWVcgueHuUwDQYJKoZIhvcNAQEL
BQAwgYExEjAQBgoJkiaJk/IsZAEZFgJjYTEUMBIGCgmSJomT8ixkARkWBGxhYjUx
GTAXBgNVBAoMEExhYjUgRGV2T3BzIEluYy4xFDASBgNVBAsMC3d3dy5sYWI1LmNh
MSQwIgYDVQQDDBtMYWI1IERldk9wcyBJbmMuIElzc3VpbmcgQ0EwHhcNMjQwMzI5
MTIzNDM5WhcNMzQwMzI5MTIzNDM5WjBxMRIwEAYKCZImiZPyLGQBGRYCY2ExFDAS
BgoJkiaJk/IsZAEZFgRsYWI1MRkwFwYDVQQKDBBMYWI1IERldk9wcyBJbmMuMRQw
EgYDVQQLDAt3d3cubGFiNS5jYTEUMBIGA1UEAwwLd3d3LmxhYjUuY2EwggEiMA0G
CSqGSIb3DQEBAQUAA4IBDwAwggEKAoIBAQDiti0ycCkb9bTnwBrjBetEwNqFKpfg
6RvUVadOXXTvmFQ5GxtQ6OUM6DP9Nw2QpAE2tO1Y79+EUbCo/9FHeF4WfNzjoxgi
Me3X9joWyLvJ3moWpY0QOvCUoi4ZMXA/EqELuBxWp3F4xZK/cpgip8sDLYjUpwYg
26Is+NPr/i9rZaiEedlxO3r4tJBHc7LITN037wzI4JS7yEPY8G3eClgM3Q7z9dOO
ppdhxt5omS2a2uFTwFVJZOg4gGQ7qqZagrE35h3jEO7FoFAsdpjtv90/wjepHmjs
2VcRxc69Cr9cIwe+frSE3Zt3A5xI31CcZMIIsTVfZUsSSoGzBO3SeQI5AgMBAAGj
gb8wgbwwDgYDVR0PAQH/BAQDAgWgMAkGA1UdEwQCMAAwMQYDVR0lBCowKAYIKwYB
BQUHAwEGCCsGAQUFBwMCBggrBgEFBQcDAwYIKwYBBQUHAwQwHQYDVR0OBBYEFPxm
MTZaVEgWRraMBd/mkagUrIGQMB8GA1UdIwQYMBaAFFDZFdEuSxNK/DKlvrbHrvYp
uDznMCwGA1UdEQQlMCOCC3d3dy5sYWI1LmNhhwR/AAABgQ51c2VyQGVtYWlsLmNv
bTANBgkqhkiG9w0BAQsFAAOCAgEAKr/OKz7Q0uIBMcV0KlEfTxzbO43K2CRNQhFO
Fca2i9vXlC2ggg67h89NUvZ20He0sTq0+HYJVh5Bb/k0YZyuMZbZtcpkAp3FY2KQ
arjaCj+DtsfmjHweWwXpStXwuksff7Ks9gez8vSkIYG6jQPmY4MZWiMo5h7u5CqY
hyH6Zc51ILRD4IjF37C38BcuBe8b7/9evclqPiWJyT6mbbFCyQpdBGbTqcZWONcs
R5Cq49yZJaVa3P0YQAIVGQlPkDo7ee5F2VLIoVzXmb9KjzhlE6lJfyqLXlXJO85e
22gH1lz47NTm4G4z/lO2BaZEY0ICK1xyN1xWVZrvpCbtwrwvwZDkvyR7DzRc2ih8
vYh068fg6lEG4bTraXfDh6JrkzvlHOqfLgCQCBc8iDViiRxSOl3jbeq2y3SjnkIv
dGOwf41jzHHhIVi6WWio8lWbMG+eDw80Cwj3ZcO4xGLe0BdqRcwgoSCXRlgwsnj5
v2SHt6v8U46tyf8ZRpuLVSfJgfjWsUJfFxPNUc1STi/W2OjhK2tjbt0RiO9DX2Za
+lj1vIH0jQH79FNLhbBc7dmbBPR5K7zhaIpOBVYFJRSC5AO3WbX2GAS6/JYJk0Oi
foDirVml/+zl2KKSI49AtyTwTXCGSN9PHLgQ5ZNeHuE3NGaCPccbB8P+S0ETRrjZ
kguAW5I=
-----END CERTIFICATE-----
