Certificate:
    Data:
        Version: 3 (0x2)
        Serial Number:
            1f:c1:21:62:48:c7:bc:15:2a:bc:a2:dc:d4:24:92:ec:1e:41:73:4d
        Signature Algorithm: sha256WithRSAEncryption
        Issuer: DC=ca, DC=lab5, O=Lab5 DevOps Inc., OU=www.lab5.ca, CN=Lab5 DevOps Inc. Issuing CA
        Validity
            Not Before: May 21 17:15:54 2024 GMT
            Not After : May 21 17:15:54 2034 GMT
        Subject: DC=ca, DC=lab5, O=Lab5 DevOps Inc., OU=www.lab5.ca, CN=db.lab5.ca
        Subject Public Key Info:
            Public Key Algorithm: rsaEncryption
                Public-Key: (2048 bit)
                Modulus:
                    00:bb:7c:00:54:0d:cc:2c:fb:dd:c7:73:b3:cb:81:
                    ee:6f:26:d6:7e:e8:af:36:5e:05:15:82:69:b9:f8:
                    00:5d:a0:c4:f3:68:cb:05:c9:14:7d:d3:a6:a9:32:
                    76:77:e4:a7:d4:a9:01:3b:96:92:c3:8c:25:42:1d:
                    23:b9:23:9b:7e:2e:32:6e:4e:19:af:af:e5:03:b2:
                    39:41:53:ca:91:09:a7:fa:9a:cd:f2:9c:86:62:4d:
                    15:6d:93:8c:32:ec:d0:cf:fa:97:2b:b6:35:89:01:
                    90:b0:aa:c7:19:fe:7b:eb:80:6b:91:b8:b0:b3:93:
                    27:c7:d6:4f:10:db:5f:87:dc:12:66:7f:0d:88:fb:
                    7c:95:ba:04:10:6d:ef:ba:8e:1c:67:b4:1a:50:b4:
                    a2:6f:55:8a:75:ff:2b:7e:b0:c9:66:d9:81:cf:da:
                    f3:ac:7e:6b:39:e6:ca:27:68:54:83:9a:09:a9:2a:
                    3b:48:ce:ce:f0:d3:ce:83:15:bf:1a:83:d9:9e:b8:
                    b3:ec:e8:b2:4a:d0:65:7a:58:ac:48:10:5f:2d:c6:
                    7d:88:81:47:f8:e7:e7:8b:f3:55:22:98:fd:59:1e:
                    e9:40:b5:ef:47:60:2c:07:72:d5:a7:5b:3f:cf:a5:
                    d1:ba:9e:ec:98:f5:14:b9:6a:fd:59:75:fa:b0:eb:
                    93:91
                Exponent: 65537 (0x10001)
        X509v3 extensions:
            X509v3 Key Usage: critical
                Digital Signature, Key Encipherment
            X509v3 Basic Constraints: 
                CA:FALSE
            X509v3 Extended Key Usage: 
                TLS Web Server Authentication, TLS Web Client Authentication, Code Signing, E-mail Protection
            X509v3 Subject Key Identifier: 
                E6:E3:97:7D:C3:ED:33:9A:A4:60:5A:FB:D8:49:34:80:B9:D7:D3:E7
            X509v3 Authority Key Identifier: 
                97:28:C5:D2:F9:A3:FC:DF:12:1B:6B:65:FF:41:C1:C5:2C:EE:5A:CC
            X509v3 Subject Alternative Name: 
                DNS:db.lab5.ca
    Signature Algorithm: sha256WithRSAEncryption
    Signature Value:
        4b:c9:58:cc:f0:95:16:d7:24:80:dd:b7:de:0f:5d:b6:49:67:
        3f:51:0f:24:d9:13:be:3e:e4:d4:46:25:0d:c4:58:70:21:5b:
        f0:a8:10:d5:8a:a3:84:9d:39:2b:a6:f3:d1:20:d0:99:73:36:
        e9:53:de:84:53:49:7c:e5:03:4d:a4:5c:99:6b:1a:d8:15:0a:
        98:19:77:35:af:c8:17:60:f1:a0:0b:00:ac:3a:f7:3f:8a:6e:
        1c:fa:28:3a:4c:94:f2:dc:7c:72:14:46:1f:08:26:82:20:73:
        3d:0d:3e:02:18:39:74:da:43:19:71:b9:5a:0c:36:1a:a8:c7:
        7d:3a:50:18:db:63:06:74:a9:72:22:ec:4f:82:48:de:c3:db:
        58:92:ce:d4:c9:10:ee:85:87:80:7a:d1:0b:0e:89:e8:d2:88:
        04:1a:89:57:48:75:a8:7e:15:00:72:a9:1a:a3:54:9c:b5:61:
        74:1b:e5:27:01:7b:96:9c:48:a4:86:85:08:6b:5e:32:2b:5a:
        89:f1:93:8d:30:70:d1:f2:f7:1c:6a:d4:cf:86:a4:a9:c5:27:
        fe:a4:6e:44:0b:7e:30:6a:1b:93:1e:28:c2:69:b1:3a:55:6c:
        6b:73:bd:58:cb:42:d4:48:3a:27:99:f1:c0:f6:fd:d3:f5:7f:
        31:2b:cb:44:cc:26:cc:04:9d:fa:29:35:53:40:7e:7e:41:ac:
        78:3f:27:1d:25:05:dd:67:a9:2f:fe:38:25:54:3f:1c:1a:29:
        d1:9c:8b:c1:48:f3:3c:bb:f8:5b:94:e4:da:32:83:47:61:b0:
        14:93:89:a1:30:35:f3:00:9e:42:18:0f:e1:44:60:c5:b8:e1:
        18:3b:f1:57:3b:a3:c5:11:4c:13:b6:de:a7:27:7c:36:29:13:
        95:a3:9c:f6:74:cc:72:ab:68:b9:e0:dd:51:bf:ef:8e:73:77:
        2d:06:9c:df:6f:ca:07:65:09:6a:da:05:de:dc:9b:3a:5e:e3:
        90:9a:61:2b:45:23:8a:5d:72:4d:54:b0:10:f3:86:56:e2:fd:
        fd:27:18:c8:03:cd:b4:9b:dc:86:10:cc:bd:57:c7:10:2e:cd:
        6c:2f:34:7f:bc:66:6f:74:3c:7d:9c:3c:5b:2f:13:d8:ff:f2:
        e4:c4:13:b6:fa:91:b1:fd:5b:98:4a:cb:a2:ca:55:a7:38:7a:
        ad:d1:41:63:33:b9:e6:4d:ec:03:19:62:ae:87:40:6d:00:21:
        40:47:22:9a:d3:40:c3:87:6d:fc:8b:c3:b3:e7:b9:1c:db:c6:
        bb:4f:dd:59:3b:c4:21:38:f9:48:8f:36:79:0e:6d:ff:68:7a:
        4f:3e:66:22:3d:aa:9e:af
-----BEGIN CERTIFICATE-----
MIIFKTCCAxGgAwIBAgIUH8EhYkjHvBUqvKLc1CSS7B5Bc00wDQYJKoZIhvcNAQEL
BQAwgYExEjAQBgoJkiaJk/IsZAEZFgJjYTEUMBIGCgmSJomT8ixkARkWBGxhYjUx
GTAXBgNVBAoMEExhYjUgRGV2T3BzIEluYy4xFDASBgNVBAsMC3d3dy5sYWI1LmNh
MSQwIgYDVQQDDBtMYWI1IERldk9wcyBJbmMuIElzc3VpbmcgQ0EwHhcNMjQwNTIx
MTcxNTU0WhcNMzQwNTIxMTcxNTU0WjBwMRIwEAYKCZImiZPyLGQBGRYCY2ExFDAS
BgoJkiaJk/IsZAEZFgRsYWI1MRkwFwYDVQQKDBBMYWI1IERldk9wcyBJbmMuMRQw
EgYDVQQLDAt3d3cubGFiNS5jYTETMBEGA1UEAwwKZGIubGFiNS5jYTCCASIwDQYJ
KoZIhvcNAQEBBQADggEPADCCAQoCggEBALt8AFQNzCz73cdzs8uB7m8m1n7orzZe
BRWCabn4AF2gxPNoywXJFH3Tpqkydnfkp9SpATuWksOMJUIdI7kjm34uMm5OGa+v
5QOyOUFTypEJp/qazfKchmJNFW2TjDLs0M/6lyu2NYkBkLCqxxn+e+uAa5G4sLOT
J8fWTxDbX4fcEmZ/DYj7fJW6BBBt77qOHGe0GlC0om9VinX/K36wyWbZgc/a86x+
aznmyidoVIOaCakqO0jOzvDTzoMVvxqD2Z64s+zoskrQZXpYrEgQXy3GfYiBR/jn
54vzVSKY/Vke6UC170dgLAdy1adbP8+l0bqe7Jj1FLlq/Vl1+rDrk5ECAwEAAaOB
qDCBpTAOBgNVHQ8BAf8EBAMCBaAwCQYDVR0TBAIwADAxBgNVHSUEKjAoBggrBgEF
BQcDAQYIKwYBBQUHAwIGCCsGAQUFBwMDBggrBgEFBQcDBDAdBgNVHQ4EFgQU5uOX
fcPtM5qkYFr72Ek0gLnX0+cwHwYDVR0jBBgwFoAUlyjF0vmj/N8SG2tl/0HBxSzu
WswwFQYDVR0RBA4wDIIKZGIubGFiNS5jYTANBgkqhkiG9w0BAQsFAAOCAgEAS8lY
zPCVFtckgN233g9dtklnP1EPJNkTvj7k1EYlDcRYcCFb8KgQ1YqjhJ05K6bz0SDQ
mXM26VPehFNJfOUDTaRcmWsa2BUKmBl3Na/IF2DxoAsArDr3P4puHPooOkyU8tx8
chRGHwgmgiBzPQ0+Ahg5dNpDGXG5Wgw2GqjHfTpQGNtjBnSpciLsT4JI3sPbWJLO
1MkQ7oWHgHrRCw6J6NKIBBqJV0h1qH4VAHKpGqNUnLVhdBvlJwF7lpxIpIaFCGte
MitaifGTjTBw0fL3HGrUz4akqcUn/qRuRAt+MGobkx4owmmxOlVsa3O9WMtC1Eg6
J5nxwPb90/V/MSvLRMwmzASd+ik1U0B+fkGseD8nHSUF3WepL/44JVQ/HBop0ZyL
wUjzPLv4W5Tk2jKDR2GwFJOJoTA18wCeQhgP4URgxbjhGDvxVzujxRFME7bepyd8
NikTlaOc9nTMcqtoueDdUb/vjnN3LQac32/KB2UJatoF3tybOl7jkJphK0Ujil1y
TVSwEPOGVuL9/ScYyAPNtJvchhDMvVfHEC7NbC80f7xmb3Q8fZw8Wy8T2P/y5MQT
tvqRsf1bmErLospVpzh6rdFBYzO55k3sAxlirodAbQAhQEcimtNAw4dt/IvDs+e5
HNvGu0/dWTvEITj5SI82eQ5t/2h6Tz5mIj2qnq8=
-----END CERTIFICATE-----
