Certificate:
    Data:
        Version: 3 (0x2)
        Serial Number:
            20:80:fc:61:0e:40:fe:c3:10:75:42:6d:d8:1a:86:8c:76:1a:92:6a
        Signature Algorithm: ED25519
        Issuer: DC=ca, DC=lab5, O=Lab5 DevOps Inc., OU=www.lab5.ca, CN=Lab5 DevOps Inc. Issuing CA
        Validity
            Not Before: Mar  2 15:07:26 2024 GMT
            Not After : Mar  2 15:07:26 2034 GMT
        Subject: DC=ca, DC=lab5, O=Lab5 DevOps Inc., OU=www.lab5.ca, CN=www.lab5.ca
        Subject Public Key Info:
            Public Key Algorithm: ED25519
                ED25519 Public-Key:
                pub:
                    e2:d1:bf:1c:98:0f:2c:b4:0a:cf:20:87:0c:71:1b:
                    3c:0a:cc:6c:0b:63:50:b1:78:d0:02:c4:73:d3:44:
                    7c:bf
        X509v3 extensions:
            X509v3 Key Usage: critical
                Digital Signature, Key Encipherment
            X509v3 Basic Constraints: 
                CA:FALSE
            X509v3 Extended Key Usage: 
                TLS Web Server Authentication, TLS Web Client Authentication
            X509v3 Subject Key Identifier: 
                43:09:4B:7B:72:4B:25:E0:40:6C:3C:05:00:D4:F0:F7:8C:E0:DA:1C
            X509v3 Authority Key Identifier: 
                73:EE:1D:17:BD:6B:FF:B1:1F:97:87:5D:9B:0D:DA:08:72:B4:EF:2B
            X509v3 Subject Alternative Name: 
                DNS:www.lab5.ca, DNS:log.lab5.ca, IP Address:10.99.99.100, IP Address:127.0.0.1
    Signature Algorithm: ED25519
    Signature Value:
        a7:72:c2:b5:95:09:f6:a0:47:38:9c:28:e5:d8:98:3b:4a:7e:
        f4:0b:20:fe:fe:72:4e:52:5d:89:88:8e:5c:5a:3e:a5:77:e3:
        b7:d2:ca:3f:f6:fb:48:c9:f0:60:64:6b:7f:d0:4c:75:69:14:
        16:0b:a3:4f:f2:1b:fd:f7:9d:05
-----BEGIN CERTIFICATE-----
MIICZDCCAhagAwIBAgIUIID8YQ5A/sMQdUJt2BqGjHYakmowBQYDK2VwMIGBMRIw
EAYKCZImiZPyLGQBGRYCY2ExFDASBgoJkiaJk/IsZAEZFgRsYWI1MRkwFwYDVQQK
DBBMYWI1IERldk9wcyBJbmMuMRQwEgYDVQQLDAt3d3cubGFiNS5jYTEkMCIGA1UE
AwwbTGFiNSBEZXZPcHMgSW5jLiBJc3N1aW5nIENBMB4XDTI0MDMwMjE1MDcyNloX
DTM0MDMwMjE1MDcyNlowcTESMBAGCgmSJomT8ixkARkWAmNhMRQwEgYKCZImiZPy
LGQBGRYEbGFiNTEZMBcGA1UECgwQTGFiNSBEZXZPcHMgSW5jLjEUMBIGA1UECwwL
d3d3LmxhYjUuY2ExFDASBgNVBAMMC3d3dy5sYWI1LmNhMCowBQYDK2VwAyEA4tG/
HJgPLLQKzyCHDHEbPArMbAtjULF40ALEc9NEfL+jga4wgaswDgYDVR0PAQH/BAQD
AgWgMAkGA1UdEwQCMAAwHQYDVR0lBBYwFAYIKwYBBQUHAwEGCCsGAQUFBwMCMB0G
A1UdDgQWBBRDCUt7cksl4EBsPAUA1PD3jODaHDAfBgNVHSMEGDAWgBRz7h0XvWv/
sR+Xh12bDdoIcrTvKzAvBgNVHREEKDAmggt3d3cubGFiNS5jYYILbG9nLmxhYjUu
Y2GHBApjY2SHBH8AAAEwBQYDK2VwA0EAp3LCtZUJ9qBHOJwo5diYO0p+9Asg/v5y
TlJdiYiOXFo+pXfjt9LKP/b7SMnwYGRrf9BMdWkUFgujT/Ib/fedBQ==
-----END CERTIFICATE-----
