Certificate:
    Data:
        Version: 3 (0x2)
        Serial Number:
            26:6f:41:df:2c:9a:97:be:52:b8:6f:62:7c:bf:ae:d1:a6:ea:08:7c
        Signature Algorithm: sha256WithRSAEncryption
        Issuer: DC=ca, DC=lab5, O=Lab5 DevOps Inc., OU=www.lab5.ca, CN=Lab5 DevOps Inc. Issuing CA
        Validity
            Not Before: May 21 16:23:56 2024 GMT
            Not After : May 21 16:23:56 2034 GMT
        Subject: DC=ca, DC=lab5, O=Lab5 DevOps Inc., OU=www.lab5.ca, CN=www.lab5.ca
        Subject Public Key Info:
            Public Key Algorithm: rsaEncryption
                Public-Key: (2048 bit)
                Modulus:
                    00:c0:35:bb:cc:c6:a4:19:3a:8c:6d:58:2c:0c:c6:
                    67:d6:f4:4c:d2:68:b5:1f:09:91:bf:d6:73:69:2b:
                    bd:2f:c4:a4:f1:43:6d:72:f1:bb:cb:3b:5f:81:ea:
                    e0:34:b1:ad:2f:4a:c3:ea:66:7e:f5:01:bd:b5:32:
                    ca:6f:b2:71:f1:8d:79:79:89:34:0b:7e:7c:61:ab:
                    78:c2:84:d3:97:d2:ab:78:f9:bd:2f:62:7e:d6:71:
                    fa:16:31:e0:64:20:dd:af:e0:df:59:e2:ba:e3:30:
                    3e:b1:58:76:32:af:94:56:69:ff:c0:35:93:14:6a:
                    08:5e:b9:68:cf:ff:90:9b:83:8a:d7:0a:d3:1f:87:
                    8c:0f:01:59:54:40:e2:90:e5:54:ea:01:c1:0e:2b:
                    06:90:5c:92:9c:47:7e:61:b4:77:69:67:77:c5:10:
                    0b:45:98:69:94:3b:73:8c:97:58:50:b6:f6:68:d6:
                    6b:7c:6d:f5:cc:37:cb:1b:f2:a1:bf:91:12:83:94:
                    7b:e4:12:99:cd:6b:86:e3:56:b4:2b:7d:3a:ef:cd:
                    7a:e8:49:d1:06:68:ae:72:4b:c7:ad:51:19:28:cd:
                    ae:5a:6c:af:b2:09:78:39:f8:6b:85:43:0c:3b:b6:
                    22:19:19:48:e3:6b:ed:2b:0a:ec:72:23:89:eb:5c:
                    4d:91
                Exponent: 65537 (0x10001)
        X509v3 extensions:
            X509v3 Key Usage: critical
                Digital Signature, Key Encipherment
            X509v3 Basic Constraints: 
                CA:FALSE
            X509v3 Extended Key Usage: 
                TLS Web Server Authentication, TLS Web Client Authentication, Code Signing, E-mail Protection
            X509v3 Subject Key Identifier: 
                23:84:6A:26:8E:44:80:91:6A:1B:78:4C:39:F4:C4:3F:49:FF:37:A5
            X509v3 Authority Key Identifier: 
                EB:68:5E:12:38:6A:B1:E9:BA:1B:28:60:23:DE:EB:15:DF:67:64:AD
            X509v3 Subject Alternative Name: 
                DNS:www.lab5.ca, IP Address:127.0.0.1, email:user@email.com
    Signature Algorithm: sha256WithRSAEncryption
    Signature Value:
        42:55:29:37:1c:5c:fb:39:d4:97:72:6f:d3:ff:73:3c:ed:cb:
        c1:36:b0:4f:8a:bd:48:b0:d0:70:c9:f5:44:0f:fd:a2:89:10:
        62:e3:5f:2d:a5:4e:91:21:fe:e1:78:56:0e:60:68:02:81:c2:
        8f:c0:b2:bf:d3:e7:89:40:bc:a1:38:75:8d:8e:28:9d:75:0c:
        3f:d7:6a:cf:fb:21:1d:7d:6d:24:92:66:bc:5b:d1:d7:94:d6:
        6c:2d:bd:04:ae:8a:e0:f3:7a:ed:5d:f0:73:3f:ec:1c:c5:26:
        bc:9d:51:c1:af:49:52:40:24:12:88:31:ab:89:c1:42:bd:e7:
        83:8c:42:e1:cb:73:f9:45:ce:8b:bd:cd:02:3a:45:f3:47:4e:
        d0:6c:25:be:0b:a9:d5:45:c5:7d:21:11:9f:c3:3a:ae:e3:eb:
        ff:7c:b2:13:26:76:ce:b1:da:5e:08:b0:ed:ba:ed:91:2d:0d:
        9d:1c:0f:84:2b:d1:b5:5b:d6:47:95:a6:43:8f:82:0a:9c:2f:
        98:60:52:07:cd:e3:6d:96:7a:e0:d3:18:2b:a3:c9:d3:7c:90:
        66:25:c6:fc:26:7a:f9:1e:d4:af:be:34:d4:64:20:4b:d1:e8:
        18:07:06:29:bc:4d:03:39:26:f3:7d:45:dd:78:e8:8d:ad:93:
        03:44:29:cd:16:0b:65:f7:27:a9:bd:9f:25:8c:1a:15:b9:00:
        41:f9:b9:66:94:40:e5:26:ab:02:ab:56:e0:ef:a4:05:58:55:
        7b:36:63:46:77:0f:65:cb:21:28:3b:cb:5a:41:db:44:92:db:
        7c:71:23:71:fc:e3:ee:92:42:1f:41:97:7b:4f:b3:ea:07:12:
        f8:7f:67:02:d7:4e:28:51:9d:fb:f6:12:43:3a:c0:5b:b1:23:
        5d:82:d9:cc:5d:81:de:a4:4c:aa:d2:e3:e7:50:48:28:bc:18:
        b3:ac:97:59:97:b7:83:ad:c2:43:11:c8:62:79:04:fc:74:78:
        f9:f8:a9:75:cb:8d:e6:3f:c4:06:1f:65:96:f9:61:19:32:27:
        a0:a6:80:db:1f:59:b8:2b:7e:45:98:1a:8f:33:19:96:29:48:
        d0:8d:cd:fa:cf:c5:d5:e0:ee:0f:f2:e7:7f:cc:fb:c3:12:b2:
        7c:e5:f9:13:4d:cd:9b:e0:83:7e:35:68:e9:6d:23:d4:be:22:
        81:e3:f0:c6:20:5c:e6:d4:23:e1:94:a2:90:b9:4a:a7:c4:a3:
        a7:b0:c2:37:34:a6:2e:83:ce:de:f5:6a:1d:bb:a8:09:de:c0:
        9d:36:83:56:f5:db:43:08:2c:d4:87:84:68:bf:9e:e6:ba:0d:
        cf:89:a8:6c:7e:0f:2d:d5
-----BEGIN CERTIFICATE-----
MIIFQTCCAymgAwIBAgIUJm9B3yyal75SuG9ifL+u0abqCHwwDQYJKoZIhvcNAQEL
BQAwgYExEjAQBgoJkiaJk/IsZAEZFgJjYTEUMBIGCgmSJomT8ixkARkWBGxhYjUx
GTAXBgNVBAoMEExhYjUgRGV2T3BzIEluYy4xFDASBgNVBAsMC3d3dy5sYWI1LmNh
MSQwIgYDVQQDDBtMYWI1IERldk9wcyBJbmMuIElzc3VpbmcgQ0EwHhcNMjQwNTIx
MTYyMzU2WhcNMzQwNTIxMTYyMzU2WjBxMRIwEAYKCZImiZPyLGQBGRYCY2ExFDAS
BgoJkiaJk/IsZAEZFgRsYWI1MRkwFwYDVQQKDBBMYWI1IERldk9wcyBJbmMuMRQw
EgYDVQQLDAt3d3cubGFiNS5jYTEUMBIGA1UEAwwLd3d3LmxhYjUuY2EwggEiMA0G
CSqGSIb3DQEBAQUAA4IBDwAwggEKAoIBAQDANbvMxqQZOoxtWCwMxmfW9EzSaLUf
CZG/1nNpK70vxKTxQ21y8bvLO1+B6uA0sa0vSsPqZn71Ab21MspvsnHxjXl5iTQL
fnxhq3jChNOX0qt4+b0vYn7WcfoWMeBkIN2v4N9Z4rrjMD6xWHYyr5RWaf/ANZMU
agheuWjP/5Cbg4rXCtMfh4wPAVlUQOKQ5VTqAcEOKwaQXJKcR35htHdpZ3fFEAtF
mGmUO3OMl1hQtvZo1mt8bfXMN8sb8qG/kRKDlHvkEpnNa4bjVrQrfTrvzXroSdEG
aK5yS8etURkoza5abK+yCXg5+GuFQww7tiIZGUjja+0rCuxyI4nrXE2RAgMBAAGj
gb8wgbwwDgYDVR0PAQH/BAQDAgWgMAkGA1UdEwQCMAAwMQYDVR0lBCowKAYIKwYB
BQUHAwEGCCsGAQUFBwMCBggrBgEFBQcDAwYIKwYBBQUHAwQwHQYDVR0OBBYEFCOE
aiaORICRaht4TDn0xD9J/zelMB8GA1UdIwQYMBaAFOtoXhI4arHpuhsoYCPe6xXf
Z2StMCwGA1UdEQQlMCOCC3d3dy5sYWI1LmNhhwR/AAABgQ51c2VyQGVtYWlsLmNv
bTANBgkqhkiG9w0BAQsFAAOCAgEAQlUpNxxc+znUl3Jv0/9zPO3LwTawT4q9SLDQ
cMn1RA/9ookQYuNfLaVOkSH+4XhWDmBoAoHCj8Cyv9PniUC8oTh1jY4onXUMP9dq
z/shHX1tJJJmvFvR15TWbC29BK6K4PN67V3wcz/sHMUmvJ1Rwa9JUkAkEogxq4nB
Qr3ng4xC4ctz+UXOi73NAjpF80dO0Gwlvgup1UXFfSERn8M6ruPr/3yyEyZ2zrHa
Xgiw7brtkS0NnRwPhCvRtVvWR5WmQ4+CCpwvmGBSB83jbZZ64NMYK6PJ03yQZiXG
/CZ6+R7Ur7401GQgS9HoGAcGKbxNAzkm831F3Xjoja2TA0QpzRYLZfcnqb2fJYwa
FbkAQfm5ZpRA5SarAqtW4O+kBVhVezZjRncPZcshKDvLWkHbRJLbfHEjcfzj7pJC
H0GXe0+z6gcS+H9nAtdOKFGd+/YSQzrAW7EjXYLZzF2B3qRMqtLj51BIKLwYs6yX
WZe3g63CQxHIYnkE/HR4+fipdcuN5j/EBh9llvlhGTInoKaA2x9ZuCt+RZgajzMZ
lilI0I3N+s/F1eDuD/Lnf8z7wxKyfOX5E03Nm+CDfjVo6W0j1L4igePwxiBc5tQj
4ZSikLlKp8Sjp7DCNzSmLoPO3vVqHbuoCd7AnTaDVvXbQwgs1IeEaL+e5roNz4mo
bH4PLdU=
-----END CERTIFICATE-----
