Certificate:
    Data:
        Version: 3 (0x2)
        Serial Number:
            26:f0:95:5c:d5:b6:de:ee:b7:7d:b6:f8:d4:e9:e1:ee:58:81:aa:34
        Signature Algorithm: sha256WithRSAEncryption
        Issuer: DC=ca, DC=lab5, O=Lab5 DevOps Inc., OU=www.lab5.ca, CN=Lab5 DevOps Inc. Issuing CA
        Validity
            Not Before: May 21 16:17:11 2024 GMT
            Not After : May 21 16:17:11 2034 GMT
        Subject: DC=ca, DC=lab5, O=Lab5 DevOps Inc., OU=www.lab5.ca, CN=db.lab5.ca
        Subject Public Key Info:
            Public Key Algorithm: rsaEncryption
                Public-Key: (2048 bit)
                Modulus:
                    00:af:d9:e3:34:67:b4:dc:1a:30:1c:a1:a7:58:64:
                    03:fc:f8:ef:a6:4a:9f:1a:f8:6e:9d:b4:c9:04:d0:
                    ec:3d:36:33:6b:71:d1:85:9f:a3:f8:6a:4a:0a:30:
                    52:6c:9d:22:de:33:11:d2:16:ea:85:65:ac:97:df:
                    9d:8d:b0:b2:22:5d:8b:b8:ef:29:76:2a:de:f1:66:
                    d3:89:3d:cf:6a:a8:d6:63:e1:9b:88:4c:ca:86:5b:
                    db:a5:2d:37:97:4f:8f:0f:3f:30:29:30:b2:e0:5b:
                    17:2a:8e:79:80:0e:bc:d8:74:24:16:db:20:71:6d:
                    ba:34:c8:dc:4a:ed:6c:66:9d:c2:83:3d:51:81:fa:
                    53:b1:0f:8f:13:61:02:03:81:04:d5:5c:1d:d1:bb:
                    95:8d:30:10:0d:dd:f0:97:ec:7d:82:96:8b:cd:3a:
                    a9:92:1c:a5:3e:5f:75:29:6f:41:ac:9a:67:4f:ab:
                    72:dd:5b:63:fd:37:69:9d:e1:70:ce:da:e2:39:84:
                    6b:12:ae:c9:b4:d5:23:f2:78:e5:f2:68:a2:21:ac:
                    fa:1a:a9:d8:c5:1f:79:73:2e:71:e7:54:ba:72:a3:
                    ac:c7:4f:73:e3:21:1d:03:07:9f:cf:16:fb:31:ba:
                    96:5f:a5:e7:d2:e2:1c:42:f2:41:03:75:92:e4:63:
                    2e:4f
                Exponent: 65537 (0x10001)
        X509v3 extensions:
            X509v3 Key Usage: critical
                Digital Signature, Key Encipherment
            X509v3 Basic Constraints: 
                CA:FALSE
            X509v3 Extended Key Usage: 
                TLS Web Server Authentication, TLS Web Client Authentication, Code Signing, E-mail Protection
            X509v3 Subject Key Identifier: 
                7B:07:AE:ED:B3:71:0E:43:25:6E:47:F0:8A:C8:8F:98:84:19:15:37
            X509v3 Authority Key Identifier: 
                EB:68:5E:12:38:6A:B1:E9:BA:1B:28:60:23:DE:EB:15:DF:67:64:AD
            X509v3 Subject Alternative Name: 
                DNS:db.lab5.ca
    Signature Algorithm: sha256WithRSAEncryption
    Signature Value:
        55:46:ac:d1:b5:da:af:73:cd:ba:4d:01:27:da:6f:0b:b5:56:
        29:38:ad:46:9a:85:3b:d3:ae:97:5c:d5:60:52:80:af:a4:83:
        45:6a:1a:23:5d:f2:37:a4:b0:0d:4e:4f:05:42:05:41:d2:fa:
        e3:e8:7a:e2:c8:fd:e9:53:0a:e8:db:7e:b4:4b:63:a7:ec:8f:
        79:94:f0:1b:ab:66:7a:0a:7c:34:01:01:e3:d7:9b:ce:2a:9d:
        f4:6c:f3:9f:33:02:45:24:39:3a:7d:84:f8:05:5f:b9:93:6e:
        51:75:fb:11:7d:cb:8f:1e:ad:96:65:f7:0b:a9:bc:62:33:a8:
        03:ec:ac:88:37:c4:bd:9d:10:3c:57:f2:a7:7e:e4:f0:3e:1a:
        b5:38:37:2c:a3:5c:ce:d6:f8:20:d6:da:c7:70:a8:11:ab:cb:
        cc:c7:f6:1e:e8:98:65:86:50:44:a6:eb:cb:91:27:2a:71:ef:
        60:3d:9e:cb:20:cf:9e:26:7c:d2:e6:32:d3:ca:c7:9c:9b:c3:
        9e:8a:a6:8f:92:60:a6:d7:ad:90:66:84:fa:bc:6a:82:21:d7:
        74:d3:f3:30:cd:1c:4a:e2:99:2d:d0:7b:9a:5f:f3:a6:7a:1a:
        33:cc:cf:5f:2c:de:33:d9:b4:0f:e5:9b:07:db:69:c7:94:62:
        fc:4d:54:81:3e:18:0b:32:fb:b7:6b:cf:e0:72:94:61:52:a9:
        58:7a:60:ef:19:90:d4:86:2b:84:95:86:37:75:92:4b:37:de:
        78:9b:29:8d:c6:8a:19:c4:86:26:50:d9:8c:6e:81:a8:79:c1:
        6d:72:a7:7d:39:a7:71:a3:41:80:7b:99:9f:69:b3:c8:e0:bf:
        d9:fb:bc:ba:da:d1:12:cb:91:b5:97:0d:86:67:b6:a3:3e:87:
        4c:ac:4c:22:52:86:b1:d4:7b:54:2d:63:c5:b9:45:3e:df:b5:
        8d:d3:a3:c1:ce:44:bb:d3:e8:5e:0d:e1:68:bd:b6:b6:e9:2f:
        dd:f5:7c:1e:75:4c:e2:ce:98:2f:a6:be:54:06:97:33:87:ad:
        17:fc:98:3a:60:db:aa:37:31:b6:ce:27:c0:d5:b0:f7:ee:97:
        96:80:91:27:a5:59:5e:c1:fc:45:ec:ea:52:5a:20:3c:f2:59:
        b5:d5:5d:4b:2c:87:62:38:9b:03:2e:d8:d2:4c:c6:ea:c1:8d:
        a9:c9:fc:8c:05:ea:cc:6f:37:f1:3d:1b:90:a7:8f:0b:32:01:
        60:91:b3:76:8e:c0:9e:c5:86:7f:74:b0:d1:44:ec:bf:7e:f0:
        ad:7a:1c:ec:ba:54:a3:45:86:a7:ed:44:64:40:4e:b8:03:78:
        08:0d:02:28:fb:08:d9:8e
-----BEGIN CERTIFICATE-----
MIIFKTCCAxGgAwIBAgIUJvCVXNW23u63fbb41Onh7liBqjQwDQYJKoZIhvcNAQEL
BQAwgYExEjAQBgoJkiaJk/IsZAEZFgJjYTEUMBIGCgmSJomT8ixkARkWBGxhYjUx
GTAXBgNVBAoMEExhYjUgRGV2T3BzIEluYy4xFDASBgNVBAsMC3d3dy5sYWI1LmNh
MSQwIgYDVQQDDBtMYWI1IERldk9wcyBJbmMuIElzc3VpbmcgQ0EwHhcNMjQwNTIx
MTYxNzExWhcNMzQwNTIxMTYxNzExWjBwMRIwEAYKCZImiZPyLGQBGRYCY2ExFDAS
BgoJkiaJk/IsZAEZFgRsYWI1MRkwFwYDVQQKDBBMYWI1IERldk9wcyBJbmMuMRQw
EgYDVQQLDAt3d3cubGFiNS5jYTETMBEGA1UEAwwKZGIubGFiNS5jYTCCASIwDQYJ
KoZIhvcNAQEBBQADggEPADCCAQoCggEBAK/Z4zRntNwaMByhp1hkA/z476ZKnxr4
bp20yQTQ7D02M2tx0YWfo/hqSgowUmydIt4zEdIW6oVlrJffnY2wsiJdi7jvKXYq
3vFm04k9z2qo1mPhm4hMyoZb26UtN5dPjw8/MCkwsuBbFyqOeYAOvNh0JBbbIHFt
ujTI3ErtbGadwoM9UYH6U7EPjxNhAgOBBNVcHdG7lY0wEA3d8JfsfYKWi806qZIc
pT5fdSlvQayaZ0+rct1bY/03aZ3hcM7a4jmEaxKuybTVI/J45fJooiGs+hqp2MUf
eXMucedUunKjrMdPc+MhHQMHn88W+zG6ll+l59LiHELyQQN1kuRjLk8CAwEAAaOB
qDCBpTAOBgNVHQ8BAf8EBAMCBaAwCQYDVR0TBAIwADAxBgNVHSUEKjAoBggrBgEF
BQcDAQYIKwYBBQUHAwIGCCsGAQUFBwMDBggrBgEFBQcDBDAdBgNVHQ4EFgQUeweu
7bNxDkMlbkfwisiPmIQZFTcwHwYDVR0jBBgwFoAU62heEjhqsem6GyhgI97rFd9n
ZK0wFQYDVR0RBA4wDIIKZGIubGFiNS5jYTANBgkqhkiG9w0BAQsFAAOCAgEAVUas
0bXar3PNuk0BJ9pvC7VWKTitRpqFO9Oul1zVYFKAr6SDRWoaI13yN6SwDU5PBUIF
QdL64+h64sj96VMK6Nt+tEtjp+yPeZTwG6tmegp8NAEB49ebziqd9GzznzMCRSQ5
On2E+AVfuZNuUXX7EX3Ljx6tlmX3C6m8YjOoA+ysiDfEvZ0QPFfyp37k8D4atTg3
LKNcztb4INbax3CoEavLzMf2HuiYZYZQRKbry5EnKnHvYD2eyyDPniZ80uYy08rH
nJvDnoqmj5JgptetkGaE+rxqgiHXdNPzMM0cSuKZLdB7ml/zpnoaM8zPXyzeM9m0
D+WbB9tpx5Ri/E1UgT4YCzL7t2vP4HKUYVKpWHpg7xmQ1IYrhJWGN3WSSzfeeJsp
jcaKGcSGJlDZjG6BqHnBbXKnfTmncaNBgHuZn2mzyOC/2fu8utrREsuRtZcNhme2
oz6HTKxMIlKGsdR7VC1jxblFPt+1jdOjwc5Eu9PoXg3haL22tukv3fV8HnVM4s6Y
L6a+VAaXM4etF/yYOmDbqjcxts4nwNWw9+6XloCRJ6VZXsH8RezqUlogPPJZtdVd
SyyHYjibAy7Y0kzG6sGNqcn8jAXqzG838T0bkKePCzIBYJGzdo7AnsWGf3Sw0UTs
v37wrXoc7LpUo0WGp+1EZEBOuAN4CA0CKPsI2Y4=
-----END CERTIFICATE-----
