Certificate:
    Data:
        Version: 3 (0x2)
        Serial Number:
            28:f5:43:fc:70:6f:93:be:ab:20:87:b7:e2:18:de:4a:c4:0d:1b:e8
        Signature Algorithm: sha256WithRSAEncryption
        Issuer: DC=ca, DC=lab5, O=Lab5 DevOps Inc., OU=www.lab5.ca, CN=Lab5 DevOps Inc. Issuing CA
        Validity
            Not Before: Mar 29 12:18:45 2024 GMT
            Not After : Mar 29 12:18:45 2034 GMT
        Subject: DC=ca, DC=lab5, O=Lab5 DevOps Inc., OU=www.lab5.ca, CN=John.Doe
        Subject Public Key Info:
            Public Key Algorithm: rsaEncryption
                Public-Key: (2048 bit)
                Modulus:
                    00:b7:88:48:c6:95:f3:ca:73:f3:ab:5d:9c:08:48:
                    7e:ab:79:30:c5:69:77:b3:a5:0b:d0:dd:c4:f4:31:
                    b6:dc:1c:33:92:a1:21:ec:90:66:39:0e:9b:30:31:
                    4b:8d:c3:13:4b:62:25:6f:8f:9a:25:0f:59:a3:cf:
                    c5:47:90:68:91:d0:ae:9e:96:0a:36:22:e6:5e:40:
                    ce:d0:c1:de:36:b3:85:cb:de:07:72:f1:64:bb:22:
                    41:5f:dd:ac:c3:5d:bc:a8:da:c2:07:7c:a4:e0:dd:
                    ff:96:3d:ae:a1:77:2a:b0:a7:a0:ea:a7:73:43:97:
                    e9:cc:8a:b0:23:c7:6c:39:20:40:cb:07:d1:c3:8a:
                    f1:f6:97:e4:1d:f2:a2:09:81:6d:77:4b:e9:37:34:
                    68:2e:26:4c:80:9d:6d:38:00:64:51:a9:83:d0:7a:
                    1c:c4:8d:5d:a5:ee:4c:1a:1e:0c:3d:66:f4:06:e8:
                    2d:1d:78:f0:27:a1:09:ea:34:fc:08:aa:13:89:94:
                    3f:6a:8e:70:f2:f2:7b:93:10:e9:28:c6:42:aa:89:
                    5e:10:4d:d9:fb:f7:6b:c1:ad:fd:58:f3:59:c3:74:
                    4b:fc:a2:a3:07:19:b5:56:59:52:4a:56:56:df:a6:
                    64:69:fb:60:45:02:2f:bc:83:de:18:d0:40:4c:8a:
                    fe:c3
                Exponent: 65537 (0x10001)
        X509v3 extensions:
            X509v3 Key Usage: critical
                Digital Signature, Key Encipherment
            X509v3 Basic Constraints: 
                CA:FALSE
            X509v3 Extended Key Usage: 
                TLS Web Server Authentication, TLS Web Client Authentication, Code Signing, E-mail Protection
            X509v3 Subject Key Identifier: 
                D2:4D:18:67:69:5E:3A:84:1A:A7:95:89:FE:28:F0:24:F2:3C:BF:9C
            X509v3 Authority Key Identifier: 
                89:24:98:41:38:FE:3D:80:3B:D1:16:BE:9A:57:3B:5F:38:26:25:DF
            X509v3 Subject Alternative Name: 
                email:john.doe@lab5.ca
    Signature Algorithm: sha256WithRSAEncryption
    Signature Value:
        5f:1b:e6:ed:08:72:e9:98:e6:8a:0c:55:50:d0:09:2b:62:fa:
        94:3a:6f:df:c6:e1:26:03:4a:4f:90:15:d0:8d:b1:d0:62:ca:
        61:af:c6:46:f3:b3:36:08:10:bd:f2:1c:46:1c:87:81:76:00:
        10:74:5a:49:96:f1:b6:90:b7:cc:83:97:8d:02:73:7b:5b:b3:
        0c:d1:15:a9:6d:27:14:fc:ff:aa:e8:e2:70:10:a9:e2:07:e4:
        98:32:32:34:52:8a:66:07:c8:71:31:94:24:f8:e5:c8:90:2d:
        ed:f8:99:9a:25:b3:21:fc:fd:fa:f0:e1:e4:8b:15:41:84:dc:
        99:4b:0c:9c:c6:bc:97:ad:76:34:4c:7f:f5:2f:89:21:9a:4a:
        2e:96:b5:05:a6:b0:5a:f9:68:09:a9:26:cd:fa:ac:58:bc:a2:
        4a:94:79:06:95:68:bc:b2:0f:a0:e3:3f:4f:5f:7b:44:83:cc:
        2b:4b:ff:2f:2f:9b:12:b6:7c:85:5a:b1:e6:95:90:59:04:45:
        f6:21:a4:e3:e5:16:5e:38:5f:3e:07:15:fe:57:40:cb:31:ff:
        2c:cb:1c:c1:e3:f4:9d:65:17:fe:6e:24:c0:b7:c1:50:e6:3f:
        67:30:b3:ef:de:92:9e:b2:42:60:75:af:89:07:c4:35:03:4a:
        1b:2c:d9:1a:61:5f:44:22:d3:66:3b:4c:58:8c:9c:2c:ed:64:
        8c:bb:96:75:fc:d1:74:fb:8f:6b:aa:42:f8:f7:26:cf:43:66:
        96:08:e2:6a:34:1a:1c:51:4c:eb:b7:b1:d4:4d:33:ab:2b:3a:
        38:96:1c:07:0c:4c:88:a6:80:dc:b2:41:9f:0b:3a:fd:c2:27:
        dd:87:59:1e:f9:83:10:0e:bf:72:50:4e:bd:79:3e:53:1d:41:
        0a:df:0c:60:a4:80:24:88:76:a0:c5:e8:d3:95:cc:31:5c:20:
        44:c3:ce:f9:cd:b4:f2:93:da:91:ab:ac:63:ac:e1:bf:89:ac:
        24:13:85:27:5f:b6:22:89:15:02:83:3c:fc:06:2c:2f:7d:a3:
        e3:83:f0:2f:03:f8:69:ca:1b:53:3a:96:94:be:c5:f9:44:81:
        ab:5c:fa:ba:3a:f0:f6:0e:26:a9:f7:dd:84:2a:55:32:d9:1c:
        e3:ee:e9:6f:52:63:da:b3:66:8d:db:67:e3:61:06:d5:63:d7:
        e7:f6:25:7e:cc:9e:0a:6b:0c:4b:f4:3e:ea:52:1f:df:7e:04:
        24:ef:ef:c9:c0:e4:de:f2:9d:f4:2b:b6:3d:e0:87:2c:13:73:
        07:56:1b:00:8f:b2:ce:e1:5e:6d:d4:45:47:21:85:e9:bd:da:
        9f:a8:83:dc:c0:61:d2:f1
-----BEGIN CERTIFICATE-----
MIIFLTCCAxWgAwIBAgIUKPVD/HBvk76rIIe34hjeSsQNG+gwDQYJKoZIhvcNAQEL
BQAwgYExEjAQBgoJkiaJk/IsZAEZFgJjYTEUMBIGCgmSJomT8ixkARkWBGxhYjUx
GTAXBgNVBAoMEExhYjUgRGV2T3BzIEluYy4xFDASBgNVBAsMC3d3dy5sYWI1LmNh
MSQwIgYDVQQDDBtMYWI1IERldk9wcyBJbmMuIElzc3VpbmcgQ0EwHhcNMjQwMzI5
MTIxODQ1WhcNMzQwMzI5MTIxODQ1WjBuMRIwEAYKCZImiZPyLGQBGRYCY2ExFDAS
BgoJkiaJk/IsZAEZFgRsYWI1MRkwFwYDVQQKDBBMYWI1IERldk9wcyBJbmMuMRQw
EgYDVQQLDAt3d3cubGFiNS5jYTERMA8GA1UEAwwISm9obi5Eb2UwggEiMA0GCSqG
SIb3DQEBAQUAA4IBDwAwggEKAoIBAQC3iEjGlfPKc/OrXZwISH6reTDFaXezpQvQ
3cT0MbbcHDOSoSHskGY5DpswMUuNwxNLYiVvj5olD1mjz8VHkGiR0K6elgo2IuZe
QM7Qwd42s4XL3gdy8WS7IkFf3azDXbyo2sIHfKTg3f+WPa6hdyqwp6Dqp3NDl+nM
irAjx2w5IEDLB9HDivH2l+Qd8qIJgW13S+k3NGguJkyAnW04AGRRqYPQehzEjV2l
7kwaHgw9ZvQG6C0dePAnoQnqNPwIqhOJlD9qjnDy8nuTEOkoxkKqiV4QTdn792vB
rf1Y81nDdEv8oqMHGbVWWVJKVlbfpmRp+2BFAi+8g94Y0EBMiv7DAgMBAAGjga4w
gaswDgYDVR0PAQH/BAQDAgWgMAkGA1UdEwQCMAAwMQYDVR0lBCowKAYIKwYBBQUH
AwEGCCsGAQUFBwMCBggrBgEFBQcDAwYIKwYBBQUHAwQwHQYDVR0OBBYEFNJNGGdp
XjqEGqeVif4o8CTyPL+cMB8GA1UdIwQYMBaAFIkkmEE4/j2AO9EWvppXO184JiXf
MBsGA1UdEQQUMBKBEGpvaG4uZG9lQGxhYjUuY2EwDQYJKoZIhvcNAQELBQADggIB
AF8b5u0IcumY5ooMVVDQCSti+pQ6b9/G4SYDSk+QFdCNsdBiymGvxkbzszYIEL3y
HEYch4F2ABB0WkmW8baQt8yDl40Cc3tbswzRFaltJxT8/6ro4nAQqeIH5JgyMjRS
imYHyHExlCT45ciQLe34mZolsyH8/frw4eSLFUGE3JlLDJzGvJetdjRMf/UviSGa
Si6WtQWmsFr5aAmpJs36rFi8okqUeQaVaLyyD6DjP09fe0SDzCtL/y8vmxK2fIVa
seaVkFkERfYhpOPlFl44Xz4HFf5XQMsx/yzLHMHj9J1lF/5uJMC3wVDmP2cws+/e
kp6yQmB1r4kHxDUDShss2RphX0Qi02Y7TFiMnCztZIy7lnX80XT7j2uqQvj3Js9D
ZpYI4mo0GhxRTOu3sdRNM6srOjiWHAcMTIimgNyyQZ8LOv3CJ92HWR75gxAOv3JQ
Tr15PlMdQQrfDGCkgCSIdqDF6NOVzDFcIETDzvnNtPKT2pGrrGOs4b+JrCQThSdf
tiKJFQKDPPwGLC99o+OD8C8D+GnKG1M6lpS+xflEgatc+ro68PYOJqn33YQqVTLZ
HOPu6W9SY9qzZo3bZ+NhBtVj1+f2JX7MngprDEv0PupSH99+BCTv78nA5N7ynfQr
tj3ghywTcwdWGwCPss7hXm3URUchhem92p+og9zAYdLx
-----END CERTIFICATE-----
