Certificate:
    Data:
        Version: 3 (0x2)
        Serial Number:
            2a:6a:8a:0b:5f:98:01:40:89:61:10:46:fd:99:de:bf:ac:99:e7:db
        Signature Algorithm: sha256WithRSAEncryption
        Issuer: DC=ca, DC=lab5, O=Lab5 DevOps Inc., OU=www.lab5.ca, CN=Lab5 DevOps Inc. Issuing CA
        Validity
            Not Before: Mar 28 23:41:32 2024 GMT
            Not After : Mar 28 23:41:32 2034 GMT
        Subject: DC=ca, DC=lab5, O=Lab5 DevOps Inc., OU=www.lab5.ca, CN=www.lab5.ca
        Subject Public Key Info:
            Public Key Algorithm: rsaEncryption
                Public-Key: (2048 bit)
                Modulus:
                    00:e5:7a:7e:42:35:a1:8e:7e:19:bb:fa:50:5b:e5:
                    be:6b:c5:ea:1a:a8:1c:21:ca:63:85:60:db:41:08:
                    88:85:ef:85:a1:f7:ca:44:2d:0e:13:8d:43:b2:c9:
                    92:4a:e7:b9:34:cc:ca:ab:98:c6:38:ed:b4:e9:4f:
                    7f:17:73:23:2d:bf:54:58:4c:bb:5f:9d:b8:d6:d1:
                    ea:e4:31:be:c7:71:9f:77:4b:76:95:f3:b6:f8:f3:
                    58:48:e5:74:45:e4:6b:08:c7:49:9e:8e:0f:e8:ac:
                    ef:68:24:e1:bd:51:30:75:c9:a6:04:8b:cd:50:19:
                    c1:ea:70:97:b2:70:7f:f6:cb:be:46:2f:69:b4:71:
                    30:ff:38:26:58:6c:68:70:f8:d1:8a:32:e9:44:09:
                    05:ae:6a:1c:25:04:f8:88:28:66:6a:39:5b:5e:a3:
                    15:80:75:7e:b8:22:ab:17:2d:38:d8:b6:c8:94:d7:
                    aa:36:67:89:a0:da:30:01:1b:7e:a1:b5:d7:66:28:
                    4e:2d:11:91:1b:0a:87:c7:63:b3:42:6e:75:db:db:
                    80:9e:68:14:7c:28:bf:f2:a5:11:00:2b:00:6b:b6:
                    43:58:a3:3e:3d:b9:13:75:4c:62:08:8a:95:31:cc:
                    d9:e9:6c:54:10:72:75:06:95:4f:07:6e:2e:37:a7:
                    75:b9
                Exponent: 65537 (0x10001)
        X509v3 extensions:
            X509v3 Key Usage: critical
                Digital Signature, Key Encipherment
            X509v3 Basic Constraints: 
                CA:FALSE
            X509v3 Extended Key Usage: 
                TLS Web Server Authentication, TLS Web Client Authentication, Code Signing, E-mail Protection
            X509v3 Subject Key Identifier: 
                7D:12:37:89:1F:E7:82:53:68:61:7E:8B:94:12:1D:49:36:90:DA:F5
            X509v3 Authority Key Identifier: 
                AF:4B:C6:8F:BC:F9:19:AE:1D:11:C9:B9:AB:FF:FE:48:21:21:3F:F0
            X509v3 Subject Alternative Name: 
                DNS:www.lab5.ca, IP Address:127.0.0.1, email:user@email.com
    Signature Algorithm: sha256WithRSAEncryption
    Signature Value:
        9a:85:a4:a3:d5:1a:69:55:3a:fd:7a:ae:d8:0a:6c:2a:25:07:
        c5:dc:f4:ce:98:4a:8c:9e:79:fd:dd:14:70:a7:1e:6a:4b:9b:
        f2:23:cf:ba:b3:14:6d:61:2b:18:d1:58:10:ac:d5:86:6c:3f:
        a7:ed:a3:d2:37:07:44:14:59:b5:69:c8:9b:bf:15:c6:8a:d2:
        80:2e:fc:be:ec:03:94:dd:a0:bc:5e:54:18:cd:b7:f3:52:da:
        88:63:21:3d:54:8f:7d:78:7f:af:9d:3e:c9:12:3c:44:d7:d9:
        66:c8:9a:36:00:7b:48:51:fc:7c:ed:ca:30:ff:ea:d6:09:4c:
        b7:37:a5:0a:43:82:80:50:23:bb:5e:69:c1:15:cb:b5:ad:87:
        0c:bd:4a:c3:12:5e:eb:18:17:c7:c6:df:96:81:88:4d:83:4c:
        77:c8:a4:8b:48:30:6d:42:95:2b:1a:1f:07:64:a5:e0:bc:12:
        ce:9b:b5:ca:7a:e2:07:47:51:cf:fa:21:5a:23:e2:62:a9:6e:
        af:8f:6e:f3:1c:52:22:d8:86:1c:17:7a:82:b2:c5:33:d1:9d:
        26:9c:d4:61:a6:74:ae:81:c2:4d:b1:a9:a8:58:7e:a0:70:34:
        fa:f5:0d:75:13:2a:3c:84:c3:73:19:24:21:7e:6c:37:7c:7e:
        3e:c1:11:e8
-----BEGIN CERTIFICATE-----
MIIEQTCCAymgAwIBAgIUKmqKC1+YAUCJYRBG/Znev6yZ59swDQYJKoZIhvcNAQEL
BQAwgYExEjAQBgoJkiaJk/IsZAEZFgJjYTEUMBIGCgmSJomT8ixkARkWBGxhYjUx
GTAXBgNVBAoMEExhYjUgRGV2T3BzIEluYy4xFDASBgNVBAsMC3d3dy5sYWI1LmNh
MSQwIgYDVQQDDBtMYWI1IERldk9wcyBJbmMuIElzc3VpbmcgQ0EwHhcNMjQwMzI4
MjM0MTMyWhcNMzQwMzI4MjM0MTMyWjBxMRIwEAYKCZImiZPyLGQBGRYCY2ExFDAS
BgoJkiaJk/IsZAEZFgRsYWI1MRkwFwYDVQQKDBBMYWI1IERldk9wcyBJbmMuMRQw
EgYDVQQLDAt3d3cubGFiNS5jYTEUMBIGA1UEAwwLd3d3LmxhYjUuY2EwggEiMA0G
CSqGSIb3DQEBAQUAA4IBDwAwggEKAoIBAQDlen5CNaGOfhm7+lBb5b5rxeoaqBwh
ymOFYNtBCIiF74Wh98pELQ4TjUOyyZJK57k0zMqrmMY47bTpT38XcyMtv1RYTLtf
nbjW0erkMb7HcZ93S3aV87b481hI5XRF5GsIx0mejg/orO9oJOG9UTB1yaYEi81Q
GcHqcJeycH/2y75GL2m0cTD/OCZYbGhw+NGKMulECQWuahwlBPiIKGZqOVteoxWA
dX64IqsXLTjYtsiU16o2Z4mg2jABG36htddmKE4tEZEbCofHY7NCbnXb24CeaBR8
KL/ypREAKwBrtkNYoz49uRN1TGIIipUxzNnpbFQQcnUGlU8Hbi43p3W5AgMBAAGj
gb8wgbwwDgYDVR0PAQH/BAQDAgWgMAkGA1UdEwQCMAAwMQYDVR0lBCowKAYIKwYB
BQUHAwEGCCsGAQUFBwMCBggrBgEFBQcDAwYIKwYBBQUHAwQwHQYDVR0OBBYEFH0S
N4kf54JTaGF+i5QSHUk2kNr1MB8GA1UdIwQYMBaAFK9Lxo+8+RmuHRHJuav//kgh
IT/wMCwGA1UdEQQlMCOCC3d3dy5sYWI1LmNhhwR/AAABgQ51c2VyQGVtYWlsLmNv
bTANBgkqhkiG9w0BAQsFAAOCAQEAmoWko9UaaVU6/Xqu2ApsKiUHxdz0zphKjJ55
/d0UcKceakub8iPPurMUbWErGNFYEKzVhmw/p+2j0jcHRBRZtWnIm78VxorSgC78
vuwDlN2gvF5UGM2381LaiGMhPVSPfXh/r50+yRI8RNfZZsiaNgB7SFH8fO3KMP/q
1glMtzelCkOCgFAju15pwRXLta2HDL1KwxJe6xgXx8bfloGITYNMd8iki0gwbUKV
KxofB2Sl4LwSzpu1ynriB0dRz/ohWiPiYqlur49u8xxSItiGHBd6grLFM9GdJpzU
YaZ0roHCTbGpqFh+oHA0+vUNdRMqPITDcxkkIX5sN3x+PsER6A==
-----END CERTIFICATE-----
