Certificate:
    Data:
        Version: 3 (0x2)
        Serial Number:
            30:99:b8:6c:07:f3:3d:18:28:96:2d:d1:47:1a:bb:80:09:d3:ca:a4
        Signature Algorithm: sha256WithRSAEncryption
        Issuer: DC=ca, DC=lab5, O=Lab5 DevOps Inc., OU=www.lab5.ca, CN=Lab5 DevOps Inc. Issuing CA
        Validity
            Not Before: Mar 17 21:20:24 2024 GMT
            Not After : Mar 17 21:20:24 2034 GMT
        Subject: DC=ca, DC=lab5, O=Lab5 DevOps Inc., OU=www.lab5.ca, CN=www.lab5.ca
        Subject Public Key Info:
            Public Key Algorithm: rsaEncryption
                Public-Key: (2048 bit)
                Modulus:
                    00:93:21:6f:f0:52:af:cb:83:8e:70:11:d2:64:74:
                    a5:98:e0:d9:88:39:ec:0c:d0:53:ff:03:e6:67:ed:
                    f7:d6:d8:49:5d:24:08:74:56:52:ad:16:ca:8d:33:
                    f9:bb:6b:b8:27:5d:42:2c:d2:09:c6:06:97:d3:55:
                    31:b0:fd:23:88:51:f7:a5:bc:02:72:c9:8b:31:b6:
                    4b:fb:13:97:5b:bb:f8:24:2f:41:dc:bc:2a:60:f6:
                    a5:29:ad:ea:f7:42:35:b3:b1:f7:df:81:5e:20:7a:
                    d3:48:24:02:e1:54:a4:6d:1e:c2:24:0c:33:3b:35:
                    e6:b7:91:dc:62:2e:95:72:7a:10:2c:e5:4c:48:cd:
                    f2:fb:c2:5c:2b:83:e0:7b:cf:1f:31:8f:fc:b4:97:
                    4f:fd:c7:f7:6f:ce:6c:cf:15:da:f7:3f:df:4e:ee:
                    49:ea:11:b1:9e:e1:d3:b1:48:54:0a:00:e4:89:75:
                    06:e7:ac:81:78:13:ab:7b:4f:f3:49:7e:1e:4d:61:
                    d4:94:fa:db:e1:9b:94:b7:9a:d6:d0:94:de:a3:98:
                    b5:a2:ad:ee:96:5a:9b:85:4b:15:7b:9f:f1:e7:f3:
                    66:a2:48:16:e3:f5:0c:19:fe:0b:9e:9b:f3:ad:7d:
                    44:7d:06:09:0c:d7:45:64:33:62:24:cd:59:c1:88:
                    f0:35
                Exponent: 65537 (0x10001)
        X509v3 extensions:
            X509v3 Key Usage: critical
                Digital Signature, Key Encipherment
            X509v3 Basic Constraints: 
                CA:FALSE
            X509v3 Extended Key Usage: 
                TLS Web Server Authentication, TLS Web Client Authentication, Code Signing, E-mail Protection
            X509v3 Subject Key Identifier: 
                0E:6A:E3:B4:C7:97:7A:94:C1:9D:39:DB:E9:84:BA:A0:E0:18:46:99
            X509v3 Authority Key Identifier: 
                9E:AD:B5:AC:D1:D7:CD:C7:0A:19:D7:DA:07:A3:A4:64:5A:D5:95:D4
            X509v3 Subject Alternative Name: 
                DNS:www.lab5.ca, DNS:log.lab5.ca, IP Address:10.99.99.100, IP Address:127.0.0.1
    Signature Algorithm: sha256WithRSAEncryption
    Signature Value:
        48:5b:ba:f5:3a:17:65:28:6f:bb:21:0e:4c:55:45:f5:65:d2:
        83:03:55:1e:9f:d7:b2:9b:23:3c:bd:db:0f:10:c0:ee:95:21:
        c2:3b:cd:09:b4:dd:90:89:30:92:95:c2:13:8b:50:a7:da:a6:
        0c:8c:d1:1b:18:5f:4e:f8:f8:47:da:f9:1d:5b:80:36:ab:e7:
        3f:a8:24:de:55:a9:15:9a:56:79:8d:00:bd:60:76:93:8d:ec:
        77:d6:bc:8f:2b:8e:cb:60:ec:a7:06:a2:ae:9f:9b:94:bc:17:
        8f:91:97:d4:3d:f4:4d:ec:e8:ec:0a:c0:ca:dc:3c:ec:ab:5c:
        0e:f9:7d:d5:38:6b:b3:cd:ac:fb:83:c4:75:1b:86:8b:01:d4:
        db:ce:7f:7a:bc:7a:72:8c:be:f5:72:59:99:1e:08:d8:77:07:
        f3:9a:00:b4:6c:d7:c5:f2:66:32:ec:81:27:cb:e7:ab:3d:27:
        d9:9f:68:79:d6:41:51:3a:8a:07:01:5b:d0:8a:dc:13:77:69:
        34:aa:15:e1:f0:ad:a9:7d:af:7d:2a:28:26:d7:34:db:de:e0:
        b5:cb:c0:6f:00:5d:bb:f6:6a:fd:e3:ac:61:5b:77:dd:fa:b4:
        90:26:31:d6:fb:58:35:9e:a0:0e:e5:90:c7:10:10:9b:59:86:
        f2:ee:49:bc
-----BEGIN CERTIFICATE-----
MIIERDCCAyygAwIBAgIUMJm4bAfzPRgoli3RRxq7gAnTyqQwDQYJKoZIhvcNAQEL
BQAwgYExEjAQBgoJkiaJk/IsZAEZFgJjYTEUMBIGCgmSJomT8ixkARkWBGxhYjUx
GTAXBgNVBAoMEExhYjUgRGV2T3BzIEluYy4xFDASBgNVBAsMC3d3dy5sYWI1LmNh
MSQwIgYDVQQDDBtMYWI1IERldk9wcyBJbmMuIElzc3VpbmcgQ0EwHhcNMjQwMzE3
MjEyMDI0WhcNMzQwMzE3MjEyMDI0WjBxMRIwEAYKCZImiZPyLGQBGRYCY2ExFDAS
BgoJkiaJk/IsZAEZFgRsYWI1MRkwFwYDVQQKDBBMYWI1IERldk9wcyBJbmMuMRQw
EgYDVQQLDAt3d3cubGFiNS5jYTEUMBIGA1UEAwwLd3d3LmxhYjUuY2EwggEiMA0G
CSqGSIb3DQEBAQUAA4IBDwAwggEKAoIBAQCTIW/wUq/Lg45wEdJkdKWY4NmIOewM
0FP/A+Zn7ffW2EldJAh0VlKtFsqNM/m7a7gnXUIs0gnGBpfTVTGw/SOIUfelvAJy
yYsxtkv7E5dbu/gkL0HcvCpg9qUprer3QjWzsfffgV4getNIJALhVKRtHsIkDDM7
Nea3kdxiLpVyehAs5UxIzfL7wlwrg+B7zx8xj/y0l0/9x/dvzmzPFdr3P99O7knq
EbGe4dOxSFQKAOSJdQbnrIF4E6t7T/NJfh5NYdSU+tvhm5S3mtbQlN6jmLWire6W
WpuFSxV7n/Hn82aiSBbj9QwZ/guem/OtfUR9BgkM10VkM2IkzVnBiPA1AgMBAAGj
gcIwgb8wDgYDVR0PAQH/BAQDAgWgMAkGA1UdEwQCMAAwMQYDVR0lBCowKAYIKwYB
BQUHAwEGCCsGAQUFBwMCBggrBgEFBQcDAwYIKwYBBQUHAwQwHQYDVR0OBBYEFA5q
47THl3qUwZ052+mEuqDgGEaZMB8GA1UdIwQYMBaAFJ6ttazR183HChnX2gejpGRa
1ZXUMC8GA1UdEQQoMCaCC3d3dy5sYWI1LmNhggtsb2cubGFiNS5jYYcECmNjZIcE
fwAAATANBgkqhkiG9w0BAQsFAAOCAQEASFu69ToXZShvuyEOTFVF9WXSgwNVHp/X
spsjPL3bDxDA7pUhwjvNCbTdkIkwkpXCE4tQp9qmDIzRGxhfTvj4R9r5HVuANqvn
P6gk3lWpFZpWeY0AvWB2k43sd9a8jyuOy2Dspwairp+blLwXj5GX1D30Tezo7ArA
ytw87KtcDvl91Thrs82s+4PEdRuGiwHU285/erx6coy+9XJZmR4I2HcH85oAtGzX
xfJmMuyBJ8vnqz0n2Z9oedZBUTqKBwFb0IrcE3dpNKoV4fCtqX2vfSooJtc0297g
tcvAbwBdu/Zq/eOsYVt33fq0kCYx1vtYNZ6gDuWQxxAQm1mG8u5JvA==
-----END CERTIFICATE-----
