Certificate:
    Data:
        Version: 3 (0x2)
        Serial Number:
            33:60:e8:08:d5:30:ce:6c:7e:8b:9d:7b:90:df:76:24:28:00:37:f2
        Signature Algorithm: sha256WithRSAEncryption
        Issuer: DC=ca, DC=lab5, O=Lab5 DevOps Inc., OU=www.lab5.ca, CN=Lab5 DevOps Inc. Issuing CA
        Validity
            Not Before: May 21 15:51:55 2024 GMT
            Not After : May 21 15:51:55 2034 GMT
        Subject: DC=ca, DC=lab5, O=Lab5 DevOps Inc., OU=www.lab5.ca, CN=db.lab5.ca
        Subject Public Key Info:
            Public Key Algorithm: rsaEncryption
                Public-Key: (2048 bit)
                Modulus:
                    00:eb:52:e0:95:93:53:87:67:2a:40:d2:2f:3b:62:
                    ad:cc:e2:c9:ea:a0:d4:4f:26:79:21:81:74:a2:67:
                    6e:da:4a:a6:ba:97:09:63:64:df:a9:ab:c5:e9:fc:
                    8f:19:44:52:9c:84:63:27:33:0f:38:42:84:60:94:
                    ae:52:97:e2:ed:f2:3d:05:9e:66:77:c9:9e:a4:30:
                    3d:cd:2e:98:f7:18:46:c6:c3:6f:92:46:e9:ca:78:
                    ee:16:56:10:96:21:25:de:dd:22:e1:09:f8:e5:95:
                    3c:75:11:0e:75:d4:97:c2:2b:53:d4:92:80:10:6c:
                    fc:27:2f:8c:6b:2e:17:31:97:82:60:d0:cb:58:14:
                    0b:d2:7e:7f:92:52:3e:70:9f:f9:e9:5b:5c:a5:b1:
                    3e:ba:05:9f:72:38:89:27:c3:b3:9f:03:df:53:4d:
                    e1:d1:fc:87:14:70:84:44:2c:05:9e:0e:04:f4:ad:
                    50:d9:97:34:47:28:40:98:7d:f5:9c:0e:7d:aa:ad:
                    10:3b:3e:55:0b:43:e0:9a:c3:e1:db:f4:02:6b:ab:
                    eb:66:ed:35:74:7e:22:3e:00:5a:30:e2:4d:63:08:
                    28:4c:80:0e:c1:ba:dc:a5:48:a2:c5:b3:55:aa:b5:
                    b9:de:2f:e3:48:06:44:29:af:d0:e7:06:d6:2b:f5:
                    49:83
                Exponent: 65537 (0x10001)
        X509v3 extensions:
            X509v3 Key Usage: critical
                Digital Signature, Key Encipherment
            X509v3 Basic Constraints: 
                CA:FALSE
            X509v3 Extended Key Usage: 
                TLS Web Server Authentication, TLS Web Client Authentication, Code Signing, E-mail Protection
            X509v3 Subject Key Identifier: 
                22:02:61:C5:E8:D9:D8:A5:B8:A1:69:A6:91:C1:2A:E6:18:EC:7B:32
            X509v3 Authority Key Identifier: 
                EB:68:5E:12:38:6A:B1:E9:BA:1B:28:60:23:DE:EB:15:DF:67:64:AD
            X509v3 Subject Alternative Name: 
                DNS:db.lab5.ca
    Signature Algorithm: sha256WithRSAEncryption
    Signature Value:
        09:e8:42:ae:bf:4c:f3:87:d3:35:1c:96:ea:f7:d4:49:58:03:
        37:ab:81:c7:4f:10:95:60:09:e1:dc:a0:f7:d2:51:a8:e5:3e:
        48:80:92:cf:4f:ad:94:b3:63:bb:a1:f8:a5:2e:86:1f:37:70:
        d7:5b:27:26:1d:42:ee:32:fd:2f:74:82:82:49:da:8b:84:0f:
        e1:1b:29:03:ac:ed:38:58:18:15:ea:ad:99:3f:3e:ba:b0:a7:
        39:2c:20:6a:90:04:f4:ce:52:39:20:fa:85:fb:77:54:da:bb:
        af:39:18:a8:18:54:6f:02:a0:d3:9e:71:11:1f:07:37:c0:fa:
        de:79:bf:86:e0:db:02:e1:1b:a5:ef:2d:13:ad:e7:32:ab:c9:
        cc:90:72:98:5c:6c:a5:4a:2f:19:cd:76:d1:82:07:e6:c0:15:
        92:48:cc:be:9c:bf:27:96:f8:e5:33:7d:3c:2b:af:49:32:4a:
        f3:74:69:86:0c:0f:06:47:79:a6:7e:ff:60:33:c3:af:da:0e:
        8a:24:57:ba:ff:cd:9a:3a:c2:03:54:2c:e6:90:4c:59:ab:d2:
        72:0d:11:68:c9:6f:78:a4:80:87:b2:75:63:0f:2e:ef:38:93:
        15:fb:eb:c3:b6:76:4c:9a:23:81:c2:a1:ee:09:e5:9b:f2:9f:
        2c:cf:81:4f:4b:bc:5c:c6:75:6c:db:ac:3b:c4:ac:a9:fa:43:
        81:15:23:9d:8d:25:dc:c1:e1:9a:5d:dc:7b:79:a5:4f:68:3b:
        a4:3e:ce:a9:3c:10:40:c1:9e:1b:eb:e4:49:96:e9:26:98:a7:
        dd:b2:9f:c0:d8:e1:34:98:3b:5a:80:80:94:2f:2a:b9:6f:cf:
        89:84:db:6e:76:bd:cf:06:23:dc:2f:ff:75:a7:8b:2b:b1:63:
        ce:d4:c2:a6:2a:1d:4d:0c:6e:61:59:bc:11:ce:9a:97:58:27:
        f3:fb:15:36:29:2a:f2:f5:9d:83:f7:5e:bf:e5:44:5e:87:96:
        a3:bd:a6:61:a1:84:0e:69:3d:c3:6e:59:29:5f:ba:80:f3:22:
        8b:63:7c:78:2b:f5:0d:06:fc:2c:73:e3:c3:9e:8d:bd:33:03:
        f4:c7:69:c2:51:10:ca:16:9c:2f:78:8c:b2:a6:ad:34:db:79:
        e4:dd:cc:fb:0b:ec:2a:ad:4f:e8:75:89:cc:ef:dc:d2:56:b5:
        7d:65:13:92:b1:11:52:d4:29:36:75:eb:01:83:b2:6c:c5:3f:
        29:96:5a:30:1c:80:d2:5c:88:23:f0:e9:4c:8c:3e:60:3e:fc:
        b4:1d:84:8e:99:c3:e8:30:ca:64:9d:c4:17:7b:9a:b2:f2:1b:
        95:42:f2:53:45:10:b5:1d
-----BEGIN CERTIFICATE-----
MIIFKTCCAxGgAwIBAgIUM2DoCNUwzmx+i517kN92JCgAN/IwDQYJKoZIhvcNAQEL
BQAwgYExEjAQBgoJkiaJk/IsZAEZFgJjYTEUMBIGCgmSJomT8ixkARkWBGxhYjUx
GTAXBgNVBAoMEExhYjUgRGV2T3BzIEluYy4xFDASBgNVBAsMC3d3dy5sYWI1LmNh
MSQwIgYDVQQDDBtMYWI1IERldk9wcyBJbmMuIElzc3VpbmcgQ0EwHhcNMjQwNTIx
MTU1MTU1WhcNMzQwNTIxMTU1MTU1WjBwMRIwEAYKCZImiZPyLGQBGRYCY2ExFDAS
BgoJkiaJk/IsZAEZFgRsYWI1MRkwFwYDVQQKDBBMYWI1IERldk9wcyBJbmMuMRQw
EgYDVQQLDAt3d3cubGFiNS5jYTETMBEGA1UEAwwKZGIubGFiNS5jYTCCASIwDQYJ
KoZIhvcNAQEBBQADggEPADCCAQoCggEBAOtS4JWTU4dnKkDSLztircziyeqg1E8m
eSGBdKJnbtpKprqXCWNk36mrxen8jxlEUpyEYyczDzhChGCUrlKX4u3yPQWeZnfJ
nqQwPc0umPcYRsbDb5JG6cp47hZWEJYhJd7dIuEJ+OWVPHURDnXUl8IrU9SSgBBs
/CcvjGsuFzGXgmDQy1gUC9J+f5JSPnCf+elbXKWxProFn3I4iSfDs58D31NN4dH8
hxRwhEQsBZ4OBPStUNmXNEcoQJh99ZwOfaqtEDs+VQtD4JrD4dv0Amur62btNXR+
Ij4AWjDiTWMIKEyADsG63KVIosWzVaq1ud4v40gGRCmv0OcG1iv1SYMCAwEAAaOB
qDCBpTAOBgNVHQ8BAf8EBAMCBaAwCQYDVR0TBAIwADAxBgNVHSUEKjAoBggrBgEF
BQcDAQYIKwYBBQUHAwIGCCsGAQUFBwMDBggrBgEFBQcDBDAdBgNVHQ4EFgQUIgJh
xejZ2KW4oWmmkcEq5hjsezIwHwYDVR0jBBgwFoAU62heEjhqsem6GyhgI97rFd9n
ZK0wFQYDVR0RBA4wDIIKZGIubGFiNS5jYTANBgkqhkiG9w0BAQsFAAOCAgEACehC
rr9M84fTNRyW6vfUSVgDN6uBx08QlWAJ4dyg99JRqOU+SICSz0+tlLNju6H4pS6G
Hzdw11snJh1C7jL9L3SCgknai4QP4RspA6ztOFgYFeqtmT8+urCnOSwgapAE9M5S
OSD6hft3VNq7rzkYqBhUbwKg055xER8HN8D63nm/huDbAuEbpe8tE63nMqvJzJBy
mFxspUovGc120YIH5sAVkkjMvpy/J5b45TN9PCuvSTJK83RphgwPBkd5pn7/YDPD
r9oOiiRXuv/NmjrCA1Qs5pBMWavScg0RaMlveKSAh7J1Yw8u7ziTFfvrw7Z2TJoj
gcKh7gnlm/KfLM+BT0u8XMZ1bNusO8SsqfpDgRUjnY0l3MHhml3ce3mlT2g7pD7O
qTwQQMGeG+vkSZbpJpin3bKfwNjhNJg7WoCAlC8quW/PiYTbbna9zwYj3C//daeL
K7FjztTCpiodTQxuYVm8Ec6al1gn8/sVNikq8vWdg/dev+VEXoeWo72mYaGEDmk9
w25ZKV+6gPMii2N8eCv1DQb8LHPjw56NvTMD9MdpwlEQyhacL3iMsqatNNt55N3M
+wvsKq1P6HWJzO/c0la1fWUTkrERUtQpNnXrAYOybMU/KZZaMByA0lyII/DpTIw+
YD78tB2EjpnD6DDKZJ3EF3uasvIblULyU0UQtR0=
-----END CERTIFICATE-----
