Certificate:
    Data:
        Version: 3 (0x2)
        Serial Number:
            33:e5:8f:b4:ae:29:6a:8a:e7:33:54:1e:1b:88:6f:3d:04:51:fb:28
        Signature Algorithm: sha256WithRSAEncryption
        Issuer: DC=ca, DC=lab5, O=Lab5 DevOps Inc., OU=www.lab5.ca, CN=Lab5 DevOps Inc. Issuing CA
        Validity
            Not Before: May 20 11:57:50 2024 GMT
            Not After : May 20 11:57:50 2034 GMT
        Subject: DC=ca, DC=lab5, O=Lab5 DevOps Inc., OU=www.lab5.ca, CN=www.lab5.ca
        Subject Public Key Info:
            Public Key Algorithm: rsaEncryption
                Public-Key: (2048 bit)
                Modulus:
                    00:9f:cc:18:af:02:6d:97:f5:96:ed:99:19:0a:97:
                    3a:88:e4:64:c0:0a:27:c3:d4:8a:a4:01:2e:ee:eb:
                    cd:ff:b5:4a:ea:bd:eb:5e:e6:35:40:39:3e:f0:7a:
                    1a:a2:1d:22:5c:7c:0a:f7:74:b1:68:40:78:cb:ca:
                    bd:e6:3f:03:6c:35:b3:10:6f:ed:aa:c1:e4:f1:e9:
                    91:0b:7f:87:a7:b6:2e:05:f8:85:ec:8b:87:8a:2d:
                    2c:13:b6:15:7c:79:60:f6:d2:dc:94:61:0b:d5:2d:
                    a2:b2:95:57:48:2d:0f:99:df:bd:02:17:2d:3e:d9:
                    29:52:35:7f:ce:37:7d:ad:1d:e7:07:52:88:26:ae:
                    e1:05:ba:fe:d0:95:de:e9:88:8c:67:12:34:8d:1c:
                    8e:1d:c9:aa:20:b5:05:6f:db:bd:a1:94:bf:b2:6e:
                    88:4f:b3:cf:89:f4:23:4e:13:24:c3:52:d9:aa:fe:
                    f1:20:c3:37:c2:fc:6f:34:73:31:7f:88:83:e2:88:
                    25:36:d6:04:7f:22:16:fe:f0:78:41:5d:5e:36:a4:
                    2d:9b:be:2c:b0:92:c2:24:c9:c3:cf:62:30:90:57:
                    62:03:82:98:fe:49:67:0e:10:71:06:ad:4f:b1:15:
                    db:58:89:9e:8f:0a:c0:47:30:42:61:81:44:cc:71:
                    f6:93
                Exponent: 65537 (0x10001)
        X509v3 extensions:
            X509v3 Key Usage: critical
                Digital Signature, Key Encipherment
            X509v3 Basic Constraints: 
                CA:FALSE
            X509v3 Extended Key Usage: 
                TLS Web Server Authentication, TLS Web Client Authentication, Code Signing, E-mail Protection
            X509v3 Subject Key Identifier: 
                BC:99:AA:32:06:12:1B:03:22:63:78:E9:9D:CA:D7:8B:AC:96:ED:F9
            X509v3 Authority Key Identifier: 
                02:0E:3C:27:7B:64:6C:77:A6:B3:8E:F0:E0:49:1B:A9:0A:E1:C0:DC
            X509v3 Subject Alternative Name: 
                DNS:www.lab5.ca, IP Address:127.0.0.1, email:user@email.com
    Signature Algorithm: sha256WithRSAEncryption
    Signature Value:
        84:e9:73:6d:e5:9a:a8:b7:72:83:1c:22:01:f0:ab:a2:4e:64:
        60:29:e7:8f:d1:af:49:d3:24:85:ed:c0:73:08:81:77:4d:21:
        51:5a:f6:26:ff:90:35:a0:51:64:c4:00:0b:b3:53:0c:8b:36:
        2f:64:41:10:49:24:55:71:a6:62:4c:b6:ab:3e:52:78:ab:99:
        ce:9f:cd:dc:b7:cd:4f:87:37:21:eb:e3:a3:4a:f0:a0:31:61:
        1c:17:44:c3:e7:1c:e1:85:09:34:e0:3f:e0:60:c2:04:b0:8b:
        7d:e3:db:e3:82:b3:91:92:ff:98:9b:18:d8:c6:b1:31:45:31:
        8f:ff:70:1e:a9:17:58:89:37:b7:1d:fb:c4:02:8e:27:38:bd:
        99:77:9d:d6:25:24:24:64:51:0d:66:bd:52:23:63:84:43:26:
        c3:42:a8:15:22:e6:76:98:af:26:b8:cb:4f:73:76:ee:7c:1f:
        03:15:50:3a:84:43:fe:67:b3:46:78:71:d3:93:83:0b:03:26:
        77:44:f8:b7:d7:cd:f7:31:83:f2:2d:ab:98:3b:67:7d:8e:69:
        00:aa:20:70:80:8f:c7:d3:a2:1d:3c:ef:ad:28:f9:e2:34:20:
        76:19:3e:c2:6c:17:8e:36:73:d8:65:a2:57:cc:ed:2f:5a:40:
        c8:b7:47:c5:1b:d9:28:0c:d5:63:a2:68:c9:30:4a:7b:60:bc:
        10:07:e3:e4:9f:b5:f5:0f:e3:0c:37:6f:d9:c7:dd:93:be:3c:
        b0:35:01:be:7c:b5:d7:77:e4:ad:d0:f5:c2:4e:d1:a2:7b:94:
        a7:2e:c8:5b:a8:71:5c:43:47:10:12:d5:60:d9:34:2a:7c:fd:
        ce:0a:50:62:25:20:6f:83:49:de:e0:cc:ae:07:01:38:e4:b2:
        82:44:cb:fb:06:1d:06:23:b1:c2:1a:b1:d0:6f:60:be:be:47:
        32:13:40:da:19:ce:19:f7:a3:6b:00:0f:60:53:ea:26:24:7e:
        9b:5d:9e:81:58:20:ba:33:33:a9:34:26:85:6f:d0:2a:b4:a0:
        2c:99:37:1a:e6:88:06:40:d7:72:eb:e5:2a:db:d3:6c:6c:dd:
        84:ab:25:ef:e6:73:cd:60:5b:8c:dd:2d:0f:f2:95:1f:66:b8:
        b7:ff:bd:a2:cf:53:76:45:4e:8a:34:61:69:e0:e0:e1:0c:15:
        8a:00:60:47:0e:d0:fa:7d:87:31:36:1d:73:12:42:2d:34:10:
        65:38:e3:3d:89:99:53:31:f8:75:9f:98:3d:f5:87:1b:cb:62:
        31:a5:b8:ff:be:2a:b1:7f:eb:be:b8:f0:99:3f:cb:5d:e8:6c:
        eb:77:fe:2f:69:e0:d7:d9
-----BEGIN CERTIFICATE-----
MIIFQTCCAymgAwIBAgIUM+WPtK4paornM1QeG4hvPQRR+ygwDQYJKoZIhvcNAQEL
BQAwgYExEjAQBgoJkiaJk/IsZAEZFgJjYTEUMBIGCgmSJomT8ixkARkWBGxhYjUx
GTAXBgNVBAoMEExhYjUgRGV2T3BzIEluYy4xFDASBgNVBAsMC3d3dy5sYWI1LmNh
MSQwIgYDVQQDDBtMYWI1IERldk9wcyBJbmMuIElzc3VpbmcgQ0EwHhcNMjQwNTIw
MTE1NzUwWhcNMzQwNTIwMTE1NzUwWjBxMRIwEAYKCZImiZPyLGQBGRYCY2ExFDAS
BgoJkiaJk/IsZAEZFgRsYWI1MRkwFwYDVQQKDBBMYWI1IERldk9wcyBJbmMuMRQw
EgYDVQQLDAt3d3cubGFiNS5jYTEUMBIGA1UEAwwLd3d3LmxhYjUuY2EwggEiMA0G
CSqGSIb3DQEBAQUAA4IBDwAwggEKAoIBAQCfzBivAm2X9ZbtmRkKlzqI5GTACifD
1IqkAS7u683/tUrqvete5jVAOT7wehqiHSJcfAr3dLFoQHjLyr3mPwNsNbMQb+2q
weTx6ZELf4enti4F+IXsi4eKLSwTthV8eWD20tyUYQvVLaKylVdILQ+Z370CFy0+
2SlSNX/ON32tHecHUogmruEFuv7Qld7piIxnEjSNHI4dyaogtQVv272hlL+ybohP
s8+J9CNOEyTDUtmq/vEgwzfC/G80czF/iIPiiCU21gR/Ihb+8HhBXV42pC2bviyw
ksIkycPPYjCQV2IDgpj+SWcOEHEGrU+xFdtYiZ6PCsBHMEJhgUTMcfaTAgMBAAGj
gb8wgbwwDgYDVR0PAQH/BAQDAgWgMAkGA1UdEwQCMAAwMQYDVR0lBCowKAYIKwYB
BQUHAwEGCCsGAQUFBwMCBggrBgEFBQcDAwYIKwYBBQUHAwQwHQYDVR0OBBYEFLyZ
qjIGEhsDImN46Z3K14uslu35MB8GA1UdIwQYMBaAFAIOPCd7ZGx3prOO8OBJG6kK
4cDcMCwGA1UdEQQlMCOCC3d3dy5sYWI1LmNhhwR/AAABgQ51c2VyQGVtYWlsLmNv
bTANBgkqhkiG9w0BAQsFAAOCAgEAhOlzbeWaqLdygxwiAfCrok5kYCnnj9GvSdMk
he3AcwiBd00hUVr2Jv+QNaBRZMQAC7NTDIs2L2RBEEkkVXGmYky2qz5SeKuZzp/N
3LfNT4c3Ievjo0rwoDFhHBdEw+cc4YUJNOA/4GDCBLCLfePb44KzkZL/mJsY2Max
MUUxj/9wHqkXWIk3tx37xAKOJzi9mXed1iUkJGRRDWa9UiNjhEMmw0KoFSLmdpiv
JrjLT3N27nwfAxVQOoRD/mezRnhx05ODCwMmd0T4t9fN9zGD8i2rmDtnfY5pAKog
cICPx9OiHTzvrSj54jQgdhk+wmwXjjZz2GWiV8ztL1pAyLdHxRvZKAzVY6JoyTBK
e2C8EAfj5J+19Q/jDDdv2cfdk748sDUBvny113fkrdD1wk7RonuUpy7IW6hxXENH
EBLVYNk0Knz9zgpQYiUgb4NJ3uDMrgcBOOSygkTL+wYdBiOxwhqx0G9gvr5HMhNA
2hnOGfejawAPYFPqJiR+m12egVggujMzqTQmhW/QKrSgLJk3GuaIBkDXcuvlKtvT
bGzdhKsl7+ZzzWBbjN0tD/KVH2a4t/+9os9TdkVOijRhaeDg4QwVigBgRw7Q+n2H
MTYdcxJCLTQQZTjjPYmZUzH4dZ+YPfWHG8tiMaW4/74qsX/rvrjwmT/LXehs63f+
L2ng19k=
-----END CERTIFICATE-----
