Certificate:
    Data:
        Version: 3 (0x2)
        Serial Number:
            34:6e:69:1d:30:71:a8:e5:ec:f8:46:af:79:34:62:aa:eb:bd:b0:dc
        Signature Algorithm: sha256WithRSAEncryption
        Issuer: DC=ca, DC=lab5, O=Lab5 DevOps Inc., OU=www.lab5.ca, CN=Lab5 DevOps Inc. Issuing CA
        Validity
            Not Before: Mar 28 23:55:58 2024 GMT
            Not After : Mar 28 23:55:58 2034 GMT
        Subject: DC=ca, DC=lab5, O=Lab5 DevOps Inc., OU=www.lab5.ca, CN=John.Doe
        Subject Public Key Info:
            Public Key Algorithm: rsaEncryption
                Public-Key: (2048 bit)
                Modulus:
                    00:ab:c1:a1:d1:9a:a5:1f:92:a2:70:24:92:d5:5a:
                    77:e3:e6:76:6e:1d:55:df:7c:e5:8e:5f:c9:e9:43:
                    fa:58:98:ce:5d:25:0b:95:a6:ba:7c:20:37:3d:c5:
                    c5:b5:c3:d8:d5:84:d1:ac:36:03:a4:a9:a7:e8:47:
                    5f:99:1f:f7:ef:9d:0b:51:ae:38:40:67:b1:1f:84:
                    38:eb:b9:38:8f:c3:2b:14:6d:52:9e:5f:90:d6:53:
                    00:a3:c5:d1:e6:79:24:d5:4e:17:f1:0b:73:a5:80:
                    1c:8f:79:e0:13:6b:1a:d0:17:db:ce:b8:e5:9e:c6:
                    ef:8a:a1:d8:dc:9c:69:e0:90:26:5f:a3:24:5a:b6:
                    fe:68:a2:20:b7:71:a3:bc:3d:e6:99:46:f7:c3:41:
                    ae:06:45:de:43:5a:f4:22:c9:2e:bb:e7:1a:b4:55:
                    cb:bb:8f:02:89:3b:f2:c9:e7:cd:7a:24:f6:94:ff:
                    18:11:05:dd:f9:c2:f7:67:5a:50:56:51:84:5d:e6:
                    c0:52:db:c9:bc:43:13:0a:dc:ff:29:fa:ea:9a:1c:
                    bb:b0:32:bf:83:12:c3:75:70:f1:9d:c1:be:1b:00:
                    2e:88:e8:27:0f:db:88:4c:b1:fb:20:78:5a:a3:6e:
                    d5:af:78:44:3d:7d:8b:98:fc:9b:1a:25:80:d1:af:
                    37:3f
                Exponent: 65537 (0x10001)
        X509v3 extensions:
            X509v3 Key Usage: critical
                Digital Signature, Key Encipherment
            X509v3 Basic Constraints: 
                CA:FALSE
            X509v3 Extended Key Usage: 
                TLS Web Server Authentication, TLS Web Client Authentication, Code Signing, E-mail Protection
            X509v3 Subject Key Identifier: 
                62:D3:CB:96:88:7A:61:CD:89:19:A4:29:A4:5B:E4:2E:E8:BC:95:92
            X509v3 Authority Key Identifier: 
                AC:8B:AF:76:53:5B:C0:75:2C:D9:1C:EE:9B:69:DF:C4:06:4F:01:77
            X509v3 Subject Alternative Name: 
                email:john.doe@lab5.ca
    Signature Algorithm: sha256WithRSAEncryption
    Signature Value:
        8e:5b:53:26:46:3b:12:42:c9:e0:22:d6:85:a8:00:fc:e9:9f:
        8d:45:8f:eb:43:88:17:b1:91:50:ca:b5:9c:c4:b7:29:ba:2c:
        5f:bf:4e:2a:c0:57:9c:37:11:05:14:b1:26:78:12:2e:cb:f1:
        5d:79:91:2c:76:16:a4:65:3c:da:d8:3d:d5:5b:86:01:01:99:
        c5:22:45:77:9d:1b:39:89:49:3a:5e:db:cc:1e:6f:74:ba:ed:
        88:26:8c:cd:8f:3d:50:4e:28:a7:9c:94:a7:02:6f:56:fc:8b:
        f5:3c:eb:8b:4c:cc:a7:c8:71:17:91:4c:ee:d2:d7:72:bf:e5:
        8f:7b:a3:a6:e4:66:53:42:5e:50:0b:82:ec:f2:f1:95:b3:70:
        bd:4a:fa:99:d7:b5:25:6f:6a:1a:62:44:2b:bb:2c:ca:b7:c6:
        85:71:b0:75:ae:99:7c:55:c3:b9:da:0b:80:99:df:20:f3:e4:
        87:00:04:08:80:ab:a0:1f:92:c3:b0:66:c9:06:2a:61:7f:9b:
        32:33:be:28:c1:f1:8a:4b:a4:2e:ce:ef:ec:4c:19:f4:7d:6e:
        ae:2a:22:a0:cd:d2:dd:05:30:15:70:68:74:5e:05:e5:80:85:
        00:11:54:32:6a:f0:21:9e:29:33:ea:96:36:7c:75:30:55:3e:
        eb:d3:1e:ec:9e:05:40:f8:60:7a:e1:01:0c:fb:9a:d0:23:d6:
        45:43:09:38:45:3b:60:25:d0:9e:e9:77:c2:16:11:db:4c:9f:
        b4:26:16:28:b9:46:75:4d:59:87:52:ed:d2:1a:1b:77:f7:4d:
        55:77:7e:81:d8:e4:e5:5b:da:21:41:38:6b:84:49:de:b2:18:
        9b:6a:c6:aa:55:17:36:b0:8c:83:63:5a:c4:39:56:41:a9:c7:
        7d:b3:b3:83:8d:0b:2d:f3:36:c0:ef:5b:8b:69:8d:8a:e6:5e:
        9c:62:c8:02:16:8f:1d:82:db:03:7a:44:dd:21:85:d5:be:87:
        17:b6:16:96:e3:f2:ca:13:7b:b0:89:c4:4e:8b:58:fd:b9:fe:
        2a:d0:89:d7:f6:3a:c4:8b:c8:52:33:a5:67:0c:51:e7:35:f7:
        b6:b8:30:75:fa:6d:55:d1:7b:ac:c1:f5:55:56:11:53:17:c8:
        0e:99:4e:e8:cb:24:96:5d:e0:b1:0a:26:bd:d1:b6:06:04:a4:
        a2:9a:65:04:67:81:d5:1d:48:18:d2:69:f9:ad:cd:85:62:dd:
        27:a3:03:31:88:36:90:5e:df:5f:b2:d1:17:4e:5b:4b:7d:6e:
        25:73:e2:36:4f:d9:4d:ed:d1:48:78:be:3c:97:fc:53:46:39:
        de:5c:08:d3:b7:ee:03:c5
-----BEGIN CERTIFICATE-----
MIIFLTCCAxWgAwIBAgIUNG5pHTBxqOXs+EaveTRiquu9sNwwDQYJKoZIhvcNAQEL
BQAwgYExEjAQBgoJkiaJk/IsZAEZFgJjYTEUMBIGCgmSJomT8ixkARkWBGxhYjUx
GTAXBgNVBAoMEExhYjUgRGV2T3BzIEluYy4xFDASBgNVBAsMC3d3dy5sYWI1LmNh
MSQwIgYDVQQDDBtMYWI1IERldk9wcyBJbmMuIElzc3VpbmcgQ0EwHhcNMjQwMzI4
MjM1NTU4WhcNMzQwMzI4MjM1NTU4WjBuMRIwEAYKCZImiZPyLGQBGRYCY2ExFDAS
BgoJkiaJk/IsZAEZFgRsYWI1MRkwFwYDVQQKDBBMYWI1IERldk9wcyBJbmMuMRQw
EgYDVQQLDAt3d3cubGFiNS5jYTERMA8GA1UEAwwISm9obi5Eb2UwggEiMA0GCSqG
SIb3DQEBAQUAA4IBDwAwggEKAoIBAQCrwaHRmqUfkqJwJJLVWnfj5nZuHVXffOWO
X8npQ/pYmM5dJQuVprp8IDc9xcW1w9jVhNGsNgOkqafoR1+ZH/fvnQtRrjhAZ7Ef
hDjruTiPwysUbVKeX5DWUwCjxdHmeSTVThfxC3OlgByPeeATaxrQF9vOuOWexu+K
odjcnGngkCZfoyRatv5ooiC3caO8PeaZRvfDQa4GRd5DWvQiyS675xq0Vcu7jwKJ
O/LJ5816JPaU/xgRBd35wvdnWlBWUYRd5sBS28m8QxMK3P8p+uqaHLuwMr+DEsN1
cPGdwb4bAC6I6CcP24hMsfsgeFqjbtWveEQ9fYuY/JsaJYDRrzc/AgMBAAGjga4w
gaswDgYDVR0PAQH/BAQDAgWgMAkGA1UdEwQCMAAwMQYDVR0lBCowKAYIKwYBBQUH
AwEGCCsGAQUFBwMCBggrBgEFBQcDAwYIKwYBBQUHAwQwHQYDVR0OBBYEFGLTy5aI
emHNiRmkKaRb5C7ovJWSMB8GA1UdIwQYMBaAFKyLr3ZTW8B1LNkc7ptp38QGTwF3
MBsGA1UdEQQUMBKBEGpvaG4uZG9lQGxhYjUuY2EwDQYJKoZIhvcNAQELBQADggIB
AI5bUyZGOxJCyeAi1oWoAPzpn41Fj+tDiBexkVDKtZzEtym6LF+/TirAV5w3EQUU
sSZ4Ei7L8V15kSx2FqRlPNrYPdVbhgEBmcUiRXedGzmJSTpe28web3S67YgmjM2P
PVBOKKeclKcCb1b8i/U864tMzKfIcReRTO7S13K/5Y97o6bkZlNCXlALguzy8ZWz
cL1K+pnXtSVvahpiRCu7LMq3xoVxsHWumXxVw7naC4CZ3yDz5IcABAiAq6AfksOw
ZskGKmF/mzIzvijB8YpLpC7O7+xMGfR9bq4qIqDN0t0FMBVwaHReBeWAhQARVDJq
8CGeKTPqljZ8dTBVPuvTHuyeBUD4YHrhAQz7mtAj1kVDCThFO2Al0J7pd8IWEdtM
n7QmFii5RnVNWYdS7dIaG3f3TVV3foHY5OVb2iFBOGuESd6yGJtqxqpVFzawjINj
WsQ5VkGpx32zs4ONCy3zNsDvW4tpjYrmXpxiyAIWjx2C2wN6RN0hhdW+hxe2Fpbj
8soTe7CJxE6LWP25/irQidf2OsSLyFIzpWcMUec197a4MHX6bVXRe6zB9VVWEVMX
yA6ZTujLJJZd4LEKJr3RtgYEpKKaZQRngdUdSBjSafmtzYVi3SejAzGINpBe31+y
0RdOW0t9biVz4jZP2U3t0Uh4vjyX/FNGOd5cCNO37gPF
-----END CERTIFICATE-----
