Certificate:
    Data:
        Version: 3 (0x2)
        Serial Number:
            34:cc:8d:df:b0:f5:e3:a6:f6:79:35:ab:fb:05:38:a1:e2:db:8b:ec
        Signature Algorithm: sha256WithRSAEncryption
        Issuer: DC=ca, DC=lab5, O=Lab5 DevOps Inc., OU=www.lab5.ca, CN=Lab5 DevOps Inc. Issuing CA
        Validity
            Not Before: Jun 24 04:40:25 2024 GMT
            Not After : Jun 24 04:40:25 2034 GMT
        Subject: DC=ca, DC=lab5, O=Lab5 DevOps Inc., OU=www.lab5.ca, CN=www.lab5.ca
        Subject Public Key Info:
            Public Key Algorithm: rsaEncryption
                Public-Key: (2048 bit)
                Modulus:
                    00:e6:21:0a:d8:44:74:5d:a2:9f:34:41:04:0b:f5:
                    2b:37:fe:1a:86:61:d4:2f:8f:16:a7:01:9a:de:70:
                    f9:4c:f7:4e:7f:39:e2:72:3e:aa:83:80:5b:33:64:
                    64:97:ab:c0:ff:f4:8c:1e:7d:3d:37:4d:ae:2d:79:
                    3c:ed:53:c7:14:20:d1:31:cd:21:77:e3:03:17:df:
                    fb:43:b9:2a:10:bb:f8:9a:22:7a:75:0a:ce:60:4a:
                    78:9f:98:87:6f:31:f6:8f:d4:0f:a7:89:58:76:0d:
                    29:bf:a9:66:c9:6c:a5:49:8f:7c:5d:1d:7c:74:c2:
                    52:1f:3b:d9:69:74:23:45:91:fd:ba:7b:12:a6:0c:
                    5d:c7:8c:62:2d:71:5e:7b:86:b9:4f:7a:e0:4b:c6:
                    a8:51:25:22:1f:6b:5d:82:f7:c1:60:4a:32:60:6e:
                    35:1f:9a:cf:f3:9e:33:93:fa:7f:ae:8f:94:c8:3a:
                    e9:e9:a1:1e:25:b5:8c:6e:af:78:99:18:6a:95:a6:
                    49:16:a8:0e:0f:d1:1c:1d:11:00:b8:2b:66:43:92:
                    4a:a3:ae:db:d0:bb:04:35:51:fb:94:70:ce:93:54:
                    e7:c4:a0:6d:64:b2:de:c6:4b:36:10:b7:f3:b0:13:
                    fc:a0:09:e1:fb:56:3b:85:48:ce:4f:0a:eb:c8:9b:
                    8e:93
                Exponent: 65537 (0x10001)
        X509v3 extensions:
            X509v3 Key Usage: critical
                Digital Signature, Key Encipherment
            X509v3 Basic Constraints: 
                CA:FALSE
            X509v3 Extended Key Usage: 
                TLS Web Server Authentication, TLS Web Client Authentication, Code Signing, E-mail Protection
            X509v3 Subject Key Identifier: 
                64:ED:AB:66:86:5A:65:46:C0:44:C6:DD:2B:A6:54:EA:31:D7:2D:5A
            X509v3 Authority Key Identifier: 
                97:28:C5:D2:F9:A3:FC:DF:12:1B:6B:65:FF:41:C1:C5:2C:EE:5A:CC
            X509v3 Subject Alternative Name: 
                DNS:www.lab5.ca, IP Address:127.0.0.1, email:user@email.com
    Signature Algorithm: sha256WithRSAEncryption
    Signature Value:
        82:17:64:d7:f9:49:76:0e:bd:0e:92:7f:85:a0:b0:4e:34:b0:
        48:64:72:11:36:8c:5a:2d:d8:c8:14:83:fb:74:e6:53:e2:83:
        4e:e1:22:b2:2a:23:0f:42:2a:c6:94:52:5a:1d:49:7a:7c:8a:
        a3:a5:34:26:55:eb:70:da:c6:74:e4:6e:2a:05:2e:f2:61:bc:
        1f:27:db:c3:69:ba:39:e8:2e:fc:0b:27:70:e5:d6:6e:6f:99:
        57:91:f7:f3:78:00:e0:cd:45:18:90:2f:f9:3e:28:8b:3a:df:
        38:0a:82:2e:94:bc:37:f4:c0:64:72:64:46:98:79:a7:55:42:
        bd:cf:bf:4d:16:d0:df:0a:1e:a5:ab:38:6c:a8:5d:21:35:6c:
        2f:46:1b:4b:02:bf:0f:ed:3a:7f:0e:aa:c3:e2:ca:45:04:2e:
        be:23:7a:e6:29:18:02:10:e3:24:9d:4e:a6:d8:cf:4a:4f:f6:
        8a:cc:a4:e2:95:b0:b2:47:dd:73:71:aa:76:b1:0c:bb:82:c9:
        59:a8:93:e8:fd:ab:7b:53:b9:99:5e:3c:db:63:f1:dd:eb:8d:
        e2:8e:e0:af:8d:d1:fc:20:16:ba:23:27:9a:d7:c2:94:d4:fe:
        cf:cd:7b:dd:32:26:55:db:f6:cf:95:16:fa:34:47:06:7f:80:
        7f:4f:3a:98:33:60:57:98:de:03:fd:65:5b:a9:f0:91:02:40:
        8a:39:c5:96:93:6a:f8:4e:f2:e7:d2:83:3a:37:3c:31:12:3a:
        f4:ee:e9:0f:47:14:db:86:a9:57:75:21:7c:e3:53:63:78:61:
        fa:2b:f4:09:41:30:b8:69:37:b7:1b:c8:4a:30:fb:48:4b:2a:
        9f:8f:2c:c1:87:e8:1b:85:17:7f:b6:2f:43:13:e2:fb:46:42:
        0d:29:3d:eb:64:3e:37:bb:73:59:0b:8b:f8:ca:f2:6a:11:6a:
        9a:34:70:5f:67:6e:c0:2a:f3:2c:f4:42:58:06:12:1a:c9:84:
        50:11:ea:74:dc:7b:f5:ab:de:e6:80:e8:cf:cd:35:70:33:d4:
        c2:59:f9:91:de:3c:db:92:cf:ed:63:41:af:a9:cb:b4:47:0b:
        85:bd:d6:cd:27:1e:37:7d:3f:7f:68:97:8b:5b:0e:a0:d5:77:
        8c:32:55:c3:be:51:b4:71:26:5c:25:aa:f8:86:59:18:93:53:
        40:82:5e:01:fe:72:ce:74:ad:06:6a:00:8d:c1:62:db:ec:47:
        f0:c5:70:15:9d:d3:ca:6f:c5:55:f9:aa:c3:23:98:32:b0:19:
        3b:6c:3b:a2:0a:3c:08:a0:01:12:e9:5b:2a:86:4f:84:00:b7:
        0b:47:16:23:0e:59:a2:56
-----BEGIN CERTIFICATE-----
MIIFQTCCAymgAwIBAgIUNMyN37D146b2eTWr+wU4oeLbi+wwDQYJKoZIhvcNAQEL
BQAwgYExEjAQBgoJkiaJk/IsZAEZFgJjYTEUMBIGCgmSJomT8ixkARkWBGxhYjUx
GTAXBgNVBAoMEExhYjUgRGV2T3BzIEluYy4xFDASBgNVBAsMC3d3dy5sYWI1LmNh
MSQwIgYDVQQDDBtMYWI1IERldk9wcyBJbmMuIElzc3VpbmcgQ0EwHhcNMjQwNjI0
MDQ0MDI1WhcNMzQwNjI0MDQ0MDI1WjBxMRIwEAYKCZImiZPyLGQBGRYCY2ExFDAS
BgoJkiaJk/IsZAEZFgRsYWI1MRkwFwYDVQQKDBBMYWI1IERldk9wcyBJbmMuMRQw
EgYDVQQLDAt3d3cubGFiNS5jYTEUMBIGA1UEAwwLd3d3LmxhYjUuY2EwggEiMA0G
CSqGSIb3DQEBAQUAA4IBDwAwggEKAoIBAQDmIQrYRHRdop80QQQL9Ss3/hqGYdQv
jxanAZrecPlM905/OeJyPqqDgFszZGSXq8D/9IwefT03Ta4teTztU8cUINExzSF3
4wMX3/tDuSoQu/iaInp1Cs5gSnifmIdvMfaP1A+niVh2DSm/qWbJbKVJj3xdHXx0
wlIfO9lpdCNFkf26exKmDF3HjGItcV57hrlPeuBLxqhRJSIfa12C98FgSjJgbjUf
ms/znjOT+n+uj5TIOunpoR4ltYxur3iZGGqVpkkWqA4P0RwdEQC4K2ZDkkqjrtvQ
uwQ1UfuUcM6TVOfEoG1kst7GSzYQt/OwE/ygCeH7VjuFSM5PCuvIm46TAgMBAAGj
gb8wgbwwDgYDVR0PAQH/BAQDAgWgMAkGA1UdEwQCMAAwMQYDVR0lBCowKAYIKwYB
BQUHAwEGCCsGAQUFBwMCBggrBgEFBQcDAwYIKwYBBQUHAwQwHQYDVR0OBBYEFGTt
q2aGWmVGwETG3SumVOox1y1aMB8GA1UdIwQYMBaAFJcoxdL5o/zfEhtrZf9BwcUs
7lrMMCwGA1UdEQQlMCOCC3d3dy5sYWI1LmNhhwR/AAABgQ51c2VyQGVtYWlsLmNv
bTANBgkqhkiG9w0BAQsFAAOCAgEAghdk1/lJdg69DpJ/haCwTjSwSGRyETaMWi3Y
yBSD+3TmU+KDTuEisiojD0IqxpRSWh1JenyKo6U0JlXrcNrGdORuKgUu8mG8Hyfb
w2m6Oegu/AsncOXWbm+ZV5H383gA4M1FGJAv+T4oizrfOAqCLpS8N/TAZHJkRph5
p1VCvc+/TRbQ3woepas4bKhdITVsL0YbSwK/D+06fw6qw+LKRQQuviN65ikYAhDj
JJ1OptjPSk/2isyk4pWwskfdc3GqdrEMu4LJWaiT6P2re1O5mV4822Px3euN4o7g
r43R/CAWuiMnmtfClNT+z8173TImVdv2z5UW+jRHBn+Af086mDNgV5jeA/1lW6nw
kQJAijnFlpNq+E7y59KDOjc8MRI69O7pD0cU24apV3UhfONTY3hh+iv0CUEwuGk3
txvISjD7SEsqn48swYfoG4UXf7YvQxPi+0ZCDSk962Q+N7tzWQuL+MryahFqmjRw
X2duwCrzLPRCWAYSGsmEUBHqdNx79ave5oDoz801cDPUwln5kd4825LP7WNBr6nL
tEcLhb3WzSceN30/f2iXi1sOoNV3jDJVw75RtHEmXCWq+IZZGJNTQIJeAf5yznSt
BmoAjcFi2+xH8MVwFZ3Tym/FVfmqwyOYMrAZO2w7ogo8CKABEulbKoZPhAC3C0cW
Iw5ZolY=
-----END CERTIFICATE-----
