Certificate:
    Data:
        Version: 3 (0x2)
        Serial Number:
            4a:48:21:92:de:ce:bf:a9:0d:dd:46:07:74:38:a6:c4:95:7c:de:8e
        Signature Algorithm: sha256WithRSAEncryption
        Issuer: DC=ca, DC=lab5, O=Lab5 DevOps Inc., OU=www.lab5.ca, CN=Lab5 DevOps Inc. Issuing CA
        Validity
            Not Before: Mar 28 23:42:03 2024 GMT
            Not After : Mar 28 23:42:03 2034 GMT
        Subject: DC=ca, DC=lab5, O=Lab5 DevOps Inc., OU=www.lab5.ca, CN=John.Doe
        Subject Public Key Info:
            Public Key Algorithm: rsaEncryption
                Public-Key: (2048 bit)
                Modulus:
                    00:93:43:d0:e4:e7:46:23:9a:4c:d7:b6:a1:dc:c6:
                    a1:89:69:89:f2:b4:49:c9:a5:e0:21:cb:fc:34:c3:
                    e7:f2:0f:b5:82:5d:c5:84:7f:3d:34:1f:80:ec:2f:
                    34:8f:17:f6:8c:b2:f0:59:d1:b3:bf:02:4e:82:d5:
                    64:2c:7f:c2:f4:78:c2:f6:cb:d9:08:3d:6b:c3:c5:
                    a0:fe:2c:a7:f2:89:68:db:c9:4a:da:f1:2d:b2:e2:
                    6f:ee:1b:9d:09:82:be:25:32:16:06:62:65:88:d8:
                    e1:66:cd:98:82:bc:c1:6a:47:ef:0d:50:67:ac:15:
                    e4:8a:6b:88:91:f7:c9:3b:02:57:7d:2e:6a:81:2b:
                    fb:66:21:d1:2e:cb:5c:0c:01:46:db:53:6d:67:c8:
                    0d:01:6c:7c:14:0a:0f:91:f3:00:06:fa:d5:41:73:
                    5e:26:df:4a:40:63:57:0e:6f:2e:b0:0c:06:0e:a5:
                    f3:11:24:9c:43:66:99:09:5f:5a:f8:96:85:67:3a:
                    0c:65:40:d8:05:12:6d:3b:da:a9:1b:10:9b:f2:a4:
                    48:48:d7:91:e9:d8:0d:1b:ee:59:7f:6d:e8:a7:40:
                    6c:7d:aa:bc:8f:00:38:d3:2b:4b:df:93:d9:25:e7:
                    10:cb:54:b8:97:e0:bf:31:de:28:5d:68:5f:e3:b1:
                    f0:ed
                Exponent: 65537 (0x10001)
        X509v3 extensions:
            X509v3 Key Usage: critical
                Digital Signature, Key Encipherment
            X509v3 Basic Constraints: 
                CA:FALSE
            X509v3 Extended Key Usage: 
                TLS Web Server Authentication, TLS Web Client Authentication, Code Signing, E-mail Protection
            X509v3 Subject Key Identifier: 
                4C:C3:C0:71:04:1F:3A:A9:DA:74:B9:30:0D:13:08:27:8E:8F:17:58
            X509v3 Authority Key Identifier: 
                AF:4B:C6:8F:BC:F9:19:AE:1D:11:C9:B9:AB:FF:FE:48:21:21:3F:F0
            X509v3 Subject Alternative Name: 
                email:john.doe@lab5.ca
    Signature Algorithm: sha256WithRSAEncryption
    Signature Value:
        8b:ea:04:83:c1:3d:09:83:09:50:71:f6:c4:06:96:93:a1:38:
        dd:5a:61:b9:b6:6d:3f:71:3e:d9:50:b5:7c:75:e1:77:16:75:
        5e:91:ed:3c:87:a3:c5:0b:c6:cb:43:0a:13:5d:68:84:ea:1c:
        c8:ad:c4:25:30:3c:da:f9:51:1d:a5:69:67:99:76:22:c7:cc:
        b7:cd:39:e7:71:3f:f0:25:65:04:81:f7:2e:58:d5:72:bb:b1:
        80:82:0e:a7:3a:18:2e:e7:fd:cf:7b:82:b2:fc:6c:84:27:16:
        3d:e5:e3:57:05:67:8c:a6:e0:63:8a:c0:ef:c7:2a:15:c2:87:
        6d:de:f5:6e:b9:bb:a0:8b:9f:6c:08:f0:96:00:1d:80:73:35:
        dd:46:d9:19:ce:9a:f8:b7:6d:d0:a7:e9:7a:e0:7a:8d:f3:ff:
        02:da:4e:3e:57:3e:df:84:ae:43:64:76:11:86:ac:f0:76:aa:
        0d:63:23:e7:45:4b:85:0d:53:6d:8f:eb:77:51:08:cc:a0:20:
        e5:5b:95:c6:e0:a8:36:5c:80:b1:78:59:79:3f:8f:5d:a2:af:
        ea:4b:1b:1a:3f:d3:c5:76:d9:54:a4:bf:10:fe:0b:fe:ba:72:
        5d:af:2c:60:97:73:93:51:62:90:bb:8c:c4:a1:c0:ce:2a:ac:
        a1:a9:f1:95
-----BEGIN CERTIFICATE-----
MIIELTCCAxWgAwIBAgIUSkghkt7Ov6kN3UYHdDimxJV83o4wDQYJKoZIhvcNAQEL
BQAwgYExEjAQBgoJkiaJk/IsZAEZFgJjYTEUMBIGCgmSJomT8ixkARkWBGxhYjUx
GTAXBgNVBAoMEExhYjUgRGV2T3BzIEluYy4xFDASBgNVBAsMC3d3dy5sYWI1LmNh
MSQwIgYDVQQDDBtMYWI1IERldk9wcyBJbmMuIElzc3VpbmcgQ0EwHhcNMjQwMzI4
MjM0MjAzWhcNMzQwMzI4MjM0MjAzWjBuMRIwEAYKCZImiZPyLGQBGRYCY2ExFDAS
BgoJkiaJk/IsZAEZFgRsYWI1MRkwFwYDVQQKDBBMYWI1IERldk9wcyBJbmMuMRQw
EgYDVQQLDAt3d3cubGFiNS5jYTERMA8GA1UEAwwISm9obi5Eb2UwggEiMA0GCSqG
SIb3DQEBAQUAA4IBDwAwggEKAoIBAQCTQ9Dk50YjmkzXtqHcxqGJaYnytEnJpeAh
y/w0w+fyD7WCXcWEfz00H4DsLzSPF/aMsvBZ0bO/Ak6C1WQsf8L0eML2y9kIPWvD
xaD+LKfyiWjbyUra8S2y4m/uG50Jgr4lMhYGYmWI2OFmzZiCvMFqR+8NUGesFeSK
a4iR98k7Ald9LmqBK/tmIdEuy1wMAUbbU21nyA0BbHwUCg+R8wAG+tVBc14m30pA
Y1cOby6wDAYOpfMRJJxDZpkJX1r4loVnOgxlQNgFEm072qkbEJvypEhI15Hp2A0b
7ll/beinQGx9qryPADjTK0vfk9kl5xDLVLiX4L8x3ihdaF/jsfDtAgMBAAGjga4w
gaswDgYDVR0PAQH/BAQDAgWgMAkGA1UdEwQCMAAwMQYDVR0lBCowKAYIKwYBBQUH
AwEGCCsGAQUFBwMCBggrBgEFBQcDAwYIKwYBBQUHAwQwHQYDVR0OBBYEFEzDwHEE
Hzqp2nS5MA0TCCeOjxdYMB8GA1UdIwQYMBaAFK9Lxo+8+RmuHRHJuav//kghIT/w
MBsGA1UdEQQUMBKBEGpvaG4uZG9lQGxhYjUuY2EwDQYJKoZIhvcNAQELBQADggEB
AIvqBIPBPQmDCVBx9sQGlpOhON1aYbm2bT9xPtlQtXx14XcWdV6R7TyHo8ULxstD
ChNdaITqHMitxCUwPNr5UR2laWeZdiLHzLfNOedxP/AlZQSB9y5Y1XK7sYCCDqc6
GC7n/c97grL8bIQnFj3l41cFZ4ym4GOKwO/HKhXCh23e9W65u6CLn2wI8JYAHYBz
Nd1G2RnOmvi3bdCn6Xrgeo3z/wLaTj5XPt+ErkNkdhGGrPB2qg1jI+dFS4UNU22P
63dRCMygIOVblcbgqDZcgLF4WXk/j12ir+pLGxo/08V22VSkvxD+C/66cl2vLGCX
c5NRYpC7jMShwM4qrKGp8ZU=
-----END CERTIFICATE-----
