Certificate:
    Data:
        Version: 3 (0x2)
        Serial Number:
            4e:c2:68:f2:a8:c3:7f:fb:56:e4:ec:27:a9:2d:62:3e:2d:82:ca:6b
        Signature Algorithm: sha256WithRSAEncryption
        Issuer: DC=ca, DC=lab5, O=Lab5 DevOps Inc., OU=www.lab5.ca, CN=Lab5 DevOps Inc. Issuing CA
        Validity
            Not Before: Mar 17 21:19:23 2024 GMT
            Not After : Mar 17 21:19:23 2034 GMT
        Subject: DC=ca, DC=lab5, O=Lab5 DevOps Inc., OU=www.lab5.ca, CN=JohnDoe
        Subject Public Key Info:
            Public Key Algorithm: rsaEncryption
                Public-Key: (2048 bit)
                Modulus:
                    00:c5:a0:51:49:92:a3:ed:89:ea:7c:a0:7c:ca:92:
                    a0:07:72:03:72:7e:9b:3a:32:bc:70:f6:4e:a5:11:
                    79:dd:6b:43:4a:fa:39:35:fd:33:24:a8:3a:11:ac:
                    1a:0d:82:8e:8d:db:e0:7b:39:6b:39:79:9e:88:4f:
                    71:e0:7f:de:20:e3:b9:9c:d6:92:b2:39:bd:57:2b:
                    c4:98:33:40:d0:6a:12:f8:1a:35:6c:e6:99:61:86:
                    7f:99:da:af:66:94:74:07:be:d7:e3:13:2b:61:7c:
                    03:d8:dc:fc:a7:62:1d:53:74:9a:8d:f2:fd:95:a4:
                    46:e9:77:93:bb:16:b3:66:19:36:13:ae:75:c7:65:
                    66:2e:41:4a:c0:99:00:a9:cf:f2:99:45:68:3c:02:
                    52:cb:aa:97:d6:3a:d9:32:e8:64:64:f5:e6:b3:22:
                    85:f0:b2:a8:ba:ae:7d:95:97:52:b2:cc:3d:18:c1:
                    fe:c9:69:ec:5e:10:41:2f:c4:ca:b7:84:9e:9b:5b:
                    fc:30:5a:99:8b:b5:78:23:07:2d:c8:fa:c7:f1:6c:
                    eb:c3:a0:51:ef:5a:90:4c:5f:76:64:83:01:ab:87:
                    77:8e:ff:12:ca:fe:6a:1e:bd:6d:e6:73:65:4e:df:
                    e0:99:7f:a5:5d:27:2e:9e:6e:cf:3d:0f:e1:37:d1:
                    90:df
                Exponent: 65537 (0x10001)
        X509v3 extensions:
            X509v3 Key Usage: critical
                Digital Signature, Key Encipherment
            X509v3 Basic Constraints: 
                CA:FALSE
            X509v3 Extended Key Usage: 
                TLS Web Server Authentication, TLS Web Client Authentication, Code Signing, E-mail Protection
            X509v3 Subject Key Identifier: 
                51:9B:C8:8A:76:1D:AC:F0:EF:EE:DD:C5:CC:BB:AB:68:69:D8:BE:F8
            X509v3 Authority Key Identifier: 
                9E:AD:B5:AC:D1:D7:CD:C7:0A:19:D7:DA:07:A3:A4:64:5A:D5:95:D4
            X509v3 Subject Alternative Name: 
                email:john.doe@lab5.ca
    Signature Algorithm: sha256WithRSAEncryption
    Signature Value:
        52:97:71:48:09:90:e3:b8:97:0a:03:32:df:7c:7d:3a:b7:a5:
        15:cc:37:4e:04:aa:5b:1c:d8:5a:98:b5:81:04:12:b6:8b:e4:
        86:07:c3:0c:70:14:a6:44:07:90:32:81:8a:e6:c1:f5:42:c0:
        c9:ad:a2:1f:29:bd:19:5c:23:f0:ed:88:56:4a:a9:5a:94:fb:
        0a:ee:42:dd:28:64:34:5d:af:81:e1:4b:d6:f6:a0:9c:9e:70:
        28:c4:99:ce:b9:19:8a:2d:35:4e:19:ad:64:74:a8:8c:1b:a7:
        a0:c4:cd:6e:73:f7:20:cb:75:60:73:25:47:4a:3b:55:bf:16:
        d8:e3:d0:20:2e:62:e3:c9:3b:6f:b2:01:42:8c:2f:d1:a9:a5:
        98:f8:31:46:34:3f:ab:d0:5d:5c:a2:0e:e7:62:78:54:c3:a8:
        90:89:ee:ff:3b:0b:15:00:7c:74:03:65:47:7a:9b:e5:33:06:
        7b:06:4b:8b:c6:11:6e:f0:ff:42:c0:5c:3a:c7:cb:f2:86:79:
        3f:a6:aa:7c:e2:f1:79:7d:8c:4d:2b:4f:26:c4:96:ef:8d:eb:
        d6:61:67:21:7e:98:2f:25:cc:dd:31:a2:4c:29:96:4c:6a:7d:
        f9:a2:5e:bf:5b:93:3f:f9:56:b3:43:c2:a4:da:b6:5d:32:45:
        5d:a2:9a:0d
-----BEGIN CERTIFICATE-----
MIIELDCCAxSgAwIBAgIUTsJo8qjDf/tW5OwnqS1iPi2CymswDQYJKoZIhvcNAQEL
BQAwgYExEjAQBgoJkiaJk/IsZAEZFgJjYTEUMBIGCgmSJomT8ixkARkWBGxhYjUx
GTAXBgNVBAoMEExhYjUgRGV2T3BzIEluYy4xFDASBgNVBAsMC3d3dy5sYWI1LmNh
MSQwIgYDVQQDDBtMYWI1IERldk9wcyBJbmMuIElzc3VpbmcgQ0EwHhcNMjQwMzE3
MjExOTIzWhcNMzQwMzE3MjExOTIzWjBtMRIwEAYKCZImiZPyLGQBGRYCY2ExFDAS
BgoJkiaJk/IsZAEZFgRsYWI1MRkwFwYDVQQKDBBMYWI1IERldk9wcyBJbmMuMRQw
EgYDVQQLDAt3d3cubGFiNS5jYTEQMA4GA1UEAwwHSm9obkRvZTCCASIwDQYJKoZI
hvcNAQEBBQADggEPADCCAQoCggEBAMWgUUmSo+2J6nygfMqSoAdyA3J+mzoyvHD2
TqURed1rQ0r6OTX9MySoOhGsGg2Cjo3b4Hs5azl5nohPceB/3iDjuZzWkrI5vVcr
xJgzQNBqEvgaNWzmmWGGf5nar2aUdAe+1+MTK2F8A9jc/KdiHVN0mo3y/ZWkRul3
k7sWs2YZNhOudcdlZi5BSsCZAKnP8plFaDwCUsuql9Y62TLoZGT15rMihfCyqLqu
fZWXUrLMPRjB/slp7F4QQS/EyreEnptb/DBamYu1eCMHLcj6x/Fs68OgUe9akExf
dmSDAauHd47/Esr+ah69beZzZU7f4Jl/pV0nLp5uzz0P4TfRkN8CAwEAAaOBrjCB
qzAOBgNVHQ8BAf8EBAMCBaAwCQYDVR0TBAIwADAxBgNVHSUEKjAoBggrBgEFBQcD
AQYIKwYBBQUHAwIGCCsGAQUFBwMDBggrBgEFBQcDBDAdBgNVHQ4EFgQUUZvIinYd
rPDv7t3FzLuraGnYvvgwHwYDVR0jBBgwFoAUnq21rNHXzccKGdfaB6OkZFrVldQw
GwYDVR0RBBQwEoEQam9obi5kb2VAbGFiNS5jYTANBgkqhkiG9w0BAQsFAAOCAQEA
UpdxSAmQ47iXCgMy33x9OrelFcw3TgSqWxzYWpi1gQQStovkhgfDDHAUpkQHkDKB
iubB9ULAya2iHym9GVwj8O2IVkqpWpT7Cu5C3ShkNF2vgeFL1vagnJ5wKMSZzrkZ
ii01ThmtZHSojBunoMTNbnP3IMt1YHMlR0o7Vb8W2OPQIC5i48k7b7IBQowv0aml
mPgxRjQ/q9BdXKIO52J4VMOokInu/zsLFQB8dANlR3qb5TMGewZLi8YRbvD/QsBc
OsfL8oZ5P6aqfOLxeX2MTStPJsSW743r1mFnIX6YLyXM3TGiTCmWTGp9+aJev1uT
P/lWs0PCpNq2XTJFXaKaDQ==
-----END CERTIFICATE-----
