Certificate:
    Data:
        Version: 3 (0x2)
        Serial Number:
            54:6d:c5:6f:93:fb:48:78:77:51:ab:f6:e2:14:d4:ff:ec:ef:47:24
        Signature Algorithm: ED25519
        Issuer: DC=ca, DC=lab5, O=Lab5 DevOps Inc., OU=www.lab5.ca, CN=Lab5 DevOps Inc. Issuing CA
        Validity
            Not Before: Mar 10 00:03:42 2024 GMT
            Not After : Mar 10 00:03:42 2034 GMT
        Subject: DC=ca, DC=lab5, O=Lab5 DevOps Inc., OU=www.lab5.ca, CN=www.lab5.ca
        Subject Public Key Info:
            Public Key Algorithm: ED25519
                ED25519 Public-Key:
                pub:
                    b3:ce:aa:21:93:30:a4:e2:f1:0f:f2:2d:d1:13:35:
                    a5:5b:20:fc:5b:41:02:95:e2:d0:ae:92:50:38:72:
                    86:d7
        X509v3 extensions:
            X509v3 Key Usage: critical
                Digital Signature, Key Encipherment
            X509v3 Basic Constraints: 
                CA:FALSE
            X509v3 Extended Key Usage: 
                TLS Web Server Authentication, TLS Web Client Authentication
            X509v3 Subject Key Identifier: 
                4C:AE:58:86:1F:AF:AC:B3:68:15:7E:32:E8:20:08:0D:7E:CD:EA:FB
            X509v3 Authority Key Identifier: 
                5C:A6:53:DD:75:8D:CE:A1:10:D6:C8:E5:CF:EC:3D:55:11:99:C6:F5
            X509v3 Subject Alternative Name: 
                DNS:www.lab5.ca, DNS:log.lab5.ca, IP Address:10.99.99.100, IP Address:127.0.0.1
    Signature Algorithm: ED25519
    Signature Value:
        9c:0d:69:4a:6a:4f:c4:67:6d:58:de:22:11:f4:93:15:33:d2:
        97:3a:5b:52:61:09:4d:7a:a0:39:49:94:46:a1:6f:1f:db:95:
        f8:bd:7e:e9:32:5a:40:d8:de:06:82:59:49:b6:db:bc:2b:55:
        5b:89:24:04:08:2c:f3:db:e5:0b
-----BEGIN CERTIFICATE-----
MIICZDCCAhagAwIBAgIUVG3Fb5P7SHh3Uav24hTU/+zvRyQwBQYDK2VwMIGBMRIw
EAYKCZImiZPyLGQBGRYCY2ExFDASBgoJkiaJk/IsZAEZFgRsYWI1MRkwFwYDVQQK
DBBMYWI1IERldk9wcyBJbmMuMRQwEgYDVQQLDAt3d3cubGFiNS5jYTEkMCIGA1UE
AwwbTGFiNSBEZXZPcHMgSW5jLiBJc3N1aW5nIENBMB4XDTI0MDMxMDAwMDM0MloX
DTM0MDMxMDAwMDM0MlowcTESMBAGCgmSJomT8ixkARkWAmNhMRQwEgYKCZImiZPy
LGQBGRYEbGFiNTEZMBcGA1UECgwQTGFiNSBEZXZPcHMgSW5jLjEUMBIGA1UECwwL
d3d3LmxhYjUuY2ExFDASBgNVBAMMC3d3dy5sYWI1LmNhMCowBQYDK2VwAyEAs86q
IZMwpOLxD/It0RM1pVsg/FtBApXi0K6SUDhyhtejga4wgaswDgYDVR0PAQH/BAQD
AgWgMAkGA1UdEwQCMAAwHQYDVR0lBBYwFAYIKwYBBQUHAwEGCCsGAQUFBwMCMB0G
A1UdDgQWBBRMrliGH6+ss2gVfjLoIAgNfs3q+zAfBgNVHSMEGDAWgBRcplPddY3O
oRDWyOXP7D1VEZnG9TAvBgNVHREEKDAmggt3d3cubGFiNS5jYYILbG9nLmxhYjUu
Y2GHBApjY2SHBH8AAAEwBQYDK2VwA0EAnA1pSmpPxGdtWN4iEfSTFTPSlzpbUmEJ
TXqgOUmURqFvH9uV+L1+6TJaQNjeBoJZSbbbvCtVW4kkBAgs89vlCw==
-----END CERTIFICATE-----
