Certificate:
    Data:
        Version: 3 (0x2)
        Serial Number:
            55:80:ee:f7:07:67:ec:d0:6f:35:ff:fe:87:a4:23:0d:2a:b4:67:8b
        Signature Algorithm: ED25519
        Issuer: DC=ca, DC=lab5, O=Lab5 DevOps Inc., OU=www.lab5.ca, CN=Lab5 DevOps Inc. Issuing CA
        Validity
            Not Before: Mar 10 00:03:53 2024 GMT
            Not After : Mar 10 00:03:53 2034 GMT
        Subject: DC=ca, DC=lab5, O=Lab5 DevOps Inc., OU=www.lab5.ca, CN=db.lab5.ca
        Subject Public Key Info:
            Public Key Algorithm: ED25519
                ED25519 Public-Key:
                pub:
                    e6:34:cc:2e:50:bb:3f:80:53:8e:66:d7:73:02:62:
                    06:31:ef:d3:37:43:2c:fd:e0:67:d9:5b:72:6b:ef:
                    d4:00
        X509v3 extensions:
            X509v3 Key Usage: critical
                Digital Signature, Key Encipherment
            X509v3 Basic Constraints: 
                CA:FALSE
            X509v3 Extended Key Usage: 
                TLS Web Server Authentication, TLS Web Client Authentication
            X509v3 Subject Key Identifier: 
                7F:E5:C2:29:4C:C8:25:25:48:95:42:61:6A:7C:6D:9E:6D:CB:0C:8E
            X509v3 Authority Key Identifier: 
                5C:A6:53:DD:75:8D:CE:A1:10:D6:C8:E5:CF:EC:3D:55:11:99:C6:F5
            X509v3 Subject Alternative Name: 
                DNS:db.lab5.ca, DNS:db1.lab5.ca, IP Address:10.88.88.88, IP Address:127.0.0.1
    Signature Algorithm: ED25519
    Signature Value:
        9a:a0:9f:fc:71:e7:02:74:0f:a7:ac:28:0c:3e:4f:0e:f9:d1:
        84:eb:b4:e7:d5:9d:93:e3:41:c9:8a:33:15:18:bf:be:df:67:
        03:1d:97:99:fe:d5:5f:50:63:f6:59:28:2d:a5:ae:b2:de:2d:
        e9:b1:cd:45:8c:d1:17:52:c3:0b
-----BEGIN CERTIFICATE-----
MIICYjCCAhSgAwIBAgIUVYDu9wdn7NBvNf/+h6QjDSq0Z4swBQYDK2VwMIGBMRIw
EAYKCZImiZPyLGQBGRYCY2ExFDASBgoJkiaJk/IsZAEZFgRsYWI1MRkwFwYDVQQK
DBBMYWI1IERldk9wcyBJbmMuMRQwEgYDVQQLDAt3d3cubGFiNS5jYTEkMCIGA1UE
AwwbTGFiNSBEZXZPcHMgSW5jLiBJc3N1aW5nIENBMB4XDTI0MDMxMDAwMDM1M1oX
DTM0MDMxMDAwMDM1M1owcDESMBAGCgmSJomT8ixkARkWAmNhMRQwEgYKCZImiZPy
LGQBGRYEbGFiNTEZMBcGA1UECgwQTGFiNSBEZXZPcHMgSW5jLjEUMBIGA1UECwwL
d3d3LmxhYjUuY2ExEzARBgNVBAMMCmRiLmxhYjUuY2EwKjAFBgMrZXADIQDmNMwu
ULs/gFOOZtdzAmIGMe/TN0Ms/eBn2Vtya+/UAKOBrTCBqjAOBgNVHQ8BAf8EBAMC
BaAwCQYDVR0TBAIwADAdBgNVHSUEFjAUBggrBgEFBQcDAQYIKwYBBQUHAwIwHQYD
VR0OBBYEFH/lwilMyCUlSJVCYWp8bZ5tywyOMB8GA1UdIwQYMBaAFFymU911jc6h
ENbI5c/sPVURmcb1MC4GA1UdEQQnMCWCCmRiLmxhYjUuY2GCC2RiMS5sYWI1LmNh
hwQKWFhYhwR/AAABMAUGAytlcANBAJqgn/xx5wJ0D6esKAw+Tw750YTrtOfVnZPj
QcmKMxUYv77fZwMdl5n+1V9QY/ZZKC2lrrLeLemxzUWM0RdSwws=
-----END CERTIFICATE-----
