Certificate:
    Data:
        Version: 3 (0x2)
        Serial Number:
            77:96:f0:42:8d:6e:16:85:be:35:f4:dd:06:e1:db:e5:20:cc:a6:1d
        Signature Algorithm: sha256WithRSAEncryption
        Issuer: DC=ca, DC=lab5, O=Lab5 DevOps Inc., OU=www.lab5.ca, CN=Lab5 DevOps Inc. Issuing CA
        Validity
            Not Before: Mar 21 18:43:58 2024 GMT
            Not After : Mar 21 18:43:58 2034 GMT
        Subject: DC=ca, DC=lab5, O=Lab5 DevOps Inc., OU=www.lab5.ca, CN=www.lab5.ca
        Subject Public Key Info:
            Public Key Algorithm: rsaEncryption
                Public-Key: (2048 bit)
                Modulus:
                    00:93:21:6f:f0:52:af:cb:83:8e:70:11:d2:64:74:
                    a5:98:e0:d9:88:39:ec:0c:d0:53:ff:03:e6:67:ed:
                    f7:d6:d8:49:5d:24:08:74:56:52:ad:16:ca:8d:33:
                    f9:bb:6b:b8:27:5d:42:2c:d2:09:c6:06:97:d3:55:
                    31:b0:fd:23:88:51:f7:a5:bc:02:72:c9:8b:31:b6:
                    4b:fb:13:97:5b:bb:f8:24:2f:41:dc:bc:2a:60:f6:
                    a5:29:ad:ea:f7:42:35:b3:b1:f7:df:81:5e:20:7a:
                    d3:48:24:02:e1:54:a4:6d:1e:c2:24:0c:33:3b:35:
                    e6:b7:91:dc:62:2e:95:72:7a:10:2c:e5:4c:48:cd:
                    f2:fb:c2:5c:2b:83:e0:7b:cf:1f:31:8f:fc:b4:97:
                    4f:fd:c7:f7:6f:ce:6c:cf:15:da:f7:3f:df:4e:ee:
                    49:ea:11:b1:9e:e1:d3:b1:48:54:0a:00:e4:89:75:
                    06:e7:ac:81:78:13:ab:7b:4f:f3:49:7e:1e:4d:61:
                    d4:94:fa:db:e1:9b:94:b7:9a:d6:d0:94:de:a3:98:
                    b5:a2:ad:ee:96:5a:9b:85:4b:15:7b:9f:f1:e7:f3:
                    66:a2:48:16:e3:f5:0c:19:fe:0b:9e:9b:f3:ad:7d:
                    44:7d:06:09:0c:d7:45:64:33:62:24:cd:59:c1:88:
                    f0:35
                Exponent: 65537 (0x10001)
        X509v3 extensions:
            X509v3 Key Usage: critical
                Digital Signature, Key Encipherment
            X509v3 Basic Constraints: 
                CA:FALSE
            X509v3 Extended Key Usage: 
                TLS Web Server Authentication, TLS Web Client Authentication, Code Signing, E-mail Protection
            X509v3 Subject Key Identifier: 
                0E:6A:E3:B4:C7:97:7A:94:C1:9D:39:DB:E9:84:BA:A0:E0:18:46:99
            X509v3 Authority Key Identifier: 
                9E:AD:B5:AC:D1:D7:CD:C7:0A:19:D7:DA:07:A3:A4:64:5A:D5:95:D4
            X509v3 Subject Alternative Name: 
                DNS:www.lab5.ca, IP Address:127.0.0.1, email:user@email.com
    Signature Algorithm: sha256WithRSAEncryption
    Signature Value:
        3f:85:66:4b:24:27:ea:ce:9e:5a:7c:71:f0:c4:b9:59:7f:50:
        e3:ed:ad:e1:14:88:2c:df:b1:ad:17:bc:c3:0e:30:a0:8a:9c:
        aa:b2:50:b8:61:03:bc:f4:ae:46:ae:b9:bc:c9:07:43:d6:cb:
        4f:1f:17:37:d4:26:14:26:96:a0:fb:4b:d9:d1:b8:dd:77:bc:
        5b:9c:f3:b1:2e:6f:be:08:3e:47:56:29:b8:1f:ad:9f:7d:c2:
        c7:03:bb:f9:5a:1a:6a:c0:25:04:ab:9f:ea:f2:a3:39:b7:8a:
        9e:58:ff:27:fe:e4:71:e1:0f:a2:b9:00:01:fd:71:4b:16:6d:
        a6:19:89:5c:96:d2:7f:08:bc:e5:2c:d2:16:af:84:00:3d:78:
        0c:84:9f:73:04:2f:0f:ff:01:dc:00:15:50:cb:eb:5b:21:46:
        1b:0f:33:0c:22:57:2a:6e:1e:46:e2:36:56:51:1d:8c:51:76:
        8d:df:20:10:4e:0c:81:44:29:b4:4e:1a:a3:20:77:a2:bf:2d:
        ed:8e:04:67:9f:f0:ef:54:f8:8a:4d:4b:2e:2b:c0:1e:1d:17:
        a2:ee:6b:66:76:66:a8:0c:49:91:f6:7e:27:eb:b6:75:bc:4b:
        46:81:a9:83:6d:40:b5:f2:dc:1b:4a:c0:da:c1:5d:1f:c4:56:
        73:17:a1:dc
-----BEGIN CERTIFICATE-----
MIIEQTCCAymgAwIBAgIUd5bwQo1uFoW+NfTdBuHb5SDMph0wDQYJKoZIhvcNAQEL
BQAwgYExEjAQBgoJkiaJk/IsZAEZFgJjYTEUMBIGCgmSJomT8ixkARkWBGxhYjUx
GTAXBgNVBAoMEExhYjUgRGV2T3BzIEluYy4xFDASBgNVBAsMC3d3dy5sYWI1LmNh
MSQwIgYDVQQDDBtMYWI1IERldk9wcyBJbmMuIElzc3VpbmcgQ0EwHhcNMjQwMzIx
MTg0MzU4WhcNMzQwMzIxMTg0MzU4WjBxMRIwEAYKCZImiZPyLGQBGRYCY2ExFDAS
BgoJkiaJk/IsZAEZFgRsYWI1MRkwFwYDVQQKDBBMYWI1IERldk9wcyBJbmMuMRQw
EgYDVQQLDAt3d3cubGFiNS5jYTEUMBIGA1UEAwwLd3d3LmxhYjUuY2EwggEiMA0G
CSqGSIb3DQEBAQUAA4IBDwAwggEKAoIBAQCTIW/wUq/Lg45wEdJkdKWY4NmIOewM
0FP/A+Zn7ffW2EldJAh0VlKtFsqNM/m7a7gnXUIs0gnGBpfTVTGw/SOIUfelvAJy
yYsxtkv7E5dbu/gkL0HcvCpg9qUprer3QjWzsfffgV4getNIJALhVKRtHsIkDDM7
Nea3kdxiLpVyehAs5UxIzfL7wlwrg+B7zx8xj/y0l0/9x/dvzmzPFdr3P99O7knq
EbGe4dOxSFQKAOSJdQbnrIF4E6t7T/NJfh5NYdSU+tvhm5S3mtbQlN6jmLWire6W
WpuFSxV7n/Hn82aiSBbj9QwZ/guem/OtfUR9BgkM10VkM2IkzVnBiPA1AgMBAAGj
gb8wgbwwDgYDVR0PAQH/BAQDAgWgMAkGA1UdEwQCMAAwMQYDVR0lBCowKAYIKwYB
BQUHAwEGCCsGAQUFBwMCBggrBgEFBQcDAwYIKwYBBQUHAwQwHQYDVR0OBBYEFA5q
47THl3qUwZ052+mEuqDgGEaZMB8GA1UdIwQYMBaAFJ6ttazR183HChnX2gejpGRa
1ZXUMCwGA1UdEQQlMCOCC3d3dy5sYWI1LmNhhwR/AAABgQ51c2VyQGVtYWlsLmNv
bTANBgkqhkiG9w0BAQsFAAOCAQEAP4VmSyQn6s6eWnxx8MS5WX9Q4+2t4RSILN+x
rRe8ww4woIqcqrJQuGEDvPSuRq65vMkHQ9bLTx8XN9QmFCaWoPtL2dG43Xe8W5zz
sS5vvgg+R1YpuB+tn33CxwO7+VoaasAlBKuf6vKjObeKnlj/J/7kceEPorkAAf1x
SxZtphmJXJbSfwi85SzSFq+EAD14DISfcwQvD/8B3AAVUMvrWyFGGw8zDCJXKm4e
RuI2VlEdjFF2jd8gEE4MgUQptE4aoyB3or8t7Y4EZ5/w71T4ik1LLivAHh0Xou5r
ZnZmqAxJkfZ+J+u2dbxLRoGpg21AtfLcG0rA2sFdH8RWcxeh3A==
-----END CERTIFICATE-----
