Certificate:
    Data:
        Version: 3 (0x2)
        Serial Number:
            7a:f7:53:9f:d4:b1:b3:d8:27:dd:54:c2:d3:44:60:1c:0a:48:e5:90
        Signature Algorithm: sha256WithRSAEncryption
        Issuer: DC=ca, DC=lab5, O=Lab5 DevOps Inc., OU=www.lab5.ca, CN=Lab5 DevOps Inc. Issuing CA
        Validity
            Not Before: May 20 23:13:57 2024 GMT
            Not After : May 20 23:13:57 2034 GMT
        Subject: DC=ca, DC=lab5, O=Lab5 DevOps Inc., OU=www.lab5.ca, CN=db.lab5.ca
        Subject Public Key Info:
            Public Key Algorithm: rsaEncryption
                Public-Key: (2048 bit)
                Modulus:
                    00:9b:62:2e:f6:c7:ae:e4:be:e3:3f:46:22:61:dc:
                    ff:94:5e:bb:aa:78:77:dd:63:f1:28:65:ce:8e:2c:
                    c8:90:76:50:6e:0b:9d:2a:dd:f8:e9:22:b8:e2:ad:
                    5f:c4:4f:10:36:1b:cb:f8:e8:66:5a:fa:14:cc:78:
                    f1:92:b1:f4:7e:b5:b0:e3:10:07:d0:6b:19:95:a0:
                    c2:a6:6e:11:aa:72:bc:4c:84:66:17:25:41:06:d7:
                    74:7d:5a:0d:ef:0b:0c:e8:8e:4d:ba:98:a3:d1:2c:
                    32:ff:ba:88:46:1c:62:da:4d:36:fd:be:9e:62:6d:
                    39:e4:72:11:cf:b0:6b:90:51:bf:f0:32:e8:1b:da:
                    fe:6d:9c:68:d3:f3:20:71:ff:44:cc:20:d0:d9:0b:
                    bb:b0:83:d8:03:da:cd:53:3d:35:f7:9a:ee:f3:73:
                    39:40:4a:56:df:1f:96:9b:62:97:4f:2f:51:11:ac:
                    1e:4a:26:87:fd:e8:dd:36:2c:5e:e0:2f:11:55:66:
                    51:0b:a3:fd:ea:af:43:38:11:4f:cd:c9:87:5a:48:
                    5c:0d:ba:fe:00:af:8f:94:6b:5f:5c:5c:e9:91:e3:
                    f2:e1:4a:7c:c6:49:ce:4e:10:65:49:ce:64:3f:ec:
                    d5:27:dc:52:b3:e1:ac:73:6c:99:0b:2a:06:b5:1d:
                    2a:15
                Exponent: 65537 (0x10001)
        X509v3 extensions:
            X509v3 Key Usage: critical
                Digital Signature, Key Encipherment
            X509v3 Basic Constraints: 
                CA:FALSE
            X509v3 Extended Key Usage: 
                TLS Web Server Authentication, TLS Web Client Authentication, Code Signing, E-mail Protection
            X509v3 Subject Key Identifier: 
                B4:25:E2:C0:CB:03:6B:19:14:80:2E:C8:65:8E:29:93:95:D6:C5:08
            X509v3 Authority Key Identifier: 
                02:0E:3C:27:7B:64:6C:77:A6:B3:8E:F0:E0:49:1B:A9:0A:E1:C0:DC
            X509v3 Subject Alternative Name: 
                DNS:db.lab5.ca
    Signature Algorithm: sha256WithRSAEncryption
    Signature Value:
        44:44:ac:d8:e4:fe:8d:5e:4b:12:73:3b:0e:5b:5b:e7:19:4c:
        64:91:21:58:af:1c:d3:b9:df:17:3d:bd:20:14:40:b4:d0:53:
        59:2a:05:61:ad:07:92:4d:db:52:db:8a:66:74:4f:49:88:d7:
        e1:cd:57:e3:07:29:c6:f1:75:aa:ae:a4:45:52:76:9b:70:71:
        1c:28:e1:51:55:2b:20:f8:9b:80:72:17:24:11:2f:bf:60:fd:
        de:d6:db:c2:59:4d:81:77:f2:93:b3:aa:a4:0f:94:12:ea:1b:
        10:4e:45:bc:ac:60:c0:31:44:16:42:22:46:22:47:a2:ca:a5:
        32:b9:d8:b3:c1:ed:ec:3a:b9:46:17:f5:50:31:ae:40:b9:87:
        18:cc:83:52:19:9e:14:a8:97:18:77:dd:52:18:e0:d7:88:bd:
        b0:0a:fd:18:cf:d6:fc:e8:6c:ee:8f:eb:8c:df:a3:ea:d4:f6:
        35:95:b9:50:a9:13:db:0a:de:01:6e:bd:04:25:f4:21:6e:5c:
        79:92:21:6b:81:62:8a:2d:e1:74:0e:0d:4f:fc:47:02:ff:dc:
        a3:03:66:8b:fd:19:64:e9:e6:5c:c5:3a:cb:b9:c6:ee:97:fc:
        82:6f:92:74:9e:29:d7:c6:0d:b3:4d:0f:c2:06:bf:05:cd:f7:
        e1:4d:77:99:ef:86:2f:17:7e:07:ec:10:4a:a0:d8:e6:0d:62:
        38:9b:f9:f8:97:a2:f5:e1:76:47:da:95:43:27:d1:ee:5f:0d:
        0c:bf:c4:99:39:ec:6b:33:0f:95:64:0d:1a:34:d7:c6:d3:b9:
        f1:6c:f9:d5:20:43:d6:a7:32:8a:04:72:c3:fd:e4:74:10:8c:
        85:21:8d:01:db:6e:b3:e0:fd:ad:74:3c:19:ab:b0:12:f3:e4:
        dc:34:2d:6c:9f:d2:7d:db:f9:06:3b:4b:04:c2:b5:3b:18:0e:
        52:04:b1:02:cf:aa:2f:00:c2:66:c4:98:d0:b7:47:d8:35:db:
        ef:ab:e7:8a:f0:12:a6:8a:0c:75:22:6a:e5:7d:46:53:00:39:
        3e:c8:67:28:99:6e:5b:a2:11:65:b3:88:e9:61:fe:47:8e:54:
        42:39:82:66:8e:3e:d8:2a:2a:da:40:e3:69:f7:c2:59:5a:84:
        60:1b:30:12:e8:14:54:db:98:bd:86:39:77:91:d1:8b:2f:78:
        2b:47:d4:d4:8e:93:cb:33:78:8a:1a:c2:35:23:c3:74:8e:a9:
        26:60:4b:78:15:cf:46:73:e9:42:8e:f9:ab:1b:6f:e7:0f:02:
        1f:7f:6c:81:51:53:f7:9a:b5:47:dd:5b:a6:03:4e:69:e5:57:
        29:82:df:27:8f:23:84:fe
-----BEGIN CERTIFICATE-----
MIIFKTCCAxGgAwIBAgIUevdTn9Sxs9gn3VTC00RgHApI5ZAwDQYJKoZIhvcNAQEL
BQAwgYExEjAQBgoJkiaJk/IsZAEZFgJjYTEUMBIGCgmSJomT8ixkARkWBGxhYjUx
GTAXBgNVBAoMEExhYjUgRGV2T3BzIEluYy4xFDASBgNVBAsMC3d3dy5sYWI1LmNh
MSQwIgYDVQQDDBtMYWI1IERldk9wcyBJbmMuIElzc3VpbmcgQ0EwHhcNMjQwNTIw
MjMxMzU3WhcNMzQwNTIwMjMxMzU3WjBwMRIwEAYKCZImiZPyLGQBGRYCY2ExFDAS
BgoJkiaJk/IsZAEZFgRsYWI1MRkwFwYDVQQKDBBMYWI1IERldk9wcyBJbmMuMRQw
EgYDVQQLDAt3d3cubGFiNS5jYTETMBEGA1UEAwwKZGIubGFiNS5jYTCCASIwDQYJ
KoZIhvcNAQEBBQADggEPADCCAQoCggEBAJtiLvbHruS+4z9GImHc/5Reu6p4d91j
8Shlzo4syJB2UG4LnSrd+OkiuOKtX8RPEDYby/joZlr6FMx48ZKx9H61sOMQB9Br
GZWgwqZuEapyvEyEZhclQQbXdH1aDe8LDOiOTbqYo9EsMv+6iEYcYtpNNv2+nmJt
OeRyEc+wa5BRv/Ay6Bva/m2caNPzIHH/RMwg0NkLu7CD2APazVM9Nfea7vNzOUBK
Vt8flptil08vURGsHkomh/3o3TYsXuAvEVVmUQuj/eqvQzgRT83Jh1pIXA26/gCv
j5RrX1xc6ZHj8uFKfMZJzk4QZUnOZD/s1SfcUrPhrHNsmQsqBrUdKhUCAwEAAaOB
qDCBpTAOBgNVHQ8BAf8EBAMCBaAwCQYDVR0TBAIwADAxBgNVHSUEKjAoBggrBgEF
BQcDAQYIKwYBBQUHAwIGCCsGAQUFBwMDBggrBgEFBQcDBDAdBgNVHQ4EFgQUtCXi
wMsDaxkUgC7IZY4pk5XWxQgwHwYDVR0jBBgwFoAUAg48J3tkbHems47w4EkbqQrh
wNwwFQYDVR0RBA4wDIIKZGIubGFiNS5jYTANBgkqhkiG9w0BAQsFAAOCAgEARESs
2OT+jV5LEnM7Dltb5xlMZJEhWK8c07nfFz29IBRAtNBTWSoFYa0Hkk3bUtuKZnRP
SYjX4c1X4wcpxvF1qq6kRVJ2m3BxHCjhUVUrIPibgHIXJBEvv2D93tbbwllNgXfy
k7OqpA+UEuobEE5FvKxgwDFEFkIiRiJHosqlMrnYs8Ht7Dq5Rhf1UDGuQLmHGMyD
UhmeFKiXGHfdUhjg14i9sAr9GM/W/Ohs7o/rjN+j6tT2NZW5UKkT2wreAW69BCX0
IW5ceZIha4Fiii3hdA4NT/xHAv/cowNmi/0ZZOnmXMU6y7nG7pf8gm+SdJ4p18YN
s00Pwga/Bc334U13me+GLxd+B+wQSqDY5g1iOJv5+Jei9eF2R9qVQyfR7l8NDL/E
mTnsazMPlWQNGjTXxtO58Wz51SBD1qcyigRyw/3kdBCMhSGNAdtus+D9rXQ8Gauw
EvPk3DQtbJ/Sfdv5BjtLBMK1OxgOUgSxAs+qLwDCZsSY0LdH2DXb76vnivASpooM
dSJq5X1GUwA5PshnKJluW6IRZbOI6WH+R45UQjmCZo4+2Coq2kDjaffCWVqEYBsw
EugUVNuYvYY5d5HRiy94K0fU1I6TyzN4ihrCNSPDdI6pJmBLeBXPRnPpQo75qxtv
5w8CH39sgVFT95q1R91bpgNOaeVXKYLfJ48jhP4=
-----END CERTIFICATE-----
