Certificate:
    Data:
        Version: 3 (0x2)
        Serial Number:
            7c:93:c1:75:8a:d5:39:c6:af:40:e5:e5:76:75:95:44:dc:93:1e:d6
        Signature Algorithm: sha256WithRSAEncryption
        Issuer: DC=ca, DC=lab5, O=Lab5 DevOps Inc., OU=www.lab5.ca, CN=Lab5 DevOps Inc. Issuing CA
        Validity
            Not Before: Mar 29 12:16:58 2024 GMT
            Not After : Mar 29 12:16:58 2034 GMT
        Subject: DC=ca, DC=lab5, O=Lab5 DevOps Inc., OU=www.lab5.ca, CN=www.lab5.ca
        Subject Public Key Info:
            Public Key Algorithm: rsaEncryption
                Public-Key: (2048 bit)
                Modulus:
                    00:97:2f:73:02:70:02:5b:f9:69:2a:0e:9c:a4:8c:
                    24:1c:9b:48:5d:aa:87:0c:0d:15:c5:3e:66:6a:77:
                    56:08:94:91:79:38:ad:17:02:dd:ac:91:06:86:5c:
                    12:86:3a:1c:00:39:ad:d7:bc:9e:df:14:99:fe:cf:
                    8a:b6:92:fb:34:8a:36:4b:32:ba:c7:20:9b:36:f9:
                    34:e4:a5:03:2d:f5:52:d3:d6:4c:00:d0:3a:ed:50:
                    b2:97:74:3a:3e:e7:45:1f:b0:11:ef:ce:e5:15:6c:
                    06:53:a1:66:87:6f:31:d5:ed:1f:cf:81:fc:00:cf:
                    b6:20:25:16:d6:76:bf:26:33:99:0f:c5:fa:52:95:
                    bf:79:5c:80:2d:49:27:e0:09:5d:3e:ab:a4:39:2b:
                    b3:39:ee:42:7c:99:01:51:d6:6e:fd:86:0d:ed:52:
                    cc:75:86:05:7e:b9:8e:ff:20:0d:e4:1d:09:7e:92:
                    84:c5:96:f7:3e:40:67:37:16:3d:75:b2:40:70:61:
                    6d:1a:73:e4:f9:61:e3:35:76:19:65:0f:5d:6d:8c:
                    ad:58:6e:3a:09:bd:23:11:99:46:29:58:53:4c:d2:
                    29:71:9a:44:3c:f1:68:6c:d3:04:a1:c5:92:92:15:
                    30:8f:1b:ce:e4:7b:86:86:5c:b6:ad:61:40:98:e9:
                    14:a7
                Exponent: 65537 (0x10001)
        X509v3 extensions:
            X509v3 Key Usage: critical
                Digital Signature, Key Encipherment
            X509v3 Basic Constraints: 
                CA:FALSE
            X509v3 Extended Key Usage: 
                TLS Web Server Authentication, TLS Web Client Authentication, Code Signing, E-mail Protection
            X509v3 Subject Key Identifier: 
                54:1E:3C:BA:0A:20:FA:92:0A:49:01:48:B0:41:9B:5B:FD:0A:A0:AB
            X509v3 Authority Key Identifier: 
                89:24:98:41:38:FE:3D:80:3B:D1:16:BE:9A:57:3B:5F:38:26:25:DF
            X509v3 Subject Alternative Name: 
                DNS:www.lab5.ca, IP Address:127.0.0.1, email:user@email.com
    Signature Algorithm: sha256WithRSAEncryption
    Signature Value:
        69:12:8c:12:91:3d:f8:85:48:03:6e:59:7d:31:4c:e8:62:b1:
        fa:69:c7:06:f8:d0:9a:86:df:2e:bc:2a:80:09:da:6f:9f:10:
        6f:a4:43:f7:9c:ef:c2:6b:3c:b3:c7:6c:00:fb:15:34:71:fe:
        ce:a9:47:b9:e2:d4:7b:d8:0c:81:f3:3b:fa:12:e6:a0:02:1c:
        74:e3:ac:a7:fb:33:c4:04:e9:dd:c2:47:30:6d:28:0f:23:d2:
        54:3c:04:4a:05:c8:86:49:62:5f:95:ba:49:0e:73:02:57:27:
        f0:8c:cf:f3:35:8a:83:74:d3:64:a6:92:0c:d1:6a:ce:e7:24:
        d5:d6:c9:91:dd:12:91:55:31:0c:7d:21:94:ed:24:41:14:6e:
        7b:4a:6a:95:72:56:3a:91:6d:09:34:9e:31:43:77:c9:de:87:
        11:75:5b:37:e2:1a:76:37:5a:f4:79:9b:ea:1b:22:f3:65:90:
        a0:fd:54:ef:b6:3b:33:a7:d8:21:32:46:bb:70:3a:bb:9e:1e:
        ab:46:1e:81:a1:94:a1:9c:34:89:a1:4e:f8:c9:bb:36:d0:f2:
        c5:36:b2:ce:cc:50:97:08:c1:74:53:4f:aa:ec:7a:26:b3:bc:
        a3:7d:9a:65:33:94:75:7a:cf:49:fb:61:a9:dc:6d:d7:04:2a:
        12:a0:1a:1a:d3:10:3f:b3:2c:c8:ec:12:21:d1:6c:42:f3:a7:
        b8:17:df:ce:5a:51:8b:81:9f:27:7c:7e:d6:33:14:f4:29:af:
        ac:eb:3e:b4:7f:48:6a:fc:41:2e:57:ee:75:9d:5f:ee:56:ab:
        40:c1:d4:b2:4b:93:be:04:7a:35:86:e6:d1:e1:38:b0:cd:ad:
        61:ac:a9:c3:5f:68:8c:d6:f5:a7:31:eb:7e:b4:a7:be:1d:51:
        f5:11:54:54:90:27:86:74:39:bc:c9:5c:d6:4e:42:25:9c:5c:
        72:50:86:d3:ee:2c:49:e5:ba:10:d3:b0:13:0f:95:22:20:0e:
        27:a4:99:4a:16:f3:35:5b:ba:1e:8e:a6:bc:8a:42:31:fb:1c:
        41:1c:fe:7d:23:8e:fb:d0:d7:43:15:dc:95:6e:8d:4a:4b:c0:
        23:b7:55:e4:1a:04:d4:16:f9:ae:05:d2:94:7b:5f:c1:4d:36:
        7c:a3:e9:2f:68:41:89:48:29:04:d2:b5:89:73:35:58:34:b6:
        52:ec:1b:e6:1b:bf:25:56:b5:62:db:f8:b9:c6:1d:c6:f1:80:
        ab:78:3c:5f:71:2c:66:4e:70:eb:3a:7a:1b:32:16:5b:71:d2:
        4d:1f:cc:ae:f8:e4:7e:67:dc:44:eb:2c:ca:39:c5:32:59:52:
        b3:b4:66:3a:66:28:da:ca
-----BEGIN CERTIFICATE-----
MIIFQTCCAymgAwIBAgIUfJPBdYrVOcavQOXldnWVRNyTHtYwDQYJKoZIhvcNAQEL
BQAwgYExEjAQBgoJkiaJk/IsZAEZFgJjYTEUMBIGCgmSJomT8ixkARkWBGxhYjUx
GTAXBgNVBAoMEExhYjUgRGV2T3BzIEluYy4xFDASBgNVBAsMC3d3dy5sYWI1LmNh
MSQwIgYDVQQDDBtMYWI1IERldk9wcyBJbmMuIElzc3VpbmcgQ0EwHhcNMjQwMzI5
MTIxNjU4WhcNMzQwMzI5MTIxNjU4WjBxMRIwEAYKCZImiZPyLGQBGRYCY2ExFDAS
BgoJkiaJk/IsZAEZFgRsYWI1MRkwFwYDVQQKDBBMYWI1IERldk9wcyBJbmMuMRQw
EgYDVQQLDAt3d3cubGFiNS5jYTEUMBIGA1UEAwwLd3d3LmxhYjUuY2EwggEiMA0G
CSqGSIb3DQEBAQUAA4IBDwAwggEKAoIBAQCXL3MCcAJb+WkqDpykjCQcm0hdqocM
DRXFPmZqd1YIlJF5OK0XAt2skQaGXBKGOhwAOa3XvJ7fFJn+z4q2kvs0ijZLMrrH
IJs2+TTkpQMt9VLT1kwA0DrtULKXdDo+50UfsBHvzuUVbAZToWaHbzHV7R/PgfwA
z7YgJRbWdr8mM5kPxfpSlb95XIAtSSfgCV0+q6Q5K7M57kJ8mQFR1m79hg3tUsx1
hgV+uY7/IA3kHQl+koTFlvc+QGc3Fj11skBwYW0ac+T5YeM1dhllD11tjK1YbjoJ
vSMRmUYpWFNM0ilxmkQ88Whs0wShxZKSFTCPG87ke4aGXLatYUCY6RSnAgMBAAGj
gb8wgbwwDgYDVR0PAQH/BAQDAgWgMAkGA1UdEwQCMAAwMQYDVR0lBCowKAYIKwYB
BQUHAwEGCCsGAQUFBwMCBggrBgEFBQcDAwYIKwYBBQUHAwQwHQYDVR0OBBYEFFQe
PLoKIPqSCkkBSLBBm1v9CqCrMB8GA1UdIwQYMBaAFIkkmEE4/j2AO9EWvppXO184
JiXfMCwGA1UdEQQlMCOCC3d3dy5sYWI1LmNhhwR/AAABgQ51c2VyQGVtYWlsLmNv
bTANBgkqhkiG9w0BAQsFAAOCAgEAaRKMEpE9+IVIA25ZfTFM6GKx+mnHBvjQmobf
LrwqgAnab58Qb6RD95zvwms8s8dsAPsVNHH+zqlHueLUe9gMgfM7+hLmoAIcdOOs
p/szxATp3cJHMG0oDyPSVDwESgXIhkliX5W6SQ5zAlcn8IzP8zWKg3TTZKaSDNFq
zuck1dbJkd0SkVUxDH0hlO0kQRRue0pqlXJWOpFtCTSeMUN3yd6HEXVbN+Iadjda
9Hmb6hsi82WQoP1U77Y7M6fYITJGu3A6u54eq0YegaGUoZw0iaFO+Mm7NtDyxTay
zsxQlwjBdFNPqux6JrO8o32aZTOUdXrPSfthqdxt1wQqEqAaGtMQP7MsyOwSIdFs
QvOnuBffzlpRi4GfJ3x+1jMU9CmvrOs+tH9IavxBLlfudZ1f7larQMHUskuTvgR6
NYbm0eE4sM2tYaypw19ojNb1pzHrfrSnvh1R9RFUVJAnhnQ5vMlc1k5CJZxcclCG
0+4sSeW6ENOwEw+VIiAOJ6SZShbzNVu6Ho6mvIpCMfscQRz+fSOO+9DXQxXclW6N
SkvAI7dV5BoE1Bb5rgXSlHtfwU02fKPpL2hBiUgpBNK1iXM1WDS2Uuwb5hu/JVa1
Ytv4ucYdxvGAq3g8X3EsZk5w6zp6GzIWW3HSTR/MrvjkfmfcROssyjnFMllSs7Rm
OmYo2so=
-----END CERTIFICATE-----
