Certificate:
    Data:
        Version: 3 (0x2)
        Serial Number:
            7f:76:d3:9f:6a:4a:bf:ac:e7:d4:d5:79:17:71:89:4d:15:35:73:0d
        Signature Algorithm: sha256WithRSAEncryption
        Issuer: DC=ca, DC=lab5, O=Lab5 DevOps Inc., OU=www.lab5.ca, CN=Lab5 DevOps Inc. Issuing CA
        Validity
            Not Before: Mar 28 23:54:00 2024 GMT
            Not After : Mar 28 23:54:00 2034 GMT
        Subject: DC=ca, DC=lab5, O=Lab5 DevOps Inc., OU=www.lab5.ca, CN=www.lab5.ca
        Subject Public Key Info:
            Public Key Algorithm: rsaEncryption
                Public-Key: (2048 bit)
                Modulus:
                    00:9c:ed:38:8e:ff:9c:ff:8e:3e:e1:3e:7b:99:df:
                    45:cf:74:d7:94:9e:23:c6:82:e7:de:31:2c:ff:2f:
                    07:20:1e:f8:5e:ab:ca:74:a4:77:77:3b:a2:04:14:
                    19:19:c2:e6:13:61:0e:5e:e0:df:2f:8e:db:34:22:
                    66:9e:27:f6:56:51:22:63:82:db:46:31:43:83:5a:
                    6b:53:63:6c:e4:ac:2c:bf:d3:45:76:ed:4b:a3:2c:
                    d0:6b:2a:f0:52:4a:dd:7a:c5:84:de:1f:07:8c:78:
                    13:98:06:fd:16:f4:5c:8b:77:59:dc:20:df:a0:5a:
                    d5:a0:cf:dd:c1:06:24:35:3d:82:d0:2d:4b:86:33:
                    78:35:f0:53:49:a2:ed:c9:a0:a8:b0:ac:10:7c:eb:
                    5e:a1:01:22:3d:35:d1:b3:a1:06:c2:4f:65:20:3b:
                    e8:6b:4c:8a:32:ee:be:3a:bc:a1:22:75:99:5e:c1:
                    b7:db:17:30:69:bd:fb:55:f9:dc:09:8d:35:98:e9:
                    95:6d:1e:3f:dc:82:e2:9d:86:77:86:3a:d9:1d:80:
                    12:0f:d2:64:76:fd:e3:1a:6a:c4:f8:9f:91:47:8b:
                    d0:fd:c5:3b:6d:64:31:a7:89:14:08:72:bd:a4:15:
                    f9:d9:29:48:e5:47:61:18:ef:11:fa:c8:83:d4:20:
                    73:d7
                Exponent: 65537 (0x10001)
        X509v3 extensions:
            X509v3 Key Usage: critical
                Digital Signature, Key Encipherment
            X509v3 Basic Constraints: 
                CA:FALSE
            X509v3 Extended Key Usage: 
                TLS Web Server Authentication, TLS Web Client Authentication, Code Signing, E-mail Protection
            X509v3 Subject Key Identifier: 
                1B:79:30:D3:87:5D:3F:F1:80:ED:BA:07:48:70:4A:18:E9:14:73:7F
            X509v3 Authority Key Identifier: 
                AC:8B:AF:76:53:5B:C0:75:2C:D9:1C:EE:9B:69:DF:C4:06:4F:01:77
            X509v3 Subject Alternative Name: 
                DNS:www.lab5.ca, IP Address:127.0.0.1, email:user@email.com
    Signature Algorithm: sha256WithRSAEncryption
    Signature Value:
        26:bf:77:f3:7c:b8:84:cb:a7:be:e2:84:2c:33:5e:da:41:70:
        d4:f4:5e:56:34:82:2f:55:88:3c:b5:80:aa:89:27:9e:34:b8:
        2d:31:22:6b:8a:93:95:7f:27:c8:35:cc:be:6b:4b:07:30:bc:
        69:54:1f:7f:23:a9:e3:4b:e9:20:18:48:56:f2:4a:be:24:87:
        c9:87:bb:43:20:dd:41:e3:9a:c1:4d:30:4d:f4:14:10:a9:2f:
        0c:1c:88:ba:03:1e:17:f8:71:c3:f5:cd:67:9a:33:e8:37:09:
        3a:2d:18:77:c2:12:ca:3c:f8:12:bb:58:df:9e:67:8c:e0:cf:
        f5:d8:d2:5e:82:87:e4:a7:4d:98:58:3f:67:8f:4e:07:35:13:
        ef:2b:4b:05:40:b5:eb:90:cd:61:c7:b4:d9:e1:dc:c9:33:52:
        a4:e8:b3:a6:41:40:b8:09:31:37:99:29:73:45:8d:2a:e7:0f:
        95:4e:0c:14:59:75:26:f9:1a:f2:6a:54:64:02:39:98:6f:d1:
        5c:78:6b:3a:52:eb:87:ae:be:65:5b:a3:f8:1b:b7:7a:c2:83:
        bf:d2:0a:f9:f0:fe:68:0a:b6:c8:c0:e4:fe:c4:3e:ca:e3:07:
        f3:41:0d:76:69:40:db:e7:f3:4a:ad:8d:8e:1a:e6:d8:9f:a1:
        e0:cb:6f:c5:61:9f:cb:d6:47:2b:82:4c:6e:fc:ca:b5:bc:2b:
        a0:2f:2d:1c:e2:c1:6e:72:18:d1:68:a8:e7:6f:c7:16:79:46:
        98:d2:c0:04:2b:07:d2:63:07:94:f6:a7:09:6f:30:f7:ea:7e:
        35:0f:4b:81:85:f6:4a:af:5b:60:d0:87:39:c4:5a:3e:ad:26:
        9a:e8:ed:de:a5:8a:69:69:78:df:9f:2f:a3:66:c7:3c:ab:ef:
        f6:3b:cf:53:4e:48:9b:50:b7:d0:d7:8a:c2:a4:18:7d:f4:51:
        0b:01:90:81:c8:6c:f6:22:1c:a8:c5:05:3c:7b:fe:f4:08:1e:
        3c:38:eb:19:6c:63:33:03:93:c4:43:c2:2c:c1:ba:be:f8:bc:
        52:8d:b1:e2:95:39:8e:bb:b4:bf:53:47:2c:21:9a:ff:87:be:
        35:ae:89:12:28:dd:29:d6:6b:f7:dc:f5:71:ed:b2:f1:7d:8d:
        1a:bf:07:4b:e9:72:bf:ad:4c:ad:e5:54:d2:ac:82:6e:55:aa:
        b1:1d:0b:47:51:fb:e4:a9:8b:dd:0b:a8:0e:ca:54:9d:f0:7c:
        55:d3:5d:45:2f:a9:c9:91:b5:dd:17:19:af:9a:a4:f7:28:cd:
        8e:e6:b5:a2:fc:9b:0b:f5:25:33:59:a3:67:29:98:8f:c7:a1:
        4a:7f:66:b4:a4:e8:24:96
-----BEGIN CERTIFICATE-----
MIIFQTCCAymgAwIBAgIUf3bTn2pKv6zn1NV5F3GJTRU1cw0wDQYJKoZIhvcNAQEL
BQAwgYExEjAQBgoJkiaJk/IsZAEZFgJjYTEUMBIGCgmSJomT8ixkARkWBGxhYjUx
GTAXBgNVBAoMEExhYjUgRGV2T3BzIEluYy4xFDASBgNVBAsMC3d3dy5sYWI1LmNh
MSQwIgYDVQQDDBtMYWI1IERldk9wcyBJbmMuIElzc3VpbmcgQ0EwHhcNMjQwMzI4
MjM1NDAwWhcNMzQwMzI4MjM1NDAwWjBxMRIwEAYKCZImiZPyLGQBGRYCY2ExFDAS
BgoJkiaJk/IsZAEZFgRsYWI1MRkwFwYDVQQKDBBMYWI1IERldk9wcyBJbmMuMRQw
EgYDVQQLDAt3d3cubGFiNS5jYTEUMBIGA1UEAwwLd3d3LmxhYjUuY2EwggEiMA0G
CSqGSIb3DQEBAQUAA4IBDwAwggEKAoIBAQCc7TiO/5z/jj7hPnuZ30XPdNeUniPG
gufeMSz/LwcgHvheq8p0pHd3O6IEFBkZwuYTYQ5e4N8vjts0ImaeJ/ZWUSJjgttG
MUODWmtTY2zkrCy/00V27UujLNBrKvBSSt16xYTeHweMeBOYBv0W9FyLd1ncIN+g
WtWgz93BBiQ1PYLQLUuGM3g18FNJou3JoKiwrBB8616hASI9NdGzoQbCT2UgO+hr
TIoy7r46vKEidZlewbfbFzBpvftV+dwJjTWY6ZVtHj/cguKdhneGOtkdgBIP0mR2
/eMaasT4n5FHi9D9xTttZDGniRQIcr2kFfnZKUjlR2EY7xH6yIPUIHPXAgMBAAGj
gb8wgbwwDgYDVR0PAQH/BAQDAgWgMAkGA1UdEwQCMAAwMQYDVR0lBCowKAYIKwYB
BQUHAwEGCCsGAQUFBwMCBggrBgEFBQcDAwYIKwYBBQUHAwQwHQYDVR0OBBYEFBt5
MNOHXT/xgO26B0hwShjpFHN/MB8GA1UdIwQYMBaAFKyLr3ZTW8B1LNkc7ptp38QG
TwF3MCwGA1UdEQQlMCOCC3d3dy5sYWI1LmNhhwR/AAABgQ51c2VyQGVtYWlsLmNv
bTANBgkqhkiG9w0BAQsFAAOCAgEAJr9383y4hMunvuKELDNe2kFw1PReVjSCL1WI
PLWAqoknnjS4LTEia4qTlX8nyDXMvmtLBzC8aVQffyOp40vpIBhIVvJKviSHyYe7
QyDdQeOawU0wTfQUEKkvDByIugMeF/hxw/XNZ5oz6DcJOi0Yd8ISyjz4ErtY355n
jODP9djSXoKH5KdNmFg/Z49OBzUT7ytLBUC165DNYce02eHcyTNSpOizpkFAuAkx
N5kpc0WNKucPlU4MFFl1Jvka8mpUZAI5mG/RXHhrOlLrh66+ZVuj+Bu3esKDv9IK
+fD+aAq2yMDk/sQ+yuMH80ENdmlA2+fzSq2Njhrm2J+h4MtvxWGfy9ZHK4JMbvzK
tbwroC8tHOLBbnIY0Wio52/HFnlGmNLABCsH0mMHlPanCW8w9+p+NQ9LgYX2Sq9b
YNCHOcRaPq0mmujt3qWKaWl4358vo2bHPKvv9jvPU05Im1C30NeKwqQYffRRCwGQ
gchs9iIcqMUFPHv+9AgePDjrGWxjMwOTxEPCLMG6vvi8Uo2x4pU5jru0v1NHLCGa
/4e+Na6JEijdKdZr99z1ce2y8X2NGr8HS+lyv61MreVU0qyCblWqsR0LR1H75KmL
3QuoDspUnfB8VdNdRS+pyZG13RcZr5qk9yjNjua1ovybC/UlM1mjZymYj8ehSn9m
tKToJJY=
-----END CERTIFICATE-----
