Certificate:
    Data:
        Version: 3 (0x2)
        Serial Number: 1 (0x1)
        Signature Algorithm: sha256WithRSAEncryption
        Issuer: DC=ca, DC=lab5, O=Lab5 DevOps Inc., OU=www.lab5.ca, CN=RootCA G0 SelfSigned
        Validity
            Not Before: May  1 14:39:52 2022 GMT
            Not After : Apr 30 14:39:52 2032 GMT
        Subject: DC=ca, DC=lab5, O=Lab5 DevOps Inc., OU=www.lab5.ca, CN=RootCA G0 SelfSigned
        Subject Public Key Info:
            Public Key Algorithm: rsaEncryption
                RSA Public-Key: (2048 bit)
                Modulus:
                    00:f6:f7:e0:e9:6f:8e:56:ba:51:7c:cb:06:d8:97:
                    c7:e6:fa:ee:29:5e:62:a7:99:21:b5:52:26:d0:25:
                    4b:15:58:a1:72:50:4b:1a:99:6e:34:6f:1c:89:f3:
                    fd:2b:12:9f:10:bf:37:b8:6d:a5:1f:d6:7a:50:fe:
                    2b:70:9b:1f:ce:26:09:d4:ea:12:04:93:cf:55:c9:
                    cb:2f:3f:5b:40:5e:8d:43:39:60:4c:73:69:a7:31:
                    b7:e0:76:18:fa:6e:03:e8:18:d9:4a:74:81:5c:b1:
                    b4:23:97:be:00:98:8c:2b:75:c3:66:45:a8:cf:3c:
                    c2:96:96:b8:7b:b0:53:aa:64:a1:c7:03:46:19:75:
                    89:65:64:29:75:d9:a6:13:f4:09:81:d1:02:09:ce:
                    3f:1c:ce:c6:a9:11:6c:65:f3:13:50:37:29:8f:c5:
                    77:a6:e7:a7:9f:86:5b:d3:7b:13:3f:0b:d4:e1:1a:
                    5c:4b:e7:3b:24:28:8c:f8:13:50:85:85:44:40:fb:
                    e0:2b:15:dd:6f:d9:c2:56:3e:82:54:8d:99:34:e0:
                    97:f1:53:f3:48:d3:49:33:bf:fd:01:9b:20:2a:cf:
                    7b:b7:66:8a:b5:9e:c1:45:46:4f:12:3a:d8:38:07:
                    3a:e8:1a:d0:6d:52:0d:29:67:f4:5c:19:5c:cd:6d:
                    07:49
                Exponent: 65537 (0x10001)
        X509v3 extensions:
            X509v3 Key Usage: critical
                Certificate Sign, CRL Sign
            X509v3 Basic Constraints: critical
                CA:TRUE
            X509v3 Subject Key Identifier: 
                AF:96:23:86:8D:6A:B5:AC:B2:E6:ED:20:C6:20:78:72:99:15:B1:27
            X509v3 Authority Key Identifier: 
                keyid:AF:96:23:86:8D:6A:B5:AC:B2:E6:ED:20:C6:20:78:72:99:15:B1:27

    Signature Algorithm: sha256WithRSAEncryption
         80:ac:c6:06:5c:79:a1:dd:11:b9:9d:af:56:19:24:66:9f:2b:
         84:62:64:ae:1a:17:4c:c9:1d:28:d5:3c:e2:1d:ed:48:c2:1b:
         04:8b:a6:78:c8:d2:73:5c:63:fb:10:93:f5:98:57:a9:1b:e8:
         2e:49:54:90:9e:73:05:fd:3c:c6:76:42:05:3d:84:d4:aa:ef:
         09:99:6c:73:2b:11:32:2d:f8:7f:02:30:65:ef:19:14:25:9d:
         0f:b0:30:be:ad:30:bb:d6:65:c0:5d:b7:d7:8f:85:f9:f3:3c:
         61:ff:3f:00:22:f3:18:80:01:1c:ed:63:38:0b:8d:d9:8e:5a:
         84:bb:bd:d9:94:c7:2f:5c:fd:3b:b5:55:aa:be:61:c6:71:9f:
         61:cd:2d:b3:54:76:99:b8:a7:77:98:f9:fb:95:32:10:fa:88:
         0e:61:7d:79:d7:f7:e9:d1:7d:97:25:e1:9d:4e:43:da:5f:ef:
         85:dc:9e:70:f0:60:03:e9:25:8a:10:cc:4f:7a:6d:33:ac:34:
         87:ea:f4:b3:6e:8b:08:fa:de:43:ec:83:3e:20:ed:8f:d1:aa:
         9f:70:b0:2f:0c:e7:dc:f7:3f:40:6e:08:4e:b8:db:29:57:f9:
         62:bc:f8:ef:bd:35:29:0c:a4:00:01:b3:d2:ee:e5:12:b9:eb:
         b5:5e:ac:5d
-----BEGIN CERTIFICATE-----
MIID0jCCArqgAwIBAgIBATANBgkqhkiG9w0BAQsFADB6MRIwEAYKCZImiZPyLGQB
GRYCY2ExFDASBgoJkiaJk/IsZAEZFgRsYWI1MRkwFwYDVQQKDBBMYWI1IERldk9w
cyBJbmMuMRQwEgYDVQQLDAt3d3cubGFiNS5jYTEdMBsGA1UEAwwUUm9vdENBIEcw
IFNlbGZTaWduZWQwHhcNMjIwNTAxMTQzOTUyWhcNMzIwNDMwMTQzOTUyWjB6MRIw
EAYKCZImiZPyLGQBGRYCY2ExFDASBgoJkiaJk/IsZAEZFgRsYWI1MRkwFwYDVQQK
DBBMYWI1IERldk9wcyBJbmMuMRQwEgYDVQQLDAt3d3cubGFiNS5jYTEdMBsGA1UE
AwwUUm9vdENBIEcwIFNlbGZTaWduZWQwggEiMA0GCSqGSIb3DQEBAQUAA4IBDwAw
ggEKAoIBAQD29+Dpb45WulF8ywbYl8fm+u4pXmKnmSG1UibQJUsVWKFyUEsamW40
bxyJ8/0rEp8Qvze4baUf1npQ/itwmx/OJgnU6hIEk89VycsvP1tAXo1DOWBMc2mn
Mbfgdhj6bgPoGNlKdIFcsbQjl74AmIwrdcNmRajPPMKWlrh7sFOqZKHHA0YZdYll
ZCl12aYT9AmB0QIJzj8czsapEWxl8xNQNymPxXem56efhlvTexM/C9ThGlxL5zsk
KIz4E1CFhURA++ArFd1v2cJWPoJUjZk04JfxU/NI00kzv/0BmyAqz3u3Zoq1nsFF
Rk8SOtg4BzroGtBtUg0pZ/RcGVzNbQdJAgMBAAGjYzBhMA4GA1UdDwEB/wQEAwIB
BjAPBgNVHRMBAf8EBTADAQH/MB0GA1UdDgQWBBSvliOGjWq1rLLm7SDGIHhymRWx
JzAfBgNVHSMEGDAWgBSvliOGjWq1rLLm7SDGIHhymRWxJzANBgkqhkiG9w0BAQsF
AAOCAQEAgKzGBlx5od0RuZ2vVhkkZp8rhGJkrhoXTMkdKNU84h3tSMIbBIumeMjS
c1xj+xCT9ZhXqRvoLklUkJ5zBf08xnZCBT2E1KrvCZlscysRMi34fwIwZe8ZFCWd
D7Awvq0wu9ZlwF2314+F+fM8Yf8/ACLzGIABHO1jOAuN2Y5ahLu92ZTHL1z9O7VV
qr5hxnGfYc0ts1R2mbind5j5+5UyEPqIDmF9edf36dF9lyXhnU5D2l/vhdyecPBg
A+klihDMT3ptM6w0h+r0s26LCPreQ+yDPiDtj9Gqn3CwLwzn3Pc/QG4ITrjbKVf5
Yrz47701KQykAAGz0u7lErnrtV6sXQ==
-----END CERTIFICATE-----
