Certificate:
    Data:
        Version: 3 (0x2)
        Serial Number: 1 (0x1)
        Signature Algorithm: sha1WithRSAEncryption
        Issuer: DC=ca, DC=lab5, O=Lab5 DevOps Inc., OU=DevOps, CN=RootCA SelfSigned https://lab5.ca
        Validity
            Not Before: Apr 28 19:35:37 2022 GMT
            Not After : Apr 27 19:35:37 2032 GMT
        Subject: DC=ca, DC=lab5, O=Lab5 DevOps Inc., OU=DevOps, CN=RootCA SelfSigned https://lab5.ca
        Subject Public Key Info:
            Public Key Algorithm: rsaEncryption
                RSA Public-Key: (2048 bit)
                Modulus:
                    00:d2:a3:7e:d5:97:5a:c4:60:d8:a8:82:03:f4:da:
                    e4:bc:4b:77:73:39:8f:e2:2b:1b:33:56:c7:52:d7:
                    6e:01:93:d4:06:18:1c:0f:5e:86:0e:fd:84:82:59:
                    fc:33:1f:7e:30:28:c2:80:4b:ad:5e:87:f3:6c:d4:
                    7f:6c:45:52:4f:12:98:fc:db:3b:e1:be:a6:d1:22:
                    f5:4a:81:cb:67:10:e4:1e:2e:18:72:a7:04:e7:fe:
                    49:ba:6d:f6:3d:f2:84:a0:7f:e3:e6:9a:7a:a9:6a:
                    78:79:36:9f:8d:48:e0:2b:52:bf:46:44:57:c5:c3:
                    06:ba:b0:70:a4:1a:51:21:41:9e:15:e0:70:55:3b:
                    7a:b5:d3:f2:ae:b6:df:68:0b:eb:56:a7:99:02:fa:
                    20:00:79:b3:d3:ce:80:b2:c2:d2:45:38:45:4b:0c:
                    04:2d:2a:ff:81:43:9e:d4:40:f0:71:85:fb:10:0c:
                    04:15:3f:49:4b:c0:1f:25:d6:ec:1c:5f:9c:ac:49:
                    2e:c3:15:c6:1f:b6:9c:1a:82:78:bb:65:af:49:0e:
                    cd:d7:d6:3a:62:0c:af:78:60:ed:e2:92:08:d3:22:
                    c8:52:c7:d2:07:09:9b:58:30:dc:06:57:ab:98:49:
                    84:2b:2c:6f:aa:81:dc:f5:27:cc:59:8c:93:75:57:
                    50:6d
                Exponent: 65537 (0x10001)
        X509v3 extensions:
            X509v3 Key Usage: critical
                Certificate Sign, CRL Sign
            X509v3 Basic Constraints: critical
                CA:TRUE
            X509v3 Subject Key Identifier: 
                98:71:94:F5:78:E0:86:94:42:74:A6:DD:BA:0F:E4:AB:14:C5:75:D3
            X509v3 Authority Key Identifier: 
                keyid:98:71:94:F5:78:E0:86:94:42:74:A6:DD:BA:0F:E4:AB:14:C5:75:D3

    Signature Algorithm: sha1WithRSAEncryption
         05:1b:01:f6:6b:14:c5:c1:2a:a9:3e:05:6e:35:f5:68:4c:e3:
         21:f3:99:0f:8a:a4:18:11:a2:7b:99:d8:fc:e3:4d:16:91:e2:
         ab:22:fa:27:7c:8d:a0:ef:86:6d:d7:04:53:09:b3:7d:6e:f6:
         9f:4f:23:f2:16:0d:e7:54:b8:1f:d7:de:f2:f2:66:77:44:e1:
         7e:c9:4d:d4:72:a4:a4:ed:c4:fd:4f:09:59:74:24:f6:9e:78:
         5d:9a:b5:33:9e:61:7e:41:6b:7c:bf:06:24:85:72:9d:0e:75:
         4e:15:46:a5:11:45:da:56:8c:61:c7:88:52:3e:2c:af:02:64:
         36:09:22:a8:c7:fc:19:f7:9c:b9:4b:79:f7:53:5c:3a:55:67:
         4c:26:33:1d:f6:56:01:1f:f9:b8:e3:50:a1:c0:d7:70:f3:29:
         6f:db:5d:38:08:24:b9:a6:70:f0:cf:5d:0f:ad:8d:cf:90:38:
         4a:22:72:ba:bb:c3:be:42:98:75:4e:d0:1b:de:99:17:96:44:
         61:b6:ce:b4:30:b7:6a:b0:11:b0:2a:3f:d2:4b:55:29:31:d4:
         e5:8b:0b:65:2f:07:1e:72:71:e7:1a:82:0b:52:54:30:ce:45:
         eb:24:45:d2:52:37:19:4d:4e:e6:28:57:17:7d:ba:ef:8b:68:
         54:22:d3:26
-----BEGIN CERTIFICATE-----
MIID5DCCAsygAwIBAgIBATANBgkqhkiG9w0BAQUFADCBgjESMBAGCgmSJomT8ixk
ARkWAmNhMRQwEgYKCZImiZPyLGQBGRYEbGFiNTEZMBcGA1UECgwQTGFiNSBEZXZP
cHMgSW5jLjEPMA0GA1UECwwGRGV2T3BzMSowKAYDVQQDDCFSb290Q0EgU2VsZlNp
Z25lZCBodHRwczovL2xhYjUuY2EwHhcNMjIwNDI4MTkzNTM3WhcNMzIwNDI3MTkz
NTM3WjCBgjESMBAGCgmSJomT8ixkARkWAmNhMRQwEgYKCZImiZPyLGQBGRYEbGFi
NTEZMBcGA1UECgwQTGFiNSBEZXZPcHMgSW5jLjEPMA0GA1UECwwGRGV2T3BzMSow
KAYDVQQDDCFSb290Q0EgU2VsZlNpZ25lZCBodHRwczovL2xhYjUuY2EwggEiMA0G
CSqGSIb3DQEBAQUAA4IBDwAwggEKAoIBAQDSo37Vl1rEYNioggP02uS8S3dzOY/i
KxszVsdS124Bk9QGGBwPXoYO/YSCWfwzH34wKMKAS61eh/Ns1H9sRVJPEpj82zvh
vqbRIvVKgctnEOQeLhhypwTn/km6bfY98oSgf+Pmmnqpanh5Np+NSOArUr9GRFfF
wwa6sHCkGlEhQZ4V4HBVO3q10/Kutt9oC+tWp5kC+iAAebPTzoCywtJFOEVLDAQt
Kv+BQ57UQPBxhfsQDAQVP0lLwB8l1uwcX5ysSS7DFcYftpwagni7Za9JDs3X1jpi
DK94YO3ikgjTIshSx9IHCZtYMNwGV6uYSYQrLG+qgdz1J8xZjJN1V1BtAgMBAAGj
YzBhMA4GA1UdDwEB/wQEAwIBBjAPBgNVHRMBAf8EBTADAQH/MB0GA1UdDgQWBBSY
cZT1eOCGlEJ0pt26D+SrFMV10zAfBgNVHSMEGDAWgBSYcZT1eOCGlEJ0pt26D+Sr
FMV10zANBgkqhkiG9w0BAQUFAAOCAQEABRsB9msUxcEqqT4FbjX1aEzjIfOZD4qk
GBGie5nY/ONNFpHiqyL6J3yNoO+GbdcEUwmzfW72n08j8hYN51S4H9fe8vJmd0Th
fslN1HKkpO3E/U8JWXQk9p54XZq1M55hfkFrfL8GJIVynQ51ThVGpRFF2laMYceI
Uj4srwJkNgkiqMf8GfecuUt591NcOlVnTCYzHfZWAR/5uONQocDXcPMpb9tdOAgk
uaZw8M9dD62Nz5A4SiJyurvDvkKYdU7QG96ZF5ZEYbbOtDC3arARsCo/0ktVKTHU
5YsLZS8HHnJx5xqCC1JUMM5F6yRF0lI3GU1O5ihXF32674toVCLTJg==
-----END CERTIFICATE-----
