Certificate:
    Data:
        Version: 3 (0x2)
        Serial Number: 1 (0x1)
        Signature Algorithm: sha256WithRSAEncryption
        Issuer: DC=ca, DC=lab5, O=Lab5 DevOps Inc., OU=www.lab5.ca, CN=Lab5 DevOps Inc. Root CA
        Validity
            Not Before: Dec  4 14:58:02 2022 GMT
            Not After : Dec  3 14:58:02 2032 GMT
        Subject: DC=ca, DC=lab5, O=Lab5 DevOps Inc., OU=www.lab5.ca, CN=Lab5 DevOps Inc. Root CA
        Subject Public Key Info:
            Public Key Algorithm: rsaEncryption
                Public-Key: (2048 bit)
                Modulus:
                    00:cd:b9:ee:fa:55:bf:80:e5:09:10:b1:6f:f7:c0:
                    0b:03:c1:ad:93:f3:56:33:ca:85:e2:60:4b:52:9f:
                    6c:da:1b:8a:32:81:9a:0f:92:c7:75:9e:df:c4:69:
                    fc:41:92:04:47:8b:66:05:a3:0f:8a:ab:78:f4:4e:
                    5d:bf:cf:9d:9f:2f:3e:80:5c:33:0a:3c:7b:a6:8a:
                    9f:aa:81:26:67:3d:34:ef:28:ae:33:dd:b8:bd:44:
                    6f:15:26:ea:1e:6c:42:ed:17:e5:ce:1f:65:90:0b:
                    8b:33:3e:60:dd:6b:fb:a4:2a:87:3a:94:2d:5f:f6:
                    85:b4:da:6e:5b:93:d8:d8:dc:6a:21:a7:03:d7:38:
                    4f:f8:45:18:dc:ac:25:03:16:3d:26:d3:1c:72:50:
                    df:ce:e5:e3:80:b2:fa:c6:2a:13:08:13:3d:10:e9:
                    8c:2c:c7:07:a4:bd:58:a3:b3:2c:1f:fe:cf:9e:6f:
                    35:b7:ba:07:bf:e1:1e:0c:c1:35:82:6c:6b:41:ba:
                    ae:9d:34:eb:2d:b1:9a:91:ed:b1:64:1e:8d:89:3e:
                    01:25:f1:50:fc:48:24:48:66:d5:1a:55:37:e4:bf:
                    f9:6e:d8:8c:9f:ec:ae:51:5b:79:c9:05:f8:e1:9c:
                    26:09:45:2d:9e:b7:c1:26:dc:64:70:6a:2d:27:71:
                    d7:f7
                Exponent: 65537 (0x10001)
        X509v3 extensions:
            X509v3 Key Usage: critical
                Certificate Sign, CRL Sign
            X509v3 Basic Constraints: critical
                CA:TRUE
            X509v3 Subject Key Identifier: 
                25:EC:D6:5E:F3:68:47:5B:7C:61:0B:CB:8D:6C:C3:AC:EA:F0:EA:01
            X509v3 Authority Key Identifier: 
                25:EC:D6:5E:F3:68:47:5B:7C:61:0B:CB:8D:6C:C3:AC:EA:F0:EA:01
    Signature Algorithm: sha256WithRSAEncryption
    Signature Value:
        94:91:6c:bf:c6:a8:21:bb:a8:bb:da:a0:f0:54:ad:e9:89:e3:
        f2:e7:1f:65:0c:18:0a:05:4e:fb:4f:04:7b:84:b4:bb:45:86:
        59:93:c2:c6:80:3c:8a:f5:4d:c0:b8:4f:c7:df:c1:2e:96:0f:
        b9:14:fc:4d:82:03:e2:ca:f5:2c:f3:1e:78:2b:cb:d0:51:27:
        01:fb:35:43:65:63:0d:59:a1:6b:30:56:cf:0d:c8:f8:f6:c3:
        48:9e:90:b9:d6:7a:61:68:40:bf:5f:a3:1c:11:9a:cd:a0:85:
        8c:a5:63:e7:fc:27:85:bd:d7:be:3f:fc:50:9f:89:09:77:a0:
        ea:48:0f:ce:b2:10:ea:ba:74:e0:7f:c4:11:37:f0:50:18:56:
        e2:1a:51:7b:dd:29:d5:7a:a9:13:7d:84:c1:6f:11:b2:9b:9a:
        98:2d:90:f4:e0:a0:b7:a1:5d:6c:31:e5:99:04:0d:cc:13:5b:
        a4:fb:4a:a9:0b:b8:39:d6:cf:91:9f:a8:f7:2d:18:c0:65:2a:
        21:69:4c:20:4e:6a:3a:7c:43:6f:01:7b:84:51:60:67:87:6f:
        f1:aa:07:93:dd:bd:ea:a4:05:01:7a:27:b4:a9:2e:91:50:bf:
        8e:85:0b:63:00:cf:5a:fb:ac:42:e3:fa:b9:a2:08:a8:d7:70:
        92:ae:4e:29
-----BEGIN CERTIFICATE-----
MIID2jCCAsKgAwIBAgIBATANBgkqhkiG9w0BAQsFADB+MRIwEAYKCZImiZPyLGQB
GRYCY2ExFDASBgoJkiaJk/IsZAEZFgRsYWI1MRkwFwYDVQQKDBBMYWI1IERldk9w
cyBJbmMuMRQwEgYDVQQLDAt3d3cubGFiNS5jYTEhMB8GA1UEAwwYTGFiNSBEZXZP
cHMgSW5jLiBSb290IENBMB4XDTIyMTIwNDE0NTgwMloXDTMyMTIwMzE0NTgwMlow
fjESMBAGCgmSJomT8ixkARkWAmNhMRQwEgYKCZImiZPyLGQBGRYEbGFiNTEZMBcG
A1UECgwQTGFiNSBEZXZPcHMgSW5jLjEUMBIGA1UECwwLd3d3LmxhYjUuY2ExITAf
BgNVBAMMGExhYjUgRGV2T3BzIEluYy4gUm9vdCBDQTCCASIwDQYJKoZIhvcNAQEB
BQADggEPADCCAQoCggEBAM257vpVv4DlCRCxb/fACwPBrZPzVjPKheJgS1KfbNob
ijKBmg+Sx3We38Rp/EGSBEeLZgWjD4qrePROXb/PnZ8vPoBcMwo8e6aKn6qBJmc9
NO8orjPduL1EbxUm6h5sQu0X5c4fZZALizM+YN1r+6QqhzqULV/2hbTabluT2Njc
aiGnA9c4T/hFGNysJQMWPSbTHHJQ387l44Cy+sYqEwgTPRDpjCzHB6S9WKOzLB/+
z55vNbe6B7/hHgzBNYJsa0G6rp006y2xmpHtsWQejYk+ASXxUPxIJEhm1RpVN+S/
+W7YjJ/srlFbeckF+OGcJglFLZ63wSbcZHBqLSdx1/cCAwEAAaNjMGEwDgYDVR0P
AQH/BAQDAgEGMA8GA1UdEwEB/wQFMAMBAf8wHQYDVR0OBBYEFCXs1l7zaEdbfGEL
y41sw6zq8OoBMB8GA1UdIwQYMBaAFCXs1l7zaEdbfGELy41sw6zq8OoBMA0GCSqG
SIb3DQEBCwUAA4IBAQCUkWy/xqghu6i72qDwVK3piePy5x9lDBgKBU77TwR7hLS7
RYZZk8LGgDyK9U3AuE/H38Eulg+5FPxNggPiyvUs8x54K8vQUScB+zVDZWMNWaFr
MFbPDcj49sNInpC51nphaEC/X6McEZrNoIWMpWPn/CeFvde+P/xQn4kJd6DqSA/O
shDqunTgf8QRN/BQGFbiGlF73SnVeqkTfYTBbxGym5qYLZD04KC3oV1sMeWZBA3M
E1uk+0qpC7g51s+Rn6j3LRjAZSohaUwgTmo6fENvAXuEUWBnh2/xqgeT3b3qpAUB
eie0qS6RUL+OhQtjAM9a+6xC4/q5ogio13CSrk4p
-----END CERTIFICATE-----
