Certificate:
    Data:
        Version: 3 (0x2)
        Serial Number: 1 (0x1)
        Signature Algorithm: sha256WithRSAEncryption
        Issuer: DC=ca, DC=lab5, O=Lab5 DevOps Inc., OU=www.lab5.ca, CN=Root CA G1
        Validity
            Not Before: Sep  2 14:10:00 2022 GMT
            Not After : Sep  1 14:10:00 2032 GMT
        Subject: DC=ca, DC=lab5, O=Lab5 DevOps Inc., OU=www.lab5.ca, CN=Root CA G1
        Subject Public Key Info:
            Public Key Algorithm: rsaEncryption
                RSA Public-Key: (2048 bit)
                Modulus:
                    00:bc:9f:68:bc:16:e7:11:2a:96:ed:99:fd:b3:f7:
                    e8:6c:b4:a2:b5:21:60:7b:21:22:87:b2:53:6d:61:
                    1d:7e:90:e5:36:47:8f:e0:93:2d:66:0b:df:4c:b0:
                    c1:c7:ac:5d:0c:6d:87:13:37:0c:4f:12:d7:b6:0a:
                    11:54:c8:0d:b4:1b:77:5a:2e:af:5d:f2:d0:a9:c3:
                    a8:ef:42:8d:1e:34:47:82:7f:0a:81:51:1b:4b:ba:
                    b4:98:a8:df:18:2f:65:3b:e4:aa:17:e8:d0:53:ea:
                    e6:44:4c:0e:7f:25:cb:02:3a:44:01:ea:61:70:55:
                    64:05:33:b1:ed:3a:43:e2:f0:2b:7d:80:96:96:79:
                    0c:62:43:93:54:b5:b7:40:22:99:d7:a5:73:94:53:
                    21:96:95:41:bd:9b:6b:64:07:18:a5:8a:50:59:80:
                    99:0c:2a:d9:ce:34:03:50:e7:7c:62:7c:7f:e2:ca:
                    13:5b:7c:93:30:03:a1:c7:b4:f4:cf:fb:12:c7:04:
                    a1:78:89:01:98:f0:f6:2e:34:ac:06:55:44:d5:d7:
                    45:e0:86:5d:ed:52:22:f3:c0:c1:25:90:2b:f7:ff:
                    ec:eb:9d:b1:41:6d:b3:b8:42:15:e9:e4:20:b3:66:
                    d5:b7:7a:cc:8e:e5:d2:48:c6:3e:b2:3c:fb:d6:52:
                    7e:0d
                Exponent: 65537 (0x10001)
        X509v3 extensions:
            X509v3 Key Usage: critical
                Certificate Sign, CRL Sign
            X509v3 Basic Constraints: critical
                CA:TRUE
            X509v3 Subject Key Identifier: 
                A9:0A:77:BC:3C:65:89:27:37:38:63:5B:BA:B8:FC:EB:65:47:A2:67
            X509v3 Authority Key Identifier: 
                keyid:A9:0A:77:BC:3C:65:89:27:37:38:63:5B:BA:B8:FC:EB:65:47:A2:67

    Signature Algorithm: sha256WithRSAEncryption
         aa:a0:ed:d2:ef:aa:6a:37:2d:72:e2:84:4a:2c:9e:06:0a:8b:
         b8:31:2a:4e:fa:e7:09:a0:16:b9:fc:0f:4e:d4:dc:fa:8d:06:
         85:c6:c8:13:d5:e4:8e:26:81:7c:75:72:d0:52:fc:49:29:be:
         d3:1b:ef:43:24:88:55:67:3b:f4:2e:ed:5b:1e:25:94:21:18:
         11:67:28:0e:e1:8a:6e:1a:6a:fd:47:4c:21:65:65:a1:c1:89:
         4e:d3:21:a9:9c:a7:c0:84:7b:80:01:3e:27:0b:76:a3:99:4d:
         07:4a:8f:8c:3d:e8:7d:0b:81:18:47:ed:48:11:17:70:ea:4b:
         3a:07:4e:f8:bd:f8:8d:4b:0e:f8:dc:e8:2b:81:3d:fc:d8:76:
         41:dc:cb:56:1d:4f:1a:70:bb:dc:52:5d:bf:58:e1:77:8d:57:
         92:eb:27:bd:4e:26:81:84:07:16:87:a0:4b:05:70:10:ed:4a:
         a2:10:75:60:cd:f5:99:c3:25:24:40:f6:13:d6:99:a4:48:51:
         65:15:41:90:c5:fa:35:82:9c:eb:cb:8d:aa:3d:ef:b8:e3:fc:
         9f:25:93:ca:f9:77:14:f4:04:2c:e5:c6:ae:ad:49:c7:ce:2a:
         53:89:20:73:9a:48:cc:05:44:6d:a9:9d:89:72:58:64:16:b1:
         fc:51:82:95
-----BEGIN CERTIFICATE-----
MIIDvjCCAqagAwIBAgIBATANBgkqhkiG9w0BAQsFADBwMRIwEAYKCZImiZPyLGQB
GRYCY2ExFDASBgoJkiaJk/IsZAEZFgRsYWI1MRkwFwYDVQQKDBBMYWI1IERldk9w
cyBJbmMuMRQwEgYDVQQLDAt3d3cubGFiNS5jYTETMBEGA1UEAwwKUm9vdCBDQSBH
MTAeFw0yMjA5MDIxNDEwMDBaFw0zMjA5MDExNDEwMDBaMHAxEjAQBgoJkiaJk/Is
ZAEZFgJjYTEUMBIGCgmSJomT8ixkARkWBGxhYjUxGTAXBgNVBAoMEExhYjUgRGV2
T3BzIEluYy4xFDASBgNVBAsMC3d3dy5sYWI1LmNhMRMwEQYDVQQDDApSb290IENB
IEcxMIIBIjANBgkqhkiG9w0BAQEFAAOCAQ8AMIIBCgKCAQEAvJ9ovBbnESqW7Zn9
s/fobLSitSFgeyEih7JTbWEdfpDlNkeP4JMtZgvfTLDBx6xdDG2HEzcMTxLXtgoR
VMgNtBt3Wi6vXfLQqcOo70KNHjRHgn8KgVEbS7q0mKjfGC9lO+SqF+jQU+rmREwO
fyXLAjpEAephcFVkBTOx7TpD4vArfYCWlnkMYkOTVLW3QCKZ16VzlFMhlpVBvZtr
ZAcYpYpQWYCZDCrZzjQDUOd8Ynx/4soTW3yTMAOhx7T0z/sSxwSheIkBmPD2LjSs
BlVE1ddF4IZd7VIi88DBJZAr9//s652xQW2zuEIV6eQgs2bVt3rMjuXSSMY+sjz7
1lJ+DQIDAQABo2MwYTAOBgNVHQ8BAf8EBAMCAQYwDwYDVR0TAQH/BAUwAwEB/zAd
BgNVHQ4EFgQUqQp3vDxliSc3OGNburj862VHomcwHwYDVR0jBBgwFoAUqQp3vDxl
iSc3OGNburj862VHomcwDQYJKoZIhvcNAQELBQADggEBAKqg7dLvqmo3LXLihEos
ngYKi7gxKk765wmgFrn8D07U3PqNBoXGyBPV5I4mgXx1ctBS/EkpvtMb70MkiFVn
O/Qu7VseJZQhGBFnKA7him4aav1HTCFlZaHBiU7TIamcp8CEe4ABPicLdqOZTQdK
j4w96H0LgRhH7UgRF3DqSzoHTvi9+I1LDvjc6CuBPfzYdkHcy1YdTxpwu9xSXb9Y
4XeNV5LrJ71OJoGEBxaHoEsFcBDtSqIQdWDN9ZnDJSRA9hPWmaRIUWUVQZDF+jWC
nOvLjao977jj/J8lk8r5dxT0BCzlxq6tScfOKlOJIHOaSMwFRG2pnYlyWGQWsfxR
gpU=
-----END CERTIFICATE-----
