Certificate:
    Data:
        Version: 3 (0x2)
        Serial Number: 1 (0x1)
        Signature Algorithm: sha256WithRSAEncryption
        Issuer: DC=ca, DC=lab5, O=Lab5 DevOps Inc., OU=www.lab5.ca, CN=Root CA G1
        Validity
            Not Before: May 29 13:52:37 2022 GMT
            Not After : May 28 13:52:37 2032 GMT
        Subject: DC=ca, DC=lab5, O=Lab5 DevOps Inc., OU=www.lab5.ca, CN=Root CA G1
        Subject Public Key Info:
            Public Key Algorithm: rsaEncryption
                RSA Public-Key: (2048 bit)
                Modulus:
                    00:a5:b6:41:d0:8a:33:29:65:22:58:00:00:96:04:
                    46:40:e2:3f:71:bb:e8:fa:7f:bc:fa:97:4b:85:66:
                    e3:9f:33:39:e7:34:22:3a:90:63:e4:4c:86:20:74:
                    d5:bb:fb:c6:bb:2c:bf:97:70:20:f5:91:3e:49:3d:
                    52:ff:30:83:72:e1:2b:b1:92:d0:a1:cf:fa:87:c6:
                    c9:38:79:32:b3:9d:37:b7:ff:18:34:b4:94:72:71:
                    47:87:55:b2:a7:9a:8a:7a:8e:60:1c:75:3e:67:44:
                    a5:8d:b0:77:ea:6f:ce:47:33:3e:e3:b3:57:ef:e0:
                    f8:26:1a:dd:23:87:e5:8a:d8:58:8d:78:ba:e6:3c:
                    26:fd:22:83:ea:e9:fe:af:d0:d4:8d:8d:45:77:fb:
                    91:9e:8c:42:1d:1d:8a:07:cc:3d:86:c1:9b:03:71:
                    70:9d:0c:85:f4:d2:42:91:c1:24:be:b7:02:e0:d1:
                    98:56:74:ac:e3:97:77:86:79:27:f6:66:c9:5d:ec:
                    15:51:37:32:50:20:56:84:9b:e7:d3:b5:80:2f:7a:
                    0f:8a:12:70:49:2a:d5:74:ba:73:1a:19:38:82:5c:
                    40:0b:00:1c:b7:44:9e:12:f8:c4:66:d2:ce:cc:3c:
                    22:94:22:85:b6:0b:3e:8f:b5:e2:b6:d3:b6:44:a8:
                    83:15
                Exponent: 65537 (0x10001)
        X509v3 extensions:
            X509v3 Key Usage: critical
                Certificate Sign, CRL Sign
            X509v3 Basic Constraints: critical
                CA:TRUE
            X509v3 Subject Key Identifier: 
                3F:35:67:A3:12:2D:7B:A3:F6:9F:94:4D:26:D7:D4:F2:57:2B:24:58
            X509v3 Authority Key Identifier: 
                keyid:3F:35:67:A3:12:2D:7B:A3:F6:9F:94:4D:26:D7:D4:F2:57:2B:24:58

    Signature Algorithm: sha256WithRSAEncryption
         86:3b:76:da:30:ae:1f:eb:2f:98:c9:12:de:9d:09:7e:5b:55:
         67:29:31:03:d2:2a:39:0c:44:80:10:3b:95:1a:81:9d:6c:b3:
         aa:2c:36:2e:51:5f:22:a2:62:99:30:10:7c:cf:3b:66:b4:bc:
         dc:be:39:6c:b5:23:f8:a8:c9:e8:23:80:9c:a2:36:1d:67:35:
         c3:ef:74:0f:17:ce:bc:d4:cd:a1:d4:be:e0:8b:b8:47:0b:87:
         71:30:b2:96:c0:45:a1:73:9a:27:c7:65:7e:96:80:e1:74:f6:
         21:29:ed:a6:9b:eb:6b:0c:57:e6:90:6b:d7:f8:25:5b:c6:98:
         d3:53:20:c0:e9:35:b6:38:00:53:4b:9c:f6:28:55:20:b6:f3:
         e4:ab:f9:d4:bf:1c:c2:df:0f:5b:50:05:87:80:03:91:6c:6f:
         36:d0:c4:2c:85:89:fc:9d:c5:c4:5c:26:6a:3a:fe:30:28:8f:
         3f:cd:67:df:c4:f2:f1:78:af:e1:76:10:2f:40:49:e6:7c:b7:
         50:8b:b8:60:68:37:23:a4:34:bc:ae:24:29:4c:f2:75:e6:d4:
         da:34:d6:4e:10:c0:4e:c6:a9:a0:31:1a:e7:ab:aa:27:71:c4:
         f5:67:3d:b8:69:ca:b5:cb:ba:83:f1:5c:3e:2d:60:29:87:d2:
         b3:67:d0:6c
-----BEGIN CERTIFICATE-----
MIIDvjCCAqagAwIBAgIBATANBgkqhkiG9w0BAQsFADBwMRIwEAYKCZImiZPyLGQB
GRYCY2ExFDASBgoJkiaJk/IsZAEZFgRsYWI1MRkwFwYDVQQKDBBMYWI1IERldk9w
cyBJbmMuMRQwEgYDVQQLDAt3d3cubGFiNS5jYTETMBEGA1UEAwwKUm9vdCBDQSBH
MTAeFw0yMjA1MjkxMzUyMzdaFw0zMjA1MjgxMzUyMzdaMHAxEjAQBgoJkiaJk/Is
ZAEZFgJjYTEUMBIGCgmSJomT8ixkARkWBGxhYjUxGTAXBgNVBAoMEExhYjUgRGV2
T3BzIEluYy4xFDASBgNVBAsMC3d3dy5sYWI1LmNhMRMwEQYDVQQDDApSb290IENB
IEcxMIIBIjANBgkqhkiG9w0BAQEFAAOCAQ8AMIIBCgKCAQEApbZB0IozKWUiWAAA
lgRGQOI/cbvo+n+8+pdLhWbjnzM55zQiOpBj5EyGIHTVu/vGuyy/l3Ag9ZE+ST1S
/zCDcuErsZLQoc/6h8bJOHkys503t/8YNLSUcnFHh1Wyp5qKeo5gHHU+Z0SljbB3
6m/ORzM+47NX7+D4JhrdI4flithYjXi65jwm/SKD6un+r9DUjY1Fd/uRnoxCHR2K
B8w9hsGbA3FwnQyF9NJCkcEkvrcC4NGYVnSs45d3hnkn9mbJXewVUTcyUCBWhJvn
07WAL3oPihJwSSrVdLpzGhk4glxACwAct0SeEvjEZtLOzDwilCKFtgs+j7XittO2
RKiDFQIDAQABo2MwYTAOBgNVHQ8BAf8EBAMCAQYwDwYDVR0TAQH/BAUwAwEB/zAd
BgNVHQ4EFgQUPzVnoxIte6P2n5RNJtfU8lcrJFgwHwYDVR0jBBgwFoAUPzVnoxIt
e6P2n5RNJtfU8lcrJFgwDQYJKoZIhvcNAQELBQADggEBAIY7dtowrh/rL5jJEt6d
CX5bVWcpMQPSKjkMRIAQO5UagZ1ss6osNi5RXyKiYpkwEHzPO2a0vNy+OWy1I/io
yegjgJyiNh1nNcPvdA8XzrzUzaHUvuCLuEcLh3EwspbARaFzmifHZX6WgOF09iEp
7aab62sMV+aQa9f4JVvGmNNTIMDpNbY4AFNLnPYoVSC28+Sr+dS/HMLfD1tQBYeA
A5FsbzbQxCyFifydxcRcJmo6/jAojz/NZ9/E8vF4r+F2EC9ASeZ8t1CLuGBoNyOk
NLyuJClM8nXm1No01k4QwE7GqaAxGuerqidxxPVnPbhpyrXLuoPxXD4tYCmH0rNn
0Gw=
-----END CERTIFICATE-----
