Certificate:
    Data:
        Version: 3 (0x2)
        Serial Number: 1 (0x1)
        Signature Algorithm: sha256WithRSAEncryption
        Issuer: DC=ca, DC=lab5, O=Lab5 DevOps Inc., OU=www.lab5.ca, CN=Lab5 DevOps Inc. Root CA
        Validity
            Not Before: Dec  5 01:03:40 2022 GMT
            Not After : Dec  4 01:03:40 2032 GMT
        Subject: DC=ca, DC=lab5, O=Lab5 DevOps Inc., OU=www.lab5.ca, CN=Lab5 DevOps Inc. Root CA
        Subject Public Key Info:
            Public Key Algorithm: rsaEncryption
                Public-Key: (2048 bit)
                Modulus:
                    00:da:5d:05:27:15:bd:4e:5f:2e:d6:f2:5f:e3:72:
                    12:6e:81:23:db:4c:9a:c1:70:24:13:2a:5c:de:d4:
                    7b:75:bc:77:d4:7e:7d:6e:ee:6a:36:68:4d:46:0d:
                    09:ae:03:35:ad:f1:40:8a:4a:86:3e:07:a2:a5:d7:
                    90:5d:3e:af:ac:c4:05:47:45:25:22:fe:3a:fb:33:
                    0b:6d:80:12:bf:e8:44:7c:af:be:39:47:91:de:22:
                    58:31:16:e8:37:b6:0e:23:d7:c3:14:70:47:fd:c7:
                    cd:a8:7b:20:78:0c:01:1e:dd:be:91:49:1a:73:89:
                    a9:f2:2d:51:5b:2b:a1:03:f9:aa:7a:c9:e8:35:17:
                    dd:31:e2:2e:bc:43:6e:34:b5:ee:45:b7:b1:66:e0:
                    54:2b:d9:08:8b:e6:a5:95:f4:c4:cd:fd:b1:ff:a4:
                    d1:a1:98:53:37:37:a2:ef:bf:36:a5:9d:e6:76:75:
                    68:08:19:bc:eb:2a:fa:52:2c:03:f6:d2:c0:3a:81:
                    66:39:44:0a:c4:e7:37:1c:27:5e:f1:a4:c6:70:0d:
                    90:4b:45:13:fd:fa:74:ce:0c:2e:2c:c4:d9:56:9f:
                    cd:3f:37:12:76:d5:d1:7f:60:61:f0:75:92:66:94:
                    f8:44:0c:13:82:2a:78:f3:69:08:e0:85:0d:b8:79:
                    b5:35
                Exponent: 65537 (0x10001)
        X509v3 extensions:
            X509v3 Key Usage: critical
                Certificate Sign, CRL Sign
            X509v3 Basic Constraints: critical
                CA:TRUE
            X509v3 Subject Key Identifier: 
                38:A4:66:CF:B4:F0:8E:DF:05:B3:36:F3:88:A8:22:7E:FA:64:E9:12
            X509v3 Authority Key Identifier: 
                38:A4:66:CF:B4:F0:8E:DF:05:B3:36:F3:88:A8:22:7E:FA:64:E9:12
    Signature Algorithm: sha256WithRSAEncryption
    Signature Value:
        9c:a4:5e:4e:e5:fd:f5:94:6d:46:8d:cb:b4:3f:7e:3b:28:01:
        ec:26:cb:ad:61:8b:3e:20:f2:fb:bd:2d:7b:2b:fe:7e:02:73:
        79:6c:97:4c:08:41:29:5b:07:fb:f9:0b:8a:1b:d9:3c:8a:be:
        65:01:21:3e:5d:a1:93:03:39:32:7f:2b:cb:9e:bc:19:6e:13:
        71:24:06:fa:99:bf:01:b7:4c:0e:94:00:43:a6:06:e1:c7:b8:
        ec:e1:25:01:c3:c0:46:f8:9f:c0:50:b4:bf:80:cf:4a:8d:70:
        9c:dc:c6:bd:5b:4e:64:5e:5a:be:70:df:91:b6:16:98:08:0d:
        d2:cd:47:65:11:70:37:d7:a0:4b:69:c3:25:35:1c:01:17:d8:
        47:50:aa:2a:27:63:74:32:01:db:78:f2:78:04:54:ca:13:7b:
        67:ee:cd:fa:3f:20:f4:ba:33:55:22:f6:8a:0d:ab:26:ec:73:
        e8:dd:11:07:74:f6:19:86:5e:89:00:27:e8:31:f1:68:5e:b0:
        12:13:1c:77:f4:37:04:dd:15:db:35:6c:39:7e:8a:4d:e6:d0:
        b4:67:49:e1:9d:bb:49:8c:e7:01:ea:59:f6:67:b4:61:65:d1:
        c0:c6:bb:71:f6:0c:43:6c:32:f6:7d:34:21:57:94:c1:48:35:
        28:35:46:64
-----BEGIN CERTIFICATE-----
MIID2jCCAsKgAwIBAgIBATANBgkqhkiG9w0BAQsFADB+MRIwEAYKCZImiZPyLGQB
GRYCY2ExFDASBgoJkiaJk/IsZAEZFgRsYWI1MRkwFwYDVQQKDBBMYWI1IERldk9w
cyBJbmMuMRQwEgYDVQQLDAt3d3cubGFiNS5jYTEhMB8GA1UEAwwYTGFiNSBEZXZP
cHMgSW5jLiBSb290IENBMB4XDTIyMTIwNTAxMDM0MFoXDTMyMTIwNDAxMDM0MFow
fjESMBAGCgmSJomT8ixkARkWAmNhMRQwEgYKCZImiZPyLGQBGRYEbGFiNTEZMBcG
A1UECgwQTGFiNSBEZXZPcHMgSW5jLjEUMBIGA1UECwwLd3d3LmxhYjUuY2ExITAf
BgNVBAMMGExhYjUgRGV2T3BzIEluYy4gUm9vdCBDQTCCASIwDQYJKoZIhvcNAQEB
BQADggEPADCCAQoCggEBANpdBScVvU5fLtbyX+NyEm6BI9tMmsFwJBMqXN7Ue3W8
d9R+fW7uajZoTUYNCa4DNa3xQIpKhj4HoqXXkF0+r6zEBUdFJSL+OvszC22AEr/o
RHyvvjlHkd4iWDEW6De2DiPXwxRwR/3Hzah7IHgMAR7dvpFJGnOJqfItUVsroQP5
qnrJ6DUX3THiLrxDbjS17kW3sWbgVCvZCIvmpZX0xM39sf+k0aGYUzc3ou+/NqWd
5nZ1aAgZvOsq+lIsA/bSwDqBZjlECsTnNxwnXvGkxnANkEtFE/36dM4MLizE2Vaf
zT83EnbV0X9gYfB1kmaU+EQME4IqePNpCOCFDbh5tTUCAwEAAaNjMGEwDgYDVR0P
AQH/BAQDAgEGMA8GA1UdEwEB/wQFMAMBAf8wHQYDVR0OBBYEFDikZs+08I7fBbM2
84ioIn76ZOkSMB8GA1UdIwQYMBaAFDikZs+08I7fBbM284ioIn76ZOkSMA0GCSqG
SIb3DQEBCwUAA4IBAQCcpF5O5f31lG1Gjcu0P347KAHsJsutYYs+IPL7vS17K/5+
AnN5bJdMCEEpWwf7+QuKG9k8ir5lASE+XaGTAzkyfyvLnrwZbhNxJAb6mb8Bt0wO
lABDpgbhx7js4SUBw8BG+J/AULS/gM9KjXCc3Ma9W05kXlq+cN+RthaYCA3SzUdl
EXA316BLacMlNRwBF9hHUKoqJ2N0MgHbePJ4BFTKE3tn7s36PyD0ujNVIvaKDasm
7HPo3REHdPYZhl6JACfoMfFoXrASExx39DcE3RXbNWw5fopN5tC0Z0nhnbtJjOcB
6ln2Z7RhZdHAxrtx9gxDbDL2fTQhV5TBSDUoNUZk
-----END CERTIFICATE-----
