Certificate:
    Data:
        Version: 3 (0x2)
        Serial Number: 1 (0x1)
        Signature Algorithm: ED25519
        Issuer: DC=ca, DC=lab5, O=Lab5 DevOps Inc., OU=www.lab5.ca, CN=Lab5 DevOps Inc. Root CA
        Validity
            Not Before: Jun 12 10:47:09 2023 GMT
            Not After : Jun 11 10:47:09 2033 GMT
        Subject: DC=ca, DC=lab5, O=Lab5 DevOps Inc., OU=www.lab5.ca, CN=Lab5 DevOps Inc. Root CA
        Subject Public Key Info:
            Public Key Algorithm: ED25519
                ED25519 Public-Key:
                pub:
                    7b:3f:69:18:a2:c2:dc:e0:63:d2:ff:42:fa:20:86:
                    36:9e:2a:5a:20:d4:a8:72:54:88:9c:ae:92:68:bd:
                    a7:61
        X509v3 extensions:
            X509v3 Key Usage: critical
                Certificate Sign, CRL Sign
            X509v3 Basic Constraints: critical
                CA:TRUE
            X509v3 Subject Key Identifier: 
                F5:3A:93:F6:7B:A3:35:9B:68:BD:9C:6C:8F:26:8E:CA:C5:EC:B5:3F
            X509v3 Authority Key Identifier: 
                F5:3A:93:F6:7B:A3:35:9B:68:BD:9C:6C:8F:26:8E:CA:C5:EC:B5:3F
    Signature Algorithm: ED25519
    Signature Value:
        74:ff:26:dd:fd:30:dd:d2:74:ba:99:95:a4:7b:2d:7c:aa:9e:
        e7:15:7f:b8:d2:27:ad:28:b6:b7:e4:78:11:a3:7f:c2:79:cb:
        ca:e1:d3:f9:76:09:d3:a5:37:35:ed:9c:1e:e4:c6:9b:21:dd:
        1f:8a:b2:e9:52:87:38:b1:17:07
-----BEGIN CERTIFICATE-----
MIICDjCCAcCgAwIBAgIBATAFBgMrZXAwfjESMBAGCgmSJomT8ixkARkWAmNhMRQw
EgYKCZImiZPyLGQBGRYEbGFiNTEZMBcGA1UECgwQTGFiNSBEZXZPcHMgSW5jLjEU
MBIGA1UECwwLd3d3LmxhYjUuY2ExITAfBgNVBAMMGExhYjUgRGV2T3BzIEluYy4g
Um9vdCBDQTAeFw0yMzA2MTIxMDQ3MDlaFw0zMzA2MTExMDQ3MDlaMH4xEjAQBgoJ
kiaJk/IsZAEZFgJjYTEUMBIGCgmSJomT8ixkARkWBGxhYjUxGTAXBgNVBAoMEExh
YjUgRGV2T3BzIEluYy4xFDASBgNVBAsMC3d3dy5sYWI1LmNhMSEwHwYDVQQDDBhM
YWI1IERldk9wcyBJbmMuIFJvb3QgQ0EwKjAFBgMrZXADIQB7P2kYosLc4GPS/0L6
IIY2nipaINSoclSInK6SaL2nYaNjMGEwDgYDVR0PAQH/BAQDAgEGMA8GA1UdEwEB
/wQFMAMBAf8wHQYDVR0OBBYEFPU6k/Z7ozWbaL2cbI8mjsrF7LU/MB8GA1UdIwQY
MBaAFPU6k/Z7ozWbaL2cbI8mjsrF7LU/MAUGAytlcANBAHT/Jt39MN3SdLqZlaR7
LXyqnucVf7jSJ60otrfkeBGjf8J5y8rh0/l2CdOlNzXtnB7kxpsh3R+KsulShzix
Fwc=
-----END CERTIFICATE-----
