Certificate:
    Data:
        Version: 3 (0x2)
        Serial Number: 1 (0x1)
        Signature Algorithm: rsassaPss         
         Hash Algorithm: sha256
         Mask Algorithm: mgf1 with sha256
          Salt Length: 0xDE
         Trailer Field: 0xBC (default)
        Issuer: DC=ca, DC=lab5, O=Lab5 DevOps Inc., OU=DevOps, CN=RootCA G0 SelfSigned
        Validity
            Not Before: May  1 11:30:54 2022 GMT
            Not After : Apr 30 11:30:54 2032 GMT
        Subject: DC=ca, DC=lab5, O=Lab5 DevOps Inc., OU=DevOps, CN=RootCA G0 SelfSigned
        Subject Public Key Info:
            Public Key Algorithm: rsassaPss
                RSA-PSS Public-Key: (2048 bit)
                Modulus:
                    00:aa:18:98:33:a6:2a:e1:1e:f8:72:ac:3c:15:72:
                    f0:1e:41:2c:e1:cf:ab:f2:00:d8:af:79:87:8c:09:
                    35:4e:e0:ca:1c:0e:12:b6:39:f0:12:6c:31:97:b3:
                    a7:8e:a4:a1:9d:39:25:67:a5:fb:a4:ff:a3:94:b7:
                    a2:4e:06:fe:94:3b:db:99:32:8c:4f:fb:f3:f0:0b:
                    01:d0:3e:1e:e5:f0:69:78:9d:90:01:8a:42:7c:ef:
                    bc:04:91:69:bf:ca:c6:91:80:34:6d:c5:95:a4:76:
                    cb:fc:64:a9:3d:6f:0e:08:27:ca:3a:03:7c:42:6e:
                    d6:5c:1b:20:0f:ed:bc:93:2a:f1:fd:9f:bd:91:c1:
                    04:c6:ed:2b:82:32:ae:4d:db:63:eb:f0:e2:db:e9:
                    f5:c9:7b:96:ca:3d:a8:99:b0:cf:70:67:04:29:cb:
                    e9:e5:1e:f6:84:4f:5d:9e:9b:ef:2a:e3:86:26:bc:
                    96:28:25:54:84:e6:65:75:ed:b1:84:82:c4:a6:d4:
                    bf:96:a3:0c:40:ec:8b:06:dd:2c:34:8c:c4:65:29:
                    54:1c:c4:18:f1:b5:14:05:6a:de:aa:31:66:f5:ff:
                    22:02:71:35:27:05:25:df:8c:fc:1d:45:09:1f:54:
                    f1:ab:93:a8:f9:c3:f4:1c:f7:31:ee:19:94:c6:cc:
                    b6:a9
                Exponent: 65537 (0x10001)
                No PSS parameter restrictions
        X509v3 extensions:
            X509v3 Key Usage: critical
                Certificate Sign, CRL Sign
            X509v3 Basic Constraints: critical
                CA:TRUE
            X509v3 Subject Key Identifier: 
                69:49:A9:6B:7A:F2:51:AC:ED:E1:64:85:5A:C2:B0:8B:31:29:20:82
            X509v3 Authority Key Identifier: 
                keyid:69:49:A9:6B:7A:F2:51:AC:ED:E1:64:85:5A:C2:B0:8B:31:29:20:82

    Signature Algorithm: rsassaPss         
         Hash Algorithm: sha256
         Mask Algorithm: mgf1 with sha256
          Salt Length: 0xDE
         Trailer Field: 0xBC (default)

         87:48:2b:3c:67:f9:6b:19:62:e9:3a:b1:53:48:3e:c6:45:11:
         78:d5:fa:9e:cf:cf:f6:7d:47:18:48:5c:39:c1:6c:28:54:1f:
         6b:76:46:06:0e:70:5e:b2:fa:98:85:b4:b4:3c:fd:06:ed:cf:
         88:5c:35:29:ee:30:93:18:01:bb:bb:dc:13:43:fd:f6:5e:4a:
         2f:fc:0a:7b:e4:a2:c9:a5:84:e0:4b:69:ac:39:f4:e8:fb:29:
         79:b5:19:06:dd:73:54:57:d4:e1:f6:04:f8:65:71:d9:4c:97:
         1e:95:3b:31:58:e1:12:3d:f5:86:8e:13:1e:24:06:97:86:5d:
         b3:27:52:ab:10:a4:0a:7e:79:8f:ef:36:88:5a:d2:66:56:2b:
         fc:31:82:2a:64:89:8d:eb:f6:91:15:17:b2:11:87:3b:d3:b1:
         d5:1f:15:8c:9b:f0:cf:b7:d3:63:c3:85:9f:2e:ae:ab:f1:a1:
         ea:c2:45:45:25:e0:2a:79:06:70:99:c3:39:25:e0:ca:da:f3:
         6f:9d:6b:23:db:1a:96:71:4a:19:33:e0:0a:42:5c:01:94:df:
         e5:48:42:20:6f:04:7a:2b:c7:f7:ca:4b:7b:3d:85:12:d4:bc:
         85:90:06:3f:90:6e:a4:11:32:6e:22:51:5a:c4:de:30:88:47:
         23:80:00:18
-----BEGIN CERTIFICATE-----
MIIEKDCCAt+gAwIBAgIBATA+BgkqhkiG9w0BAQowMaANMAsGCWCGSAFlAwQCAaEa
MBgGCSqGSIb3DQEBCDALBglghkgBZQMEAgGiBAICAN4wdTESMBAGCgmSJomT8ixk
ARkWAmNhMRQwEgYKCZImiZPyLGQBGRYEbGFiNTEZMBcGA1UECgwQTGFiNSBEZXZP
cHMgSW5jLjEPMA0GA1UECwwGRGV2T3BzMR0wGwYDVQQDDBRSb290Q0EgRzAgU2Vs
ZlNpZ25lZDAeFw0yMjA1MDExMTMwNTRaFw0zMjA0MzAxMTMwNTRaMHUxEjAQBgoJ
kiaJk/IsZAEZFgJjYTEUMBIGCgmSJomT8ixkARkWBGxhYjUxGTAXBgNVBAoMEExh
YjUgRGV2T3BzIEluYy4xDzANBgNVBAsMBkRldk9wczEdMBsGA1UEAwwUUm9vdENB
IEcwIFNlbGZTaWduZWQwggEgMAsGCSqGSIb3DQEBCgOCAQ8AMIIBCgKCAQEAqhiY
M6Yq4R74cqw8FXLwHkEs4c+r8gDYr3mHjAk1TuDKHA4StjnwEmwxl7OnjqShnTkl
Z6X7pP+jlLeiTgb+lDvbmTKMT/vz8AsB0D4e5fBpeJ2QAYpCfO+8BJFpv8rGkYA0
bcWVpHbL/GSpPW8OCCfKOgN8Qm7WXBsgD+28kyrx/Z+9kcEExu0rgjKuTdtj6/Di
2+n1yXuWyj2ombDPcGcEKcvp5R72hE9dnpvvKuOGJryWKCVUhOZlde2xhILEptS/
lqMMQOyLBt0sNIzEZSlUHMQY8bUUBWreqjFm9f8iAnE1JwUl34z8HUUJH1Txq5Oo
+cP0HPcx7hmUxsy2qQIDAQABo2MwYTAOBgNVHQ8BAf8EBAMCAQYwDwYDVR0TAQH/
BAUwAwEB/zAdBgNVHQ4EFgQUaUmpa3ryUazt4WSFWsKwizEpIIIwHwYDVR0jBBgw
FoAUaUmpa3ryUazt4WSFWsKwizEpIIIwPgYJKoZIhvcNAQEKMDGgDTALBglghkgB
ZQMEAgGhGjAYBgkqhkiG9w0BAQgwCwYJYIZIAWUDBAIBogQCAgDeA4IBAQCHSCs8
Z/lrGWLpOrFTSD7GRRF41fqez8/2fUcYSFw5wWwoVB9rdkYGDnBesvqYhbS0PP0G
7c+IXDUp7jCTGAG7u9wTQ/32Xkov/Ap75KLJpYTgS2msOfTo+yl5tRkG3XNUV9Th
9gT4ZXHZTJcelTsxWOESPfWGjhMeJAaXhl2zJ1KrEKQKfnmP7zaIWtJmViv8MYIq
ZImN6/aRFReyEYc707HVHxWMm/DPt9Njw4WfLq6r8aHqwkVFJeAqeQZwmcM5JeDK
2vNvnWsj2xqWcUoZM+AKQlwBlN/lSEIgbwR6K8f3ykt7PYUS1LyFkAY/kG6kETJu
IlFaxN4wiEcjgAAY
-----END CERTIFICATE-----
