Certificate:
    Data:
        Version: 3 (0x2)
        Serial Number: 2 (0x2)
        Signature Algorithm: sha256WithRSAEncryption
        Issuer: DC=ca, DC=lab5, O=Lab5 DevOps Inc., OU=DevOps, CN=RootCA G0 SelfSigned
        Validity
            Not Before: Apr 29 13:53:34 2022 GMT
            Not After : Apr 28 13:53:34 2032 GMT
        Subject: DC=ca, DC=lab5, O=Lab5 DevOps Inc., OU=DevOps, CN=RootCA G1
        Subject Public Key Info:
            Public Key Algorithm: rsaEncryption
                RSA Public-Key: (2048 bit)
                Modulus:
                    00:c3:07:25:ec:39:6a:e5:40:28:c9:e3:52:b7:99:
                    f6:be:cf:51:ed:00:30:44:a6:87:67:64:a3:7b:ec:
                    1f:39:28:f5:9e:e5:40:a9:af:e4:df:32:f9:36:e8:
                    7c:b1:fd:cf:ad:94:6d:f7:34:f0:42:61:a1:b5:cf:
                    48:d2:8e:c7:11:8d:cf:12:62:89:4c:a1:1d:de:a7:
                    53:a3:cd:80:cf:6d:0f:57:06:0e:65:3e:92:03:6f:
                    46:10:b6:cc:f1:0e:83:ea:70:32:7b:ba:36:79:6e:
                    13:6e:bc:bf:aa:3b:d3:b5:1e:8c:75:85:d7:b8:ba:
                    d0:c6:b8:5d:ee:dd:d7:67:70:5a:24:69:a4:0d:24:
                    ca:e3:88:03:00:e6:86:f6:80:f2:bc:d4:fb:03:36:
                    8c:05:20:9f:58:3d:b6:da:a4:39:7c:91:a7:9c:8c:
                    37:80:61:fb:f7:bf:32:e4:71:be:e1:a7:50:ea:f6:
                    49:c8:71:5a:a7:42:18:03:4c:06:53:d4:e6:cc:6e:
                    4f:de:27:8e:20:8b:d0:b2:74:93:49:fd:02:50:27:
                    e0:b3:b2:cb:c3:df:89:66:9e:62:c5:ba:8b:b1:03:
                    a4:f9:c9:9c:fd:a3:78:70:aa:d3:80:44:16:d4:9a:
                    11:ce:b9:41:d0:ff:7e:4c:d9:0a:02:41:67:b3:ba:
                    da:c3
                Exponent: 65537 (0x10001)
        X509v3 extensions:
            X509v3 Key Usage: critical
                Certificate Sign, CRL Sign
            X509v3 Basic Constraints: critical
                CA:TRUE, pathlen:0
            X509v3 Subject Key Identifier: 
                FD:35:57:E4:42:E2:C1:BD:CF:56:5A:E1:61:50:55:87:68:7C:92:0E
            X509v3 Authority Key Identifier: 
                keyid:06:5E:4C:46:FF:39:F6:93:1D:6F:62:B7:91:BF:C7:F5:2A:B4:5F:4A

    Signature Algorithm: sha256WithRSAEncryption
         65:3c:33:19:f5:c3:58:fa:d8:8a:5d:70:d9:1d:fa:42:a3:3d:
         f0:f1:46:b9:1a:99:89:26:a9:54:ba:90:9b:fe:b1:af:c4:99:
         9d:0e:d0:05:b9:74:7a:69:20:ad:0a:fd:30:f6:8f:df:36:9d:
         cc:b5:e7:cb:df:bd:94:10:10:e5:a2:f0:76:cc:8e:73:22:12:
         eb:76:3f:74:b5:05:ac:5b:d7:a3:65:b7:5b:30:b0:10:57:d4:
         8d:fc:e9:22:3e:88:f9:c2:4e:13:44:74:b2:49:f2:76:5b:49:
         2f:03:f7:c0:c2:e5:f3:67:1f:2c:53:b3:e7:98:a8:7d:96:fa:
         f0:77:35:49:49:db:5a:1c:0b:11:71:a4:a8:a4:de:f0:ce:f6:
         44:76:95:14:68:b3:10:4e:4e:d8:8c:04:4a:72:4d:99:dc:c8:
         08:02:9a:ec:f4:56:aa:32:f7:c5:8e:3c:91:e1:dd:af:bb:ae:
         0a:15:57:aa:28:95:5a:e9:d1:d3:c7:a9:bb:65:32:42:33:27:
         77:72:f2:d0:2e:00:ee:a4:c0:62:21:69:f7:6e:b6:94:7f:bd:
         89:b8:29:2c:96:a3:55:41:dc:73:2c:f6:47:14:f1:82:4e:d2:
         80:52:da:1e:f0:aa:b7:e8:5d:ad:18:53:58:16:06:5f:6e:f8:
         25:b8:e3:35
-----BEGIN CERTIFICATE-----
MIIDwDCCAqigAwIBAgIBAjANBgkqhkiG9w0BAQsFADB1MRIwEAYKCZImiZPyLGQB
GRYCY2ExFDASBgoJkiaJk/IsZAEZFgRsYWI1MRkwFwYDVQQKDBBMYWI1IERldk9w
cyBJbmMuMQ8wDQYDVQQLDAZEZXZPcHMxHTAbBgNVBAMMFFJvb3RDQSBHMCBTZWxm
U2lnbmVkMB4XDTIyMDQyOTEzNTMzNFoXDTMyMDQyODEzNTMzNFowajESMBAGCgmS
JomT8ixkARkWAmNhMRQwEgYKCZImiZPyLGQBGRYEbGFiNTEZMBcGA1UECgwQTGFi
NSBEZXZPcHMgSW5jLjEPMA0GA1UECwwGRGV2T3BzMRIwEAYDVQQDDAlSb290Q0Eg
RzEwggEiMA0GCSqGSIb3DQEBAQUAA4IBDwAwggEKAoIBAQDDByXsOWrlQCjJ41K3
mfa+z1HtADBEpodnZKN77B85KPWe5UCpr+TfMvk26Hyx/c+tlG33NPBCYaG1z0jS
jscRjc8SYolMoR3ep1OjzYDPbQ9XBg5lPpIDb0YQtszxDoPqcDJ7ujZ5bhNuvL+q
O9O1Hox1hde4utDGuF3u3ddncFokaaQNJMrjiAMA5ob2gPK81PsDNowFIJ9YPbba
pDl8kaecjDeAYfv3vzLkcb7hp1Dq9knIcVqnQhgDTAZT1ObMbk/eJ44gi9CydJNJ
/QJQJ+CzssvD34lmnmLFuouxA6T5yZz9o3hwqtOARBbUmhHOuUHQ/35M2QoCQWez
utrDAgMBAAGjZjBkMA4GA1UdDwEB/wQEAwIBBjASBgNVHRMBAf8ECDAGAQH/AgEA
MB0GA1UdDgQWBBT9NVfkQuLBvc9WWuFhUFWHaHySDjAfBgNVHSMEGDAWgBQGXkxG
/zn2kx1vYreRv8f1KrRfSjANBgkqhkiG9w0BAQsFAAOCAQEAZTwzGfXDWPrYil1w
2R36QqM98PFGuRqZiSapVLqQm/6xr8SZnQ7QBbl0emkgrQr9MPaP3zadzLXny9+9
lBAQ5aLwdsyOcyIS63Y/dLUFrFvXo2W3WzCwEFfUjfzpIj6I+cJOE0R0sknydltJ
LwP3wMLl82cfLFOz55iofZb68Hc1SUnbWhwLEXGkqKTe8M72RHaVFGizEE5O2IwE
SnJNmdzICAKa7PRWqjL3xY48keHdr7uuChVXqiiVWunR08epu2UyQjMnd3Ly0C4A
7qTAYiFp9262lH+9ibgpLJajVUHccyz2RxTxgk7SgFLaHvCqt+hdrRhTWBYGX274
JbjjNQ==
-----END CERTIFICATE-----
