Certificate:
    Data:
        Version: 3 (0x2)
        Serial Number: 2 (0x2)
        Signature Algorithm: sha256WithRSAEncryption
        Issuer: DC=ca, DC=lab5, O=Lab5 DevOps Inc., OU=www.lab5.ca, CN=Lab5 DevOps Inc. Root CA
        Validity
            Not Before: Dec  5 15:23:00 2022 GMT
            Not After : Dec  4 15:23:00 2032 GMT
        Subject: DC=ca, DC=lab5, O=Lab5 DevOps Inc., OU=www.lab5.ca, CN=Lab5 DevOps Inc. Issuing CA
        Subject Public Key Info:
            Public Key Algorithm: rsaEncryption
                Public-Key: (2048 bit)
                Modulus:
                    00:a4:46:1f:d9:e6:c8:d6:29:72:77:aa:0a:2c:20:
                    12:df:a5:da:7e:df:a9:1b:c9:77:25:1d:07:91:09:
                    33:69:da:ff:ae:d6:9e:41:81:f7:f1:53:e2:ea:89:
                    a0:06:66:67:ec:4a:9a:bd:3e:49:0d:43:08:8d:b8:
                    81:01:6b:ca:bd:a6:39:57:dc:e9:b9:2c:59:51:79:
                    48:ee:10:46:8b:40:df:1c:45:42:1d:21:a9:33:b7:
                    9e:7a:e5:4a:cb:bc:83:49:c6:d6:27:f3:ab:7e:b5:
                    43:44:d1:14:22:ac:35:b3:41:fe:31:ba:db:1d:c4:
                    2b:23:96:66:94:a8:6c:be:1e:78:fd:b4:8a:f4:81:
                    76:28:e6:6e:9b:9f:bf:f0:58:c1:49:ee:e0:6d:ea:
                    57:79:07:eb:19:d5:3c:34:d3:58:39:4b:96:9a:27:
                    a3:34:0f:06:8f:e2:52:a1:4b:ed:b9:13:53:ee:07:
                    90:b8:31:78:17:bd:df:e6:9e:2d:08:9b:42:80:ec:
                    54:a9:d9:5a:7e:97:c4:31:b6:48:64:75:4b:02:e9:
                    77:df:3c:57:48:1e:b7:34:6d:dd:a5:4e:97:af:cd:
                    0a:c6:83:54:cc:4a:60:34:a7:58:13:3a:4b:dd:c1:
                    64:db:21:60:55:12:2f:9f:cb:7a:28:1e:e6:03:74:
                    8b:31
                Exponent: 65537 (0x10001)
        X509v3 extensions:
            X509v3 Key Usage: critical
                Certificate Sign, CRL Sign
            X509v3 Basic Constraints: critical
                CA:TRUE, pathlen:0
            X509v3 Subject Key Identifier: 
                A3:C8:E8:A2:31:60:6D:24:8B:DD:5E:2C:0B:2B:69:12:3C:83:70:50
            X509v3 Authority Key Identifier: 
                A0:8F:B1:EF:AC:D6:FA:8D:15:1D:C2:7E:AC:4B:04:1A:7E:D2:B7:1A
    Signature Algorithm: sha256WithRSAEncryption
    Signature Value:
        39:13:6c:4c:7c:09:d2:27:28:47:27:23:04:f9:11:93:c0:97:
        33:12:81:75:64:99:a5:6c:eb:26:8b:4c:dd:13:82:a0:29:1b:
        46:91:31:14:39:7f:32:e4:03:b4:4d:4d:70:f1:b6:22:2f:68:
        96:85:c2:9c:ac:a9:e4:70:4e:34:df:76:5c:0b:63:43:05:74:
        0d:95:1a:3e:5d:33:ad:4a:a9:67:a9:73:98:0b:13:20:5e:26:
        7e:c4:df:68:fb:6c:58:f0:f4:cc:71:29:99:45:66:38:f3:a7:
        3a:2e:bd:ff:bd:a0:82:e3:b5:3c:24:b8:f6:7f:6f:2d:fc:63:
        ec:45:64:b4:bd:d5:7d:59:67:36:a6:74:b9:1d:09:73:a8:f9:
        bf:ee:73:66:21:17:d3:a9:51:93:cb:a2:5b:95:0b:dd:30:82:
        fe:9f:d3:3b:d6:e2:4b:ed:66:83:d5:cf:d5:7e:8f:0a:9a:c4:
        99:46:3a:40:d0:05:6a:6d:e3:7a:14:99:ce:a7:c3:2b:37:ab:
        fd:ae:b6:e4:2c:53:63:ec:52:05:19:3b:a9:33:0e:57:ae:68:
        92:22:d6:ac:0e:c3:c6:66:76:eb:c7:ab:95:97:1d:1b:a1:67:
        86:dd:87:74:e3:cc:a1:4d:17:36:41:66:f1:c3:4f:82:19:8d:
        aa:8a:30:f9
-----BEGIN CERTIFICATE-----
MIID4TCCAsmgAwIBAgIBAjANBgkqhkiG9w0BAQsFADB+MRIwEAYKCZImiZPyLGQB
GRYCY2ExFDASBgoJkiaJk/IsZAEZFgRsYWI1MRkwFwYDVQQKDBBMYWI1IERldk9w
cyBJbmMuMRQwEgYDVQQLDAt3d3cubGFiNS5jYTEhMB8GA1UEAwwYTGFiNSBEZXZP
cHMgSW5jLiBSb290IENBMB4XDTIyMTIwNTE1MjMwMFoXDTMyMTIwNDE1MjMwMFow
gYExEjAQBgoJkiaJk/IsZAEZFgJjYTEUMBIGCgmSJomT8ixkARkWBGxhYjUxGTAX
BgNVBAoMEExhYjUgRGV2T3BzIEluYy4xFDASBgNVBAsMC3d3dy5sYWI1LmNhMSQw
IgYDVQQDDBtMYWI1IERldk9wcyBJbmMuIElzc3VpbmcgQ0EwggEiMA0GCSqGSIb3
DQEBAQUAA4IBDwAwggEKAoIBAQCkRh/Z5sjWKXJ3qgosIBLfpdp+36kbyXclHQeR
CTNp2v+u1p5BgffxU+LqiaAGZmfsSpq9PkkNQwiNuIEBa8q9pjlX3Om5LFlReUju
EEaLQN8cRUIdIakzt5565UrLvINJxtYn86t+tUNE0RQirDWzQf4xutsdxCsjlmaU
qGy+Hnj9tIr0gXYo5m6bn7/wWMFJ7uBt6ld5B+sZ1Tw001g5S5aaJ6M0DwaP4lKh
S+25E1PuB5C4MXgXvd/mni0Im0KA7FSp2Vp+l8QxtkhkdUsC6XffPFdIHrc0bd2l
TpevzQrGg1TMSmA0p1gTOkvdwWTbIWBVEi+fy3ooHuYDdIsxAgMBAAGjZjBkMA4G
A1UdDwEB/wQEAwIBBjASBgNVHRMBAf8ECDAGAQH/AgEAMB0GA1UdDgQWBBSjyOii
MWBtJIvdXiwLK2kSPINwUDAfBgNVHSMEGDAWgBSgj7HvrNb6jRUdwn6sSwQaftK3
GjANBgkqhkiG9w0BAQsFAAOCAQEAORNsTHwJ0icoRycjBPkRk8CXMxKBdWSZpWzr
JotM3ROCoCkbRpExFDl/MuQDtE1NcPG2Ii9oloXCnKyp5HBONN92XAtjQwV0DZUa
Pl0zrUqpZ6lzmAsTIF4mfsTfaPtsWPD0zHEpmUVmOPOnOi69/72gguO1PCS49n9v
Lfxj7EVktL3VfVlnNqZ0uR0Jc6j5v+5zZiEX06lRk8uiW5UL3TCC/p/TO9biS+1m
g9XP1X6PCprEmUY6QNAFam3jehSZzqfDKzer/a625CxTY+xSBRk7qTMOV65okiLW
rA7DxmZ268erlZcdG6Fnht2HdOPMoU0XNkFm8cNPghmNqoow+Q==
-----END CERTIFICATE-----
