Certificate:
    Data:
        Version: 3 (0x2)
        Serial Number: 2 (0x2)
        Signature Algorithm: sha1WithRSAEncryption
        Issuer: DC=ca, DC=lab5, O=Lab5 DevOps Inc., OU=DevOps, CN=RootCA SelfSigned https://lab5.ca
        Validity
            Not Before: Apr 28 18:22:02 2022 GMT
            Not After : Apr 27 18:22:02 2032 GMT
        Subject: DC=ca, DC=lab5, O=Lab5 DevOps Inc., OU=DevOps, CN=RootCA G1
        Subject Public Key Info:
            Public Key Algorithm: rsaEncryption
                RSA Public-Key: (2048 bit)
                Modulus:
                    00:e5:2c:ca:8f:ee:f6:d0:19:46:d6:df:8f:71:6c:
                    0a:89:1b:fa:32:23:9b:38:20:ef:1a:12:df:bb:60:
                    e5:2f:2f:2d:6a:63:1d:2f:36:0e:83:9b:eb:2c:0a:
                    8a:ed:93:5e:a1:d3:51:cb:83:29:88:e0:5e:94:c0:
                    b9:85:15:87:13:81:f9:a3:0d:70:38:5f:21:e9:49:
                    74:61:cf:5d:9c:fd:1e:64:c5:23:ea:eb:b2:da:39:
                    3e:b4:07:bd:71:e8:0b:a5:7c:ec:66:f2:0e:72:67:
                    55:ad:89:ab:14:59:85:09:28:dd:ec:f0:ff:79:e5:
                    b3:3d:b8:40:66:56:fe:72:47:b3:04:c8:88:26:7a:
                    e8:7f:62:59:bd:64:7a:5e:e9:1a:03:81:20:39:2f:
                    d0:80:e5:39:56:f0:c4:09:7f:c2:99:4a:d3:1d:49:
                    8e:be:69:9d:9f:12:16:fe:40:3e:e2:58:42:2c:21:
                    fd:6f:d1:2e:29:48:75:cf:76:d7:f5:a8:a3:dc:dc:
                    d9:c8:4a:5d:3d:d3:99:bf:cd:01:1f:2e:91:fe:10:
                    a2:2e:3f:72:c6:b4:ec:ed:3e:9f:d3:85:f1:da:cd:
                    a6:df:82:37:75:04:88:e0:fb:aa:8f:d9:f6:47:fb:
                    35:b5:21:3f:5d:a9:8d:eb:94:18:65:eb:11:55:9b:
                    f6:19
                Exponent: 65537 (0x10001)
        X509v3 extensions:
            X509v3 Key Usage: critical
                Certificate Sign, CRL Sign
            X509v3 Basic Constraints: critical
                CA:TRUE, pathlen:0
            X509v3 Subject Key Identifier: 
                E1:F5:7B:EC:BE:93:10:F9:C7:89:8A:45:E7:DA:19:00:9E:47:AE:91
            X509v3 Authority Key Identifier: 
                keyid:7D:B6:B7:E0:AE:36:84:C9:40:E3:38:34:F8:6D:A4:01:1A:87:95:D2

    Signature Algorithm: sha1WithRSAEncryption
         3f:1d:5f:c5:b1:0d:d3:eb:54:69:a6:5a:a9:a8:c0:6a:3d:26:
         d5:fa:5a:59:b4:44:2d:92:19:20:b0:b1:42:56:f5:39:e3:65:
         95:5a:48:3f:83:e1:fe:30:d1:d8:88:61:23:46:a9:27:4d:8a:
         73:78:62:a4:32:a5:85:aa:a8:d8:51:8c:5a:c3:5a:cd:7a:be:
         7f:70:f9:84:cf:34:6b:68:6a:89:ae:a8:3d:a0:60:c7:eb:5a:
         0a:97:71:02:e0:e9:2f:d4:ec:12:d6:4e:b2:71:db:83:40:06:
         55:0d:84:fd:16:da:66:3f:8b:98:d9:10:30:23:f4:2c:65:af:
         5b:f5:f2:0b:e4:91:23:a4:01:b4:40:f4:bd:57:2a:dc:f9:69:
         3d:66:00:fb:5a:b7:82:4c:c2:f1:1d:75:30:a3:90:69:27:62:
         07:59:33:92:a9:10:01:19:ec:ab:9a:1a:c1:8a:0e:fd:2a:a7:
         0f:f2:2c:18:20:93:29:7c:d8:79:48:6b:59:f9:df:d5:15:dd:
         ae:51:09:3e:7d:53:fe:21:3e:04:5c:8b:df:82:bb:cb:1b:90:
         2f:54:5b:0f:9d:fc:0a:a5:c5:fd:b4:70:6b:fe:bf:81:62:3c:
         3d:aa:90:45:d3:8e:78:cb:26:cb:31:cb:54:14:47:d3:eb:ef:
         d3:60:a9:40
-----BEGIN CERTIFICATE-----
MIIDzjCCAragAwIBAgIBAjANBgkqhkiG9w0BAQUFADCBgjESMBAGCgmSJomT8ixk
ARkWAmNhMRQwEgYKCZImiZPyLGQBGRYEbGFiNTEZMBcGA1UECgwQTGFiNSBEZXZP
cHMgSW5jLjEPMA0GA1UECwwGRGV2T3BzMSowKAYDVQQDDCFSb290Q0EgU2VsZlNp
Z25lZCBodHRwczovL2xhYjUuY2EwHhcNMjIwNDI4MTgyMjAyWhcNMzIwNDI3MTgy
MjAyWjBqMRIwEAYKCZImiZPyLGQBGRYCY2ExFDASBgoJkiaJk/IsZAEZFgRsYWI1
MRkwFwYDVQQKDBBMYWI1IERldk9wcyBJbmMuMQ8wDQYDVQQLDAZEZXZPcHMxEjAQ
BgNVBAMMCVJvb3RDQSBHMTCCASIwDQYJKoZIhvcNAQEBBQADggEPADCCAQoCggEB
AOUsyo/u9tAZRtbfj3FsCokb+jIjmzgg7xoS37tg5S8vLWpjHS82DoOb6ywKiu2T
XqHTUcuDKYjgXpTAuYUVhxOB+aMNcDhfIelJdGHPXZz9HmTFI+rrsto5PrQHvXHo
C6V87GbyDnJnVa2JqxRZhQko3ezw/3nlsz24QGZW/nJHswTIiCZ66H9iWb1kel7p
GgOBIDkv0IDlOVbwxAl/wplK0x1Jjr5pnZ8SFv5APuJYQiwh/W/RLilIdc921/Wo
o9zc2chKXT3Tmb/NAR8ukf4Qoi4/csa07O0+n9OF8drNpt+CN3UEiOD7qo/Z9kf7
NbUhP12pjeuUGGXrEVWb9hkCAwEAAaNmMGQwDgYDVR0PAQH/BAQDAgEGMBIGA1Ud
EwEB/wQIMAYBAf8CAQAwHQYDVR0OBBYEFOH1e+y+kxD5x4mKRefaGQCeR66RMB8G
A1UdIwQYMBaAFH22t+CuNoTJQOM4NPhtpAEah5XSMA0GCSqGSIb3DQEBBQUAA4IB
AQA/HV/FsQ3T61RpplqpqMBqPSbV+lpZtEQtkhkgsLFCVvU542WVWkg/g+H+MNHY
iGEjRqknTYpzeGKkMqWFqqjYUYxaw1rNer5/cPmEzzRraGqJrqg9oGDH61oKl3EC
4Okv1OwS1k6ycduDQAZVDYT9FtpmP4uY2RAwI/QsZa9b9fIL5JEjpAG0QPS9Vyrc
+Wk9ZgD7WreCTMLxHXUwo5BpJ2IHWTOSqRABGeyrmhrBig79KqcP8iwYIJMpfNh5
SGtZ+d/VFd2uUQk+fVP+IT4EXIvfgrvLG5AvVFsPnfwKpcX9tHBr/r+BYjw9qpBF
0454yybLMctUFEfT6+/TYKlA
-----END CERTIFICATE-----
