Certificate:
    Data:
        Version: 3 (0x2)
        Serial Number: 2 (0x2)
        Signature Algorithm: rsassaPss         
         Hash Algorithm: sha256
         Mask Algorithm: mgf1 with sha256
          Salt Length: 0xDE
         Trailer Field: 0xBC (default)
        Issuer: DC=ca, DC=lab5, O=Lab5 DevOps Inc., OU=DevOps, CN=RootCA G0 SelfSigned
        Validity
            Not Before: May  1 11:31:02 2022 GMT
            Not After : Apr 30 11:31:02 2032 GMT
        Subject: DC=ca, DC=lab5, O=Lab5 DevOps Inc., OU=DevOps, CN=SigningCA G1
        Subject Public Key Info:
            Public Key Algorithm: rsassaPss
                RSA-PSS Public-Key: (2048 bit)
                Modulus:
                    00:b9:15:2d:e8:9a:99:3f:71:1a:eb:49:94:25:bf:
                    37:07:44:6d:20:74:8e:aa:64:57:3f:b0:fc:00:3e:
                    6a:39:44:bf:95:73:fc:7e:5c:95:ef:03:c5:c7:44:
                    85:0e:b9:39:d1:5c:8b:99:ee:40:ac:59:f7:ba:53:
                    b2:27:06:f3:ed:5f:09:25:15:41:fc:bd:3a:ab:7e:
                    7a:36:22:1b:2a:20:c6:27:6e:a1:40:bc:c8:ec:8d:
                    ab:75:97:1f:4b:eb:6a:cf:68:3e:33:d2:f2:41:9c:
                    37:66:a4:b5:d3:ad:ee:fd:bf:73:dc:0c:fc:1b:0d:
                    e9:d9:b2:63:06:f0:5c:63:4b:68:7c:e7:60:aa:f4:
                    1b:98:91:83:c7:54:c2:e4:45:25:e9:49:84:ed:6f:
                    d4:84:c3:e8:de:ec:5a:fa:c0:d0:aa:e0:2c:a5:d5:
                    a8:fa:c1:07:52:68:5f:82:51:b9:76:ac:51:ec:e4:
                    f5:bb:78:e0:e3:be:be:56:b5:3d:62:85:73:1d:62:
                    09:ac:3a:8b:9e:ca:20:61:96:c3:43:e6:a8:97:55:
                    43:a3:ba:3c:8b:78:ef:e0:9a:d3:ba:48:22:50:3c:
                    9f:c1:bd:ea:74:a2:2d:28:0f:06:4b:9f:e8:a9:dd:
                    52:6e:5b:b3:c7:6c:0c:41:04:55:2f:62:09:c8:e6:
                    ad:1b
                Exponent: 65537 (0x10001)
                No PSS parameter restrictions
        X509v3 extensions:
            X509v3 Key Usage: critical
                Certificate Sign, CRL Sign
            X509v3 Basic Constraints: critical
                CA:TRUE, pathlen:0
            X509v3 Subject Key Identifier: 
                34:34:B5:CD:2B:E6:A6:0F:D5:80:BE:F8:D2:8F:96:79:E3:99:3C:26
            X509v3 Authority Key Identifier: 
                keyid:69:49:A9:6B:7A:F2:51:AC:ED:E1:64:85:5A:C2:B0:8B:31:29:20:82

    Signature Algorithm: rsassaPss         
         Hash Algorithm: sha256
         Mask Algorithm: mgf1 with sha256
          Salt Length: 0xDE
         Trailer Field: 0xBC (default)

         56:f8:e0:e8:7b:d9:e6:29:a5:7c:78:76:d5:ea:88:46:98:c5:
         1c:be:0a:bf:15:25:5e:b9:55:3b:1e:df:4e:7e:c4:59:b2:8a:
         3a:a3:27:83:0b:1d:0b:ab:ad:a1:21:27:43:38:16:f4:74:47:
         d4:7e:d4:cb:09:a5:2a:cf:12:ff:3a:4f:7f:12:86:7a:c3:31:
         12:48:48:2c:e1:1f:c5:58:2b:01:b9:fe:f1:ee:70:13:b3:05:
         e2:24:90:77:08:a1:82:a6:09:a3:48:d3:e5:93:ab:95:e8:08:
         7a:fa:f7:bf:88:4b:fe:e2:90:53:76:fb:e6:1d:79:00:b6:e1:
         3d:f3:90:c8:1f:87:93:3b:3b:02:02:db:65:e9:91:2d:09:4d:
         9d:f6:92:9b:71:eb:a7:ce:fb:b8:83:e0:5e:19:09:f9:16:bf:
         76:36:6c:71:d5:aa:8a:ad:91:78:20:0d:38:96:ae:1b:e5:4d:
         27:24:00:18:ef:dc:5a:13:f0:5c:fc:ec:e1:33:16:b5:7a:33:
         2d:c8:b7:d6:51:d3:6a:62:f5:1a:07:9e:45:61:1f:92:a4:42:
         0c:3b:f5:d7:b3:64:e1:ca:b8:2d:aa:ea:08:78:fa:c1:cc:3e:
         24:af:13:00:c6:fc:fe:64:66:be:ab:37:0e:76:7e:17:39:d5:
         aa:bc:13:ca
-----BEGIN CERTIFICATE-----
MIIEIzCCAtqgAwIBAgIBAjA+BgkqhkiG9w0BAQowMaANMAsGCWCGSAFlAwQCAaEa
MBgGCSqGSIb3DQEBCDALBglghkgBZQMEAgGiBAICAN4wdTESMBAGCgmSJomT8ixk
ARkWAmNhMRQwEgYKCZImiZPyLGQBGRYEbGFiNTEZMBcGA1UECgwQTGFiNSBEZXZP
cHMgSW5jLjEPMA0GA1UECwwGRGV2T3BzMR0wGwYDVQQDDBRSb290Q0EgRzAgU2Vs
ZlNpZ25lZDAeFw0yMjA1MDExMTMxMDJaFw0zMjA0MzAxMTMxMDJaMG0xEjAQBgoJ
kiaJk/IsZAEZFgJjYTEUMBIGCgmSJomT8ixkARkWBGxhYjUxGTAXBgNVBAoMEExh
YjUgRGV2T3BzIEluYy4xDzANBgNVBAsMBkRldk9wczEVMBMGA1UEAwwMU2lnbmlu
Z0NBIEcxMIIBIDALBgkqhkiG9w0BAQoDggEPADCCAQoCggEBALkVLeiamT9xGutJ
lCW/NwdEbSB0jqpkVz+w/AA+ajlEv5Vz/H5cle8DxcdEhQ65OdFci5nuQKxZ97pT
sicG8+1fCSUVQfy9Oqt+ejYiGyogxiduoUC8yOyNq3WXH0vras9oPjPS8kGcN2ak
tdOt7v2/c9wM/BsN6dmyYwbwXGNLaHznYKr0G5iRg8dUwuRFJelJhO1v1ITD6N7s
WvrA0KrgLKXVqPrBB1JoX4JRuXasUezk9bt44OO+vla1PWKFcx1iCaw6i57KIGGW
w0PmqJdVQ6O6PIt47+Ca07pIIlA8n8G96nSiLSgPBkuf6KndUm5bs8dsDEEEVS9i
CcjmrRsCAwEAAaNmMGQwDgYDVR0PAQH/BAQDAgEGMBIGA1UdEwEB/wQIMAYBAf8C
AQAwHQYDVR0OBBYEFDQ0tc0r5qYP1YC++NKPlnnjmTwmMB8GA1UdIwQYMBaAFGlJ
qWt68lGs7eFkhVrCsIsxKSCCMD4GCSqGSIb3DQEBCjAxoA0wCwYJYIZIAWUDBAIB
oRowGAYJKoZIhvcNAQEIMAsGCWCGSAFlAwQCAaIEAgIA3gOCAQEAVvjg6HvZ5iml
fHh21eqIRpjFHL4KvxUlXrlVOx7fTn7EWbKKOqMngwsdC6utoSEnQzgW9HRH1H7U
ywmlKs8S/zpPfxKGesMxEkhILOEfxVgrAbn+8e5wE7MF4iSQdwihgqYJo0jT5ZOr
legIevr3v4hL/uKQU3b75h15ALbhPfOQyB+Hkzs7AgLbZemRLQlNnfaSm3Hrp877
uIPgXhkJ+Ra/djZscdWqiq2ReCANOJauG+VNJyQAGO/cWhPwXPzs4TMWtXozLci3
1lHTamL1GgeeRWEfkqRCDDv117Nk4cq4LarqCHj6wcw+JK8TAMb8/mRmvqs3DnZ+
FznVqrwTyg==
-----END CERTIFICATE-----
