Certificate:
    Data:
        Version: 3 (0x2)
        Serial Number: 2 (0x2)
        Signature Algorithm: sha256WithRSAEncryption
        Issuer: DC=ca, DC=lab5, O=Lab5 DevOps Inc., OU=www.lab5.ca, CN=Lab5 DevOps Inc. Root CA
        Validity
            Not Before: Dec  5 01:03:43 2022 GMT
            Not After : Dec  4 01:03:43 2032 GMT
        Subject: DC=ca, DC=lab5, O=Lab5 DevOps Inc., OU=www.lab5.ca, CN=Lab5 DevOps Inc. Issuing CA
        Subject Public Key Info:
            Public Key Algorithm: rsaEncryption
                Public-Key: (2048 bit)
                Modulus:
                    00:a5:7d:f5:a9:8e:d2:d4:4b:8f:de:ec:12:b3:3f:
                    c9:0a:43:ba:1c:f3:34:f1:61:e7:f6:60:1a:0a:20:
                    4c:b1:4d:1d:0d:89:2a:01:22:db:f7:e7:90:70:b0:
                    08:42:79:eb:9f:19:f5:c2:e1:fc:10:08:54:2e:14:
                    a9:a0:6d:7a:45:21:74:b6:af:6b:fc:9a:4e:33:72:
                    f5:28:a0:c2:66:70:46:7e:02:80:a5:fe:ef:08:80:
                    d5:13:d1:c5:8e:8b:ab:cb:70:ba:cd:ff:af:85:4d:
                    93:77:2b:37:7a:93:d9:a2:86:b4:f8:6c:f7:3f:cb:
                    8b:0b:23:ac:16:d4:61:bc:e4:01:61:d0:99:e0:20:
                    2d:aa:6b:19:bb:60:de:81:cd:84:ee:5d:70:02:cd:
                    54:8e:bf:68:d8:15:ae:23:ff:ed:2b:55:42:59:ce:
                    9b:62:d9:6d:de:08:c1:c6:73:4d:24:55:f9:4a:67:
                    d5:ad:3d:55:c0:76:d9:4a:fc:ad:fb:8e:af:64:c1:
                    59:99:a8:d0:04:cb:08:4d:fd:28:99:f0:10:75:97:
                    fb:07:81:56:1d:d5:35:16:58:9a:2f:03:8a:ae:c4:
                    52:84:0e:fa:2b:7a:ab:4a:2f:d2:8b:30:49:c7:d7:
                    75:6a:50:e2:eb:d3:b5:be:1e:1b:3a:1c:19:b9:b4:
                    9b:b3
                Exponent: 65537 (0x10001)
        X509v3 extensions:
            X509v3 Key Usage: critical
                Certificate Sign, CRL Sign
            X509v3 Basic Constraints: critical
                CA:TRUE, pathlen:0
            X509v3 Subject Key Identifier: 
                89:61:37:79:3F:57:57:EA:FD:27:47:F7:26:19:9E:2A:6B:EB:71:2D
            X509v3 Authority Key Identifier: 
                38:A4:66:CF:B4:F0:8E:DF:05:B3:36:F3:88:A8:22:7E:FA:64:E9:12
    Signature Algorithm: sha256WithRSAEncryption
    Signature Value:
        1c:98:2c:aa:2d:7f:4f:48:9d:16:86:2a:9e:33:10:c9:c4:b8:
        19:65:5a:ab:42:62:47:4a:cf:d8:85:cf:47:3a:01:7e:ca:58:
        dd:2e:4a:65:cc:c6:0a:ca:dc:0e:71:ca:b6:07:2a:a3:d3:b9:
        40:ba:00:27:59:bd:1c:4a:32:02:57:65:65:16:de:1d:89:5f:
        e4:77:f2:77:7d:8a:f3:d2:73:3e:ce:2a:dd:a3:f7:9f:e4:90:
        d3:30:cd:49:40:ac:d5:98:e6:65:7e:35:a8:5c:ae:42:4c:74:
        ee:d7:20:dd:66:cd:24:10:80:8e:8e:a7:62:8a:94:76:4c:c9:
        a8:40:17:a4:01:b7:bd:7e:fd:ba:8e:5b:2e:8d:af:9b:47:cd:
        b8:05:27:40:a3:a3:8a:cf:87:0c:5c:d1:3b:b2:83:2f:92:8f:
        34:91:96:79:c8:33:73:77:29:11:c2:1b:92:4a:ac:ad:51:94:
        db:e1:4d:c1:b6:33:e1:76:3e:59:36:50:be:98:65:0a:b9:4a:
        02:75:51:9d:cd:11:20:e1:83:c6:b8:55:ed:39:1f:f1:9c:de:
        8d:ee:08:de:35:ba:47:5f:07:6e:44:08:d7:ef:e0:86:71:95:
        e0:06:8d:10:11:64:68:99:5b:50:1b:a8:bc:54:18:0c:ac:d5:
        75:3c:48:e4
-----BEGIN CERTIFICATE-----
MIID4TCCAsmgAwIBAgIBAjANBgkqhkiG9w0BAQsFADB+MRIwEAYKCZImiZPyLGQB
GRYCY2ExFDASBgoJkiaJk/IsZAEZFgRsYWI1MRkwFwYDVQQKDBBMYWI1IERldk9w
cyBJbmMuMRQwEgYDVQQLDAt3d3cubGFiNS5jYTEhMB8GA1UEAwwYTGFiNSBEZXZP
cHMgSW5jLiBSb290IENBMB4XDTIyMTIwNTAxMDM0M1oXDTMyMTIwNDAxMDM0M1ow
gYExEjAQBgoJkiaJk/IsZAEZFgJjYTEUMBIGCgmSJomT8ixkARkWBGxhYjUxGTAX
BgNVBAoMEExhYjUgRGV2T3BzIEluYy4xFDASBgNVBAsMC3d3dy5sYWI1LmNhMSQw
IgYDVQQDDBtMYWI1IERldk9wcyBJbmMuIElzc3VpbmcgQ0EwggEiMA0GCSqGSIb3
DQEBAQUAA4IBDwAwggEKAoIBAQClffWpjtLUS4/e7BKzP8kKQ7oc8zTxYef2YBoK
IEyxTR0NiSoBItv355BwsAhCeeufGfXC4fwQCFQuFKmgbXpFIXS2r2v8mk4zcvUo
oMJmcEZ+AoCl/u8IgNUT0cWOi6vLcLrN/6+FTZN3Kzd6k9mihrT4bPc/y4sLI6wW
1GG85AFh0JngIC2qaxm7YN6BzYTuXXACzVSOv2jYFa4j/+0rVUJZzpti2W3eCMHG
c00kVflKZ9WtPVXAdtlK/K37jq9kwVmZqNAEywhN/SiZ8BB1l/sHgVYd1TUWWJov
A4quxFKEDvoreqtKL9KLMEnH13VqUOLr07W+Hhs6HBm5tJuzAgMBAAGjZjBkMA4G
A1UdDwEB/wQEAwIBBjASBgNVHRMBAf8ECDAGAQH/AgEAMB0GA1UdDgQWBBSJYTd5
P1dX6v0nR/cmGZ4qa+txLTAfBgNVHSMEGDAWgBQ4pGbPtPCO3wWzNvOIqCJ++mTp
EjANBgkqhkiG9w0BAQsFAAOCAQEAHJgsqi1/T0idFoYqnjMQycS4GWVaq0JiR0rP
2IXPRzoBfspY3S5KZczGCsrcDnHKtgcqo9O5QLoAJ1m9HEoyAldlZRbeHYlf5Hfy
d32K89JzPs4q3aP3n+SQ0zDNSUCs1ZjmZX41qFyuQkx07tcg3WbNJBCAjo6nYoqU
dkzJqEAXpAG3vX79uo5bLo2vm0fNuAUnQKOjis+HDFzRO7KDL5KPNJGWecgzc3cp
EcIbkkqsrVGU2+FNwbYz4XY+WTZQvphlCrlKAnVRnc0RIOGDxrhV7Tkf8Zzeje4I
3jW6R18HbkQI1+/ghnGV4AaNEBFkaJlbUBuovFQYDKzVdTxI5A==
-----END CERTIFICATE-----
