Certificate:
    Data:
        Version: 3 (0x2)
        Serial Number: 2 (0x2)
        Signature Algorithm: sha256WithRSAEncryption
        Issuer: DC=ca, DC=lab5, O=Lab5 DevOps Inc., OU=DevOps, CN=RootCA G0 SelfSigned
        Validity
            Not Before: May  1 13:23:02 2022 GMT
            Not After : Apr 30 13:23:02 2032 GMT
        Subject: DC=ca, DC=lab5, O=Lab5 DevOps Inc., OU=DevOps, CN=SigningCA G1
        Subject Public Key Info:
            Public Key Algorithm: rsaEncryption
                RSA Public-Key: (2048 bit)
                Modulus:
                    00:a0:96:ae:c3:a6:fa:59:64:5d:2b:cf:10:5d:5a:
                    bb:e6:b4:1b:9a:ae:df:b6:b0:6d:eb:f8:8b:b7:36:
                    af:f8:40:95:de:f5:50:de:76:0a:bf:ba:e6:22:76:
                    72:29:03:21:78:be:bd:a8:5f:95:70:c6:e2:d0:bd:
                    9a:dd:c3:c0:39:ab:95:05:c6:da:43:60:f4:b2:5f:
                    4c:88:7e:55:da:df:01:0c:1b:d1:8e:00:e4:ed:b2:
                    3b:c9:dc:a7:be:9f:c8:91:0e:a2:b0:c3:8b:03:e6:
                    0c:6e:fc:ee:58:09:3d:d4:8b:d1:82:6e:15:59:a8:
                    ae:5c:88:12:b9:b1:58:e6:9c:43:d1:60:f3:68:75:
                    01:89:55:1a:70:6e:22:e4:30:9f:be:05:ac:f0:3f:
                    ef:04:77:d2:fc:95:4b:e3:c2:5f:fb:cf:a3:10:92:
                    cd:01:56:d1:e0:b4:f6:1f:c6:4a:e7:36:52:4c:87:
                    da:fa:31:ed:61:51:be:9c:3a:88:b2:85:50:45:f5:
                    fd:a1:65:04:b2:bc:f5:00:7a:24:66:95:ab:d7:1c:
                    07:61:de:4d:88:e2:aa:28:c9:45:cc:b7:f8:a5:1c:
                    49:0a:87:42:4b:ff:e0:29:0f:e1:ca:1e:f8:18:d1:
                    48:8e:20:ff:a5:c6:45:1b:6e:77:4d:f5:f9:04:16:
                    db:bf
                Exponent: 65537 (0x10001)
        X509v3 extensions:
            X509v3 Key Usage: critical
                Certificate Sign, CRL Sign
            X509v3 Basic Constraints: critical
                CA:TRUE, pathlen:0
            X509v3 Subject Key Identifier: 
                63:6E:08:24:9C:A8:52:87:4A:21:FC:D7:13:4E:B7:FE:E9:B2:AF:9D
            X509v3 Authority Key Identifier: 
                keyid:2A:9B:E5:4D:74:8A:99:50:32:A8:FD:B7:C3:19:53:B2:55:D8:01:9F

    Signature Algorithm: sha256WithRSAEncryption
         b2:c5:d3:66:e8:a6:f5:ae:1e:2d:4b:a0:68:ca:cb:33:f6:dc:
         26:69:d9:48:ab:96:73:44:bf:0f:86:a1:94:f0:57:28:fb:db:
         24:77:fb:db:20:19:9b:51:b0:f2:68:b9:4e:a0:0b:b8:88:41:
         c0:72:03:2f:3c:11:27:dc:48:d6:d0:ce:96:a7:71:b2:1a:b1:
         c7:f6:2c:34:a3:25:3a:4c:f2:4b:58:c1:0b:43:e6:69:ba:e7:
         8d:8a:20:8f:90:ab:39:ec:54:e7:95:e0:93:df:de:35:d6:be:
         9b:c7:c2:50:2c:05:c5:05:00:00:15:88:37:06:ae:dc:e6:f4:
         d8:0f:2d:c2:f3:48:f1:ea:0a:d0:8f:65:88:a6:ae:30:63:55:
         5f:a0:ef:5f:fb:17:1e:59:cc:3f:ee:86:f4:6b:3b:30:fe:7c:
         07:f0:a7:fc:58:4f:2f:9c:36:49:5e:8d:05:68:7e:3f:b3:a9:
         ce:57:23:24:cc:ea:8c:bd:09:2d:d9:d7:93:b9:a0:94:dd:2a:
         e8:2f:82:b3:4c:10:0d:ee:4a:ec:fb:26:c8:22:e6:78:47:52:
         ab:7a:7b:57:dd:97:bd:c6:24:51:05:97:55:be:3a:13:00:41:
         93:7d:ad:53:59:3a:af:93:19:73:45:86:18:46:75:65:bd:1c:
         e8:e1:63:19
-----BEGIN CERTIFICATE-----
MIIDwzCCAqugAwIBAgIBAjANBgkqhkiG9w0BAQsFADB1MRIwEAYKCZImiZPyLGQB
GRYCY2ExFDASBgoJkiaJk/IsZAEZFgRsYWI1MRkwFwYDVQQKDBBMYWI1IERldk9w
cyBJbmMuMQ8wDQYDVQQLDAZEZXZPcHMxHTAbBgNVBAMMFFJvb3RDQSBHMCBTZWxm
U2lnbmVkMB4XDTIyMDUwMTEzMjMwMloXDTMyMDQzMDEzMjMwMlowbTESMBAGCgmS
JomT8ixkARkWAmNhMRQwEgYKCZImiZPyLGQBGRYEbGFiNTEZMBcGA1UECgwQTGFi
NSBEZXZPcHMgSW5jLjEPMA0GA1UECwwGRGV2T3BzMRUwEwYDVQQDDAxTaWduaW5n
Q0EgRzEwggEiMA0GCSqGSIb3DQEBAQUAA4IBDwAwggEKAoIBAQCglq7DpvpZZF0r
zxBdWrvmtBuart+2sG3r+Iu3Nq/4QJXe9VDedgq/uuYidnIpAyF4vr2oX5VwxuLQ
vZrdw8A5q5UFxtpDYPSyX0yIflXa3wEMG9GOAOTtsjvJ3Ke+n8iRDqKww4sD5gxu
/O5YCT3Ui9GCbhVZqK5ciBK5sVjmnEPRYPNodQGJVRpwbiLkMJ++BazwP+8Ed9L8
lUvjwl/7z6MQks0BVtHgtPYfxkrnNlJMh9r6Me1hUb6cOoiyhVBF9f2hZQSyvPUA
eiRmlavXHAdh3k2I4qooyUXMt/ilHEkKh0JL/+ApD+HKHvgY0UiOIP+lxkUbbndN
9fkEFtu/AgMBAAGjZjBkMA4GA1UdDwEB/wQEAwIBBjASBgNVHRMBAf8ECDAGAQH/
AgEAMB0GA1UdDgQWBBRjbggknKhSh0oh/NcTTrf+6bKvnTAfBgNVHSMEGDAWgBQq
m+VNdIqZUDKo/bfDGVOyVdgBnzANBgkqhkiG9w0BAQsFAAOCAQEAssXTZuim9a4e
LUugaMrLM/bcJmnZSKuWc0S/D4ahlPBXKPvbJHf72yAZm1Gw8mi5TqALuIhBwHID
LzwRJ9xI1tDOlqdxshqxx/YsNKMlOkzyS1jBC0PmabrnjYogj5CrOexU55Xgk9/e
Nda+m8fCUCwFxQUAABWINwau3Ob02A8twvNI8eoK0I9liKauMGNVX6DvX/sXHlnM
P+6G9Gs7MP58B/Cn/FhPL5w2SV6NBWh+P7OpzlcjJMzqjL0JLdnXk7mglN0q6C+C
s0wQDe5K7PsmyCLmeEdSq3p7V92XvcYkUQWXVb46EwBBk32tU1k6r5MZc0WGGEZ1
Zb0c6OFjGQ==
-----END CERTIFICATE-----
