Certificate:
    Data:
        Version: 3 (0x2)
        Serial Number: 2 (0x2)
        Signature Algorithm: ED25519
        Issuer: DC=ca, DC=lab5, O=Lab5 DevOps Inc., OU=www.lab5.ca, CN=Lab5 DevOps Inc. Root CA
        Validity
            Not Before: Jun 12 10:47:12 2023 GMT
            Not After : Jun 11 10:47:12 2033 GMT
        Subject: DC=ca, DC=lab5, O=Lab5 DevOps Inc., OU=www.lab5.ca, CN=Lab5 DevOps Inc. Issuing CA
        Subject Public Key Info:
            Public Key Algorithm: ED25519
                ED25519 Public-Key:
                pub:
                    21:cd:ac:33:5a:e8:61:48:7c:06:29:e4:b0:47:2a:
                    47:8f:ec:71:c3:f4:1c:f8:86:ae:52:2c:72:66:3b:
                    3e:15
        X509v3 extensions:
            X509v3 Key Usage: critical
                Certificate Sign, CRL Sign
            X509v3 Basic Constraints: critical
                CA:TRUE, pathlen:0
            X509v3 Subject Key Identifier: 
                F7:64:E3:35:1C:61:DF:BA:E0:F3:19:9A:32:07:D7:38:0C:5D:F0:08
            X509v3 Authority Key Identifier: 
                F5:3A:93:F6:7B:A3:35:9B:68:BD:9C:6C:8F:26:8E:CA:C5:EC:B5:3F
    Signature Algorithm: ED25519
    Signature Value:
        2c:e7:5a:e6:4b:40:5d:06:1d:10:38:23:5f:85:11:2c:8e:80:
        21:51:55:52:d9:56:16:c7:d9:6e:ff:4d:da:f7:c9:fc:53:52:
        eb:c6:dc:1e:dd:ea:9d:b8:66:05:53:13:bd:d8:f9:eb:e7:ef:
        f1:cd:56:aa:65:4f:9b:23:12:0c
-----BEGIN CERTIFICATE-----
MIICFTCCAcegAwIBAgIBAjAFBgMrZXAwfjESMBAGCgmSJomT8ixkARkWAmNhMRQw
EgYKCZImiZPyLGQBGRYEbGFiNTEZMBcGA1UECgwQTGFiNSBEZXZPcHMgSW5jLjEU
MBIGA1UECwwLd3d3LmxhYjUuY2ExITAfBgNVBAMMGExhYjUgRGV2T3BzIEluYy4g
Um9vdCBDQTAeFw0yMzA2MTIxMDQ3MTJaFw0zMzA2MTExMDQ3MTJaMIGBMRIwEAYK
CZImiZPyLGQBGRYCY2ExFDASBgoJkiaJk/IsZAEZFgRsYWI1MRkwFwYDVQQKDBBM
YWI1IERldk9wcyBJbmMuMRQwEgYDVQQLDAt3d3cubGFiNS5jYTEkMCIGA1UEAwwb
TGFiNSBEZXZPcHMgSW5jLiBJc3N1aW5nIENBMCowBQYDK2VwAyEAIc2sM1roYUh8
BinksEcqR4/sccP0HPiGrlIscmY7PhWjZjBkMA4GA1UdDwEB/wQEAwIBBjASBgNV
HRMBAf8ECDAGAQH/AgEAMB0GA1UdDgQWBBT3ZOM1HGHfuuDzGZoyB9c4DF3wCDAf
BgNVHSMEGDAWgBT1OpP2e6M1m2i9nGyPJo7Kxey1PzAFBgMrZXADQQAs51rmS0Bd
Bh0QOCNfhREsjoAhUVVS2VYWx9lu/03a98n8U1Lrxtwe3eqduGYFUxO92Pnr5+/x
zVaqZU+bIxIM
-----END CERTIFICATE-----
