Certificate:
    Data:
        Version: 3 (0x2)
        Serial Number: 2 (0x2)
        Signature Algorithm: ED25519
        Issuer: DC=ca, DC=lab5, O=Lab5 DevOps Inc., OU=www.lab5.ca, CN=Lab5 DevOps Inc. Root CA
        Validity
            Not Before: Jun 12 11:08:33 2023 GMT
            Not After : Jun 11 11:08:33 2033 GMT
        Subject: DC=ca, DC=lab5, O=Lab5 DevOps Inc., OU=www.lab5.ca, CN=Lab5 DevOps Inc. Issuing CA
        Subject Public Key Info:
            Public Key Algorithm: ED25519
                ED25519 Public-Key:
                pub:
                    30:cc:30:7b:c9:9a:aa:4d:16:21:3a:3c:e6:98:41:
                    bd:b9:65:bd:9f:8d:2e:67:10:66:48:e7:f0:7d:b4:
                    45:ad
        X509v3 extensions:
            X509v3 Key Usage: critical
                Certificate Sign, CRL Sign
            X509v3 Basic Constraints: critical
                CA:TRUE, pathlen:0
            X509v3 Subject Key Identifier: 
                B8:3E:5E:77:44:8A:32:D9:2F:10:45:54:4A:5A:77:7A:E2:BE:A1:D2
            X509v3 Authority Key Identifier: 
                95:26:F2:8C:3C:69:27:B3:47:0A:55:6B:92:0B:4F:30:A1:A3:56:F9
    Signature Algorithm: ED25519
    Signature Value:
        c8:08:1e:c5:42:45:0d:99:af:e7:b1:e6:2d:38:36:bd:73:92:
        6e:fe:4b:e0:57:3a:ae:b5:69:6d:c0:78:0f:40:ce:c8:49:88:
        38:ca:9a:d7:b6:64:3b:04:ca:33:f2:95:cc:51:f5:bf:d0:a7:
        ce:43:3a:02:6c:dd:6e:f7:1b:05
-----BEGIN CERTIFICATE-----
MIICFTCCAcegAwIBAgIBAjAFBgMrZXAwfjESMBAGCgmSJomT8ixkARkWAmNhMRQw
EgYKCZImiZPyLGQBGRYEbGFiNTEZMBcGA1UECgwQTGFiNSBEZXZPcHMgSW5jLjEU
MBIGA1UECwwLd3d3LmxhYjUuY2ExITAfBgNVBAMMGExhYjUgRGV2T3BzIEluYy4g
Um9vdCBDQTAeFw0yMzA2MTIxMTA4MzNaFw0zMzA2MTExMTA4MzNaMIGBMRIwEAYK
CZImiZPyLGQBGRYCY2ExFDASBgoJkiaJk/IsZAEZFgRsYWI1MRkwFwYDVQQKDBBM
YWI1IERldk9wcyBJbmMuMRQwEgYDVQQLDAt3d3cubGFiNS5jYTEkMCIGA1UEAwwb
TGFiNSBEZXZPcHMgSW5jLiBJc3N1aW5nIENBMCowBQYDK2VwAyEAMMwwe8maqk0W
ITo85phBvbllvZ+NLmcQZkjn8H20Ra2jZjBkMA4GA1UdDwEB/wQEAwIBBjASBgNV
HRMBAf8ECDAGAQH/AgEAMB0GA1UdDgQWBBS4Pl53RIoy2S8QRVRKWnd64r6h0jAf
BgNVHSMEGDAWgBSVJvKMPGkns0cKVWuSC08woaNW+TAFBgMrZXADQQDICB7FQkUN
ma/nseYtODa9c5Ju/kvgVzqutWltwHgPQM7ISYg4yprXtmQ7BMoz8pXMUfW/0KfO
QzoCbN1u9xsF
-----END CERTIFICATE-----
