Certificate:
    Data:
        Version: 3 (0x2)
        Serial Number: 2 (0x2)
        Signature Algorithm: sha256WithRSAEncryption
        Issuer: DC=ca, DC=lab5, O=Lab5 DevOps Inc., OU=www.lab5.ca, CN=Root CA G1
        Validity
            Not Before: May  8 12:16:46 2022 GMT
            Not After : May  7 12:16:46 2032 GMT
        Subject: DC=ca, DC=lab5, O=Lab5 DevOps Inc., OU=www.lab5.ca, CN=Issuing CA G1
        Subject Public Key Info:
            Public Key Algorithm: rsaEncryption
                RSA Public-Key: (2048 bit)
                Modulus:
                    00:c5:4e:9c:be:7e:bf:5a:77:ce:cd:a8:5a:76:28:
                    6f:c4:19:41:ab:35:11:18:8a:e1:d0:28:f0:d4:50:
                    0a:4f:5c:9b:ac:59:45:7b:65:74:ce:be:b2:e0:c7:
                    20:45:46:a8:e2:db:8a:5a:bd:45:db:77:57:0c:80:
                    98:46:8a:27:d5:63:cc:4e:11:37:1e:df:66:42:8c:
                    e6:9e:31:27:8f:d7:44:1d:63:a2:bc:c3:0e:ba:53:
                    6b:9d:a9:4b:f0:6a:b3:25:6f:f4:c5:de:1f:a2:aa:
                    ec:ae:5d:d0:04:00:47:9c:ca:93:79:6f:fd:19:72:
                    96:cf:d8:29:d0:b4:93:e2:df:a3:3e:96:f7:cf:ac:
                    14:c1:f9:2f:d6:cd:4c:bb:57:a8:ba:7a:ae:4f:7a:
                    fe:c0:16:1a:60:39:e6:7b:62:8c:48:74:82:1b:68:
                    21:93:78:f7:21:ab:2b:5f:6c:83:40:09:f7:bc:53:
                    9d:83:33:4f:3e:40:e3:7b:3b:cc:78:66:77:6c:2b:
                    a0:62:b0:bc:6b:cd:3d:dd:c4:9e:4c:32:cc:7d:9a:
                    29:d3:9c:ef:7f:e4:73:b2:de:cf:b0:ec:f8:5b:50:
                    bf:f6:68:65:b5:04:ec:10:8b:2d:9d:fe:f4:97:f3:
                    7a:ad:a8:c1:c4:d3:af:0a:68:ca:dd:5c:61:ed:1e:
                    84:2f
                Exponent: 65537 (0x10001)
        X509v3 extensions:
            X509v3 Key Usage: critical
                Certificate Sign, CRL Sign
            X509v3 Basic Constraints: critical
                CA:TRUE, pathlen:0
            X509v3 Subject Key Identifier: 
                E4:AD:2E:FB:7A:34:78:C0:E2:EA:0B:91:77:18:CE:78:91:74:1B:E3
            X509v3 Authority Key Identifier: 
                keyid:FF:FB:29:0F:F2:85:D6:B5:69:7C:AB:9A:E5:55:C4:D6:F3:70:63:51

    Signature Algorithm: sha256WithRSAEncryption
         73:51:09:27:e3:58:c4:b0:d9:de:ce:81:8d:87:9a:f2:28:cc:
         21:45:9e:88:0a:fd:c3:77:cc:3f:15:af:fc:78:0e:da:52:0e:
         e9:72:dd:b1:bb:3e:e2:5d:dd:ed:e5:73:e4:14:77:5a:fb:26:
         23:1b:19:0d:f2:8c:71:7f:4d:ff:59:b8:64:1f:56:61:63:c5:
         ed:79:b4:75:9a:59:3b:20:79:78:58:1f:52:49:ed:39:75:8b:
         46:03:8c:1a:a9:f7:e4:ac:e6:ca:bd:1d:0c:c9:b8:58:de:e5:
         b3:a5:7e:5b:22:2e:8e:8c:a1:f9:14:2d:87:a3:64:51:a3:a0:
         b2:59:de:5b:cf:c7:02:30:64:da:e9:6e:5d:c8:f1:33:61:2c:
         8e:c3:40:1f:6e:d4:5f:77:c3:33:7c:6c:b6:fd:be:27:22:3c:
         ec:d2:65:4d:99:b5:0f:d4:a2:cd:09:97:4f:67:cd:ad:1e:c9:
         b3:7b:58:cb:98:83:7b:2d:08:43:ba:f6:32:26:93:e0:01:c6:
         9b:6c:24:90:71:15:fe:61:fa:b6:d5:d9:76:34:1f:4e:05:3c:
         fd:85:dd:8f:80:3d:b1:06:2c:ee:a6:39:42:8d:c7:90:da:b2:
         83:1d:1e:cc:c3:5a:86:e3:08:32:80:b7:33:f2:69:e0:8c:2e:
         ad:43:82:fc
-----BEGIN CERTIFICATE-----
MIIDxDCCAqygAwIBAgIBAjANBgkqhkiG9w0BAQsFADBwMRIwEAYKCZImiZPyLGQB
GRYCY2ExFDASBgoJkiaJk/IsZAEZFgRsYWI1MRkwFwYDVQQKDBBMYWI1IERldk9w
cyBJbmMuMRQwEgYDVQQLDAt3d3cubGFiNS5jYTETMBEGA1UEAwwKUm9vdCBDQSBH
MTAeFw0yMjA1MDgxMjE2NDZaFw0zMjA1MDcxMjE2NDZaMHMxEjAQBgoJkiaJk/Is
ZAEZFgJjYTEUMBIGCgmSJomT8ixkARkWBGxhYjUxGTAXBgNVBAoMEExhYjUgRGV2
T3BzIEluYy4xFDASBgNVBAsMC3d3dy5sYWI1LmNhMRYwFAYDVQQDDA1Jc3N1aW5n
IENBIEcxMIIBIjANBgkqhkiG9w0BAQEFAAOCAQ8AMIIBCgKCAQEAxU6cvn6/WnfO
zahadihvxBlBqzURGIrh0Cjw1FAKT1ybrFlFe2V0zr6y4McgRUao4tuKWr1F23dX
DICYRoon1WPMThE3Ht9mQozmnjEnj9dEHWOivMMOulNrnalL8GqzJW/0xd4foqrs
rl3QBABHnMqTeW/9GXKWz9gp0LST4t+jPpb3z6wUwfkv1s1Mu1eounquT3r+wBYa
YDnme2KMSHSCG2ghk3j3IasrX2yDQAn3vFOdgzNPPkDjezvMeGZ3bCugYrC8a809
3cSeTDLMfZop05zvf+Rzst7PsOz4W1C/9mhltQTsEIstnf70l/N6rajBxNOvCmjK
3Vxh7R6ELwIDAQABo2YwZDAOBgNVHQ8BAf8EBAMCAQYwEgYDVR0TAQH/BAgwBgEB
/wIBADAdBgNVHQ4EFgQU5K0u+3o0eMDi6guRdxjOeJF0G+MwHwYDVR0jBBgwFoAU
//spD/KF1rVpfKua5VXE1vNwY1EwDQYJKoZIhvcNAQELBQADggEBAHNRCSfjWMSw
2d7OgY2HmvIozCFFnogK/cN3zD8Vr/x4DtpSDuly3bG7PuJd3e3lc+QUd1r7JiMb
GQ3yjHF/Tf9ZuGQfVmFjxe15tHWaWTsgeXhYH1JJ7Tl1i0YDjBqp9+Ss5sq9HQzJ
uFje5bOlflsiLo6MofkULYejZFGjoLJZ3lvPxwIwZNrpbl3I8TNhLI7DQB9u1F93
wzN8bLb9viciPOzSZU2ZtQ/Uos0Jl09nza0eybN7WMuYg3stCEO69jImk+ABxpts
JJBxFf5h+rbV2XY0H04FPP2F3Y+APbEGLO6mOUKNx5DasoMdHszDWobjCDKAtzPy
aeCMLq1Dgvw=
-----END CERTIFICATE-----
