Certificate:
    Data:
        Version: 3 (0x2)
        Serial Number: 2 (0x2)
        Signature Algorithm: rsassaPss         
         Hash Algorithm: sha256
         Mask Algorithm: mgf1 with sha256
          Salt Length: 0xDE
         Trailer Field: 0xBC (default)
        Issuer: DC=ca, DC=lab5, O=Lab5 DevOps Inc., OU=DevOps, CN=RootCA G0 SelfSigned
        Validity
            Not Before: Apr 29 14:33:53 2022 GMT
            Not After : Apr 28 14:33:53 2032 GMT
        Subject: DC=ca, DC=lab5, O=Lab5 DevOps Inc., OU=DevOps, CN=RootCA G1
        Subject Public Key Info:
            Public Key Algorithm: rsassaPss
                RSA-PSS Public-Key: (2048 bit)
                Modulus:
                    00:d1:3d:66:b4:55:5b:b2:2c:b2:61:4e:36:c3:70:
                    50:f5:73:98:95:0e:6b:ad:fb:5f:a3:48:cb:89:1a:
                    ad:e7:30:70:3b:5d:fc:21:88:48:5c:76:71:07:a7:
                    e8:9e:ea:3c:65:34:32:72:b5:cf:2d:1c:2f:8b:96:
                    39:d7:94:18:cb:f9:62:99:d0:70:92:f3:56:63:28:
                    30:b2:e6:54:ba:d1:67:9d:d3:b1:54:f9:7a:4f:d1:
                    dc:19:34:2f:11:04:1c:b4:3c:15:42:b2:69:3e:3b:
                    a2:55:68:77:8c:75:a0:f7:a0:03:00:69:2c:00:e3:
                    fb:10:ef:4a:aa:5a:55:21:e0:b3:5a:12:3b:9d:24:
                    37:71:2f:8c:9b:6b:be:f3:e3:35:f0:8f:b7:11:55:
                    52:ac:74:3d:10:50:99:8b:fd:6c:6c:e6:0c:7f:0b:
                    cf:8a:f6:00:83:2e:9f:b6:ff:56:d8:d4:d6:c0:f9:
                    c8:1e:c9:cb:e0:3d:49:9e:9d:d2:04:d3:c7:03:84:
                    ea:05:02:0d:4f:33:59:cb:b1:67:f4:4e:ae:a2:b0:
                    a2:5e:ab:55:d8:20:1d:f4:0e:c3:fc:0d:c2:f9:55:
                    e2:db:f1:66:2e:c8:fb:08:f1:24:b0:98:19:ca:8f:
                    69:ff:5e:d7:d9:a0:ed:29:98:14:51:0b:e2:c5:c6:
                    d1:0d
                Exponent: 65537 (0x10001)
                No PSS parameter restrictions
        X509v3 extensions:
            X509v3 Key Usage: critical
                Certificate Sign, CRL Sign
            X509v3 Basic Constraints: critical
                CA:TRUE, pathlen:0
            X509v3 Subject Key Identifier: 
                4B:57:35:B2:EC:D1:7F:E9:64:50:C0:06:5A:7C:BF:04:22:CC:32:81
            X509v3 Authority Key Identifier: 
                keyid:AC:0C:2B:2F:08:22:A6:4C:67:FD:29:31:20:D6:9F:F1:DB:88:26:2B

    Signature Algorithm: rsassaPss         
         Hash Algorithm: sha256
         Mask Algorithm: mgf1 with sha256
          Salt Length: 0xDE
         Trailer Field: 0xBC (default)

         73:bf:7c:89:1e:b6:a3:6d:f4:db:71:66:0d:89:96:50:ad:81:
         cd:ea:a9:82:ea:fd:41:15:27:50:f2:d0:d3:d5:1f:11:ce:b0:
         a8:17:6b:31:e3:c3:65:69:fa:5b:48:48:b4:a5:db:0b:3f:50:
         8b:f4:78:c4:ab:00:5c:fd:5c:59:4f:73:73:04:86:ec:b6:d4:
         c1:9a:c4:0c:1f:a9:00:83:70:8e:6c:2a:1c:1d:de:aa:6a:2b:
         98:1d:a1:80:2a:3a:95:35:88:f7:ad:55:23:34:7f:45:d8:a0:
         c9:85:cf:2b:f1:f3:b6:13:56:18:de:29:7e:87:93:a4:61:7f:
         58:f5:b5:d4:c2:bd:0b:bc:5d:a8:76:a4:16:97:81:d3:fd:34:
         34:87:95:27:79:10:ee:b1:b2:f5:4b:7f:36:80:36:57:66:cd:
         d7:5d:0c:8e:e2:a1:8e:93:9b:cb:66:d0:88:bc:96:68:48:4f:
         42:ba:92:06:ae:22:e1:53:b5:2f:96:2e:e7:e8:0a:88:ed:96:
         da:4c:e4:7e:a3:c6:de:9a:d5:57:27:d1:c7:bf:8c:92:e8:2d:
         4c:c6:2f:8f:8e:f0:45:b3:9b:d0:30:76:06:64:29:7b:bf:14:
         ad:a2:01:2a:c7:81:36:db:c0:c3:a6:cf:f5:d1:73:b9:db:79:
         08:41:6d:8a
-----BEGIN CERTIFICATE-----
MIIEIDCCAtegAwIBAgIBAjA+BgkqhkiG9w0BAQowMaANMAsGCWCGSAFlAwQCAaEa
MBgGCSqGSIb3DQEBCDALBglghkgBZQMEAgGiBAICAN4wdTESMBAGCgmSJomT8ixk
ARkWAmNhMRQwEgYKCZImiZPyLGQBGRYEbGFiNTEZMBcGA1UECgwQTGFiNSBEZXZP
cHMgSW5jLjEPMA0GA1UECwwGRGV2T3BzMR0wGwYDVQQDDBRSb290Q0EgRzAgU2Vs
ZlNpZ25lZDAeFw0yMjA0MjkxNDMzNTNaFw0zMjA0MjgxNDMzNTNaMGoxEjAQBgoJ
kiaJk/IsZAEZFgJjYTEUMBIGCgmSJomT8ixkARkWBGxhYjUxGTAXBgNVBAoMEExh
YjUgRGV2T3BzIEluYy4xDzANBgNVBAsMBkRldk9wczESMBAGA1UEAwwJUm9vdENB
IEcxMIIBIDALBgkqhkiG9w0BAQoDggEPADCCAQoCggEBANE9ZrRVW7IssmFONsNw
UPVzmJUOa637X6NIy4karecwcDtd/CGISFx2cQen6J7qPGU0MnK1zy0cL4uWOdeU
GMv5YpnQcJLzVmMoMLLmVLrRZ53TsVT5ek/R3Bk0LxEEHLQ8FUKyaT47olVod4x1
oPegAwBpLADj+xDvSqpaVSHgs1oSO50kN3EvjJtrvvPjNfCPtxFVUqx0PRBQmYv9
bGzmDH8Lz4r2AIMun7b/VtjU1sD5yB7Jy+A9SZ6d0gTTxwOE6gUCDU8zWcuxZ/RO
rqKwol6rVdggHfQOw/wNwvlV4tvxZi7I+wjxJLCYGcqPaf9e19mg7SmYFFEL4sXG
0Q0CAwEAAaNmMGQwDgYDVR0PAQH/BAQDAgEGMBIGA1UdEwEB/wQIMAYBAf8CAQAw
HQYDVR0OBBYEFEtXNbLs0X/pZFDABlp8vwQizDKBMB8GA1UdIwQYMBaAFKwMKy8I
IqZMZ/0pMSDWn/HbiCYrMD4GCSqGSIb3DQEBCjAxoA0wCwYJYIZIAWUDBAIBoRow
GAYJKoZIhvcNAQEIMAsGCWCGSAFlAwQCAaIEAgIA3gOCAQEAc798iR62o23023Fm
DYmWUK2Bzeqpgur9QRUnUPLQ09UfEc6wqBdrMePDZWn6W0hItKXbCz9Qi/R4xKsA
XP1cWU9zcwSG7LbUwZrEDB+pAINwjmwqHB3eqmormB2hgCo6lTWI961VIzR/Rdig
yYXPK/HzthNWGN4pfoeTpGF/WPW11MK9C7xdqHakFpeB0/00NIeVJ3kQ7rGy9Ut/
NoA2V2bN110MjuKhjpOby2bQiLyWaEhPQrqSBq4i4VO1L5Yu5+gKiO2W2kzkfqPG
3prVVyfRx7+MkugtTMYvj47wRbOb0DB2BmQpe78UraIBKseBNtvAw6bP9dFzudt5
CEFtig==
-----END CERTIFICATE-----
