Certificate:
    Data:
        Version: 3 (0x2)
        Serial Number: 2 (0x2)
        Signature Algorithm: sha1WithRSAEncryption
        Issuer: DC=ca, DC=lab5, O=Lab5 DevOps Inc., OU=DevOps, CN=RootCA SelfSigned https://lab5.ca
        Validity
            Not Before: Apr 28 19:35:44 2022 GMT
            Not After : Apr 27 19:35:44 2032 GMT
        Subject: DC=ca, DC=lab5, O=Lab5 DevOps Inc., OU=DevOps, CN=RootCA G1
        Subject Public Key Info:
            Public Key Algorithm: rsaEncryption
                RSA Public-Key: (2048 bit)
                Modulus:
                    00:f0:81:7c:49:a7:18:40:14:30:a3:8a:9e:a5:45:
                    20:9a:c0:f5:b8:3b:b5:c1:d7:32:05:31:11:dc:ea:
                    b1:fa:1e:0a:e4:39:cf:2a:d1:fe:4c:f3:fd:67:96:
                    97:4b:3b:69:34:41:67:7e:ef:11:ef:e6:28:90:bc:
                    d6:5c:84:b0:03:c5:16:c6:21:70:64:00:da:c3:8c:
                    fa:7e:46:89:69:f8:c0:2c:f3:c5:fb:5a:ae:00:54:
                    2d:71:3d:3c:51:3a:81:5e:9a:77:1e:6f:ae:6b:22:
                    3e:39:a1:23:65:22:10:a2:4a:77:f7:27:6d:e4:63:
                    c1:f3:a8:97:93:be:2d:f3:b9:25:ba:18:ac:09:2b:
                    d1:89:21:fe:bd:df:50:8f:41:65:80:6c:bf:e7:6b:
                    90:82:61:9b:86:2f:8a:0a:8e:c7:37:52:1e:85:f0:
                    69:a1:74:4f:94:2b:17:e2:d5:88:f6:a2:46:b9:86:
                    99:f9:c0:28:4a:95:f8:4b:a4:b2:1f:53:c6:ce:e8:
                    16:33:da:0a:1e:5a:ab:c5:e3:34:3f:1c:67:51:dd:
                    80:71:78:54:34:37:49:f4:cc:4f:66:aa:ff:98:ef:
                    e9:76:be:2e:52:b4:50:6e:c9:94:f9:e1:3d:92:05:
                    28:d7:97:73:5a:7b:ed:18:79:2c:53:bf:e4:f3:95:
                    bd:0d
                Exponent: 65537 (0x10001)
        X509v3 extensions:
            X509v3 Key Usage: critical
                Certificate Sign, CRL Sign
            X509v3 Basic Constraints: critical
                CA:TRUE, pathlen:0
            X509v3 Subject Key Identifier: 
                CD:42:46:4F:EE:6A:BF:70:42:4E:4B:7C:23:0F:F2:DD:CE:40:7A:3E
            X509v3 Authority Key Identifier: 
                keyid:98:71:94:F5:78:E0:86:94:42:74:A6:DD:BA:0F:E4:AB:14:C5:75:D3

    Signature Algorithm: sha1WithRSAEncryption
         b4:d5:de:90:87:7e:7e:a2:16:f2:13:f8:a1:8f:ca:3f:7e:3d:
         44:f9:01:ee:03:9b:20:46:9e:81:52:74:b7:8c:72:4a:72:c6:
         c9:8d:8f:76:f3:f6:20:98:f2:1f:9d:b8:ec:d6:a6:40:c4:4e:
         2a:41:d4:5d:76:9c:cb:fb:6b:2b:b7:06:86:50:9f:f1:d2:bd:
         22:cc:94:1b:93:44:03:4b:98:96:eb:fb:e0:fc:ff:6c:d1:f9:
         1d:a3:a6:a2:85:a9:51:b8:db:56:22:cd:03:4e:d5:3d:df:d9:
         00:53:2c:6e:96:5a:eb:19:e3:20:f2:82:c0:47:ce:28:80:ba:
         a4:da:e7:2a:0e:4d:cd:e3:6d:4d:f4:a4:cc:27:91:fb:ae:76:
         d5:54:c4:b8:60:6f:16:77:e0:6f:f3:4f:c7:ee:00:47:22:07:
         63:88:8c:0d:ee:66:64:e0:9e:52:d2:1b:f1:ca:ce:8a:08:fe:
         d7:45:5e:4e:d9:cf:f9:9c:23:ff:3a:a5:1d:ea:0f:b8:1f:67:
         f0:73:76:32:79:f2:7c:9a:98:02:cd:48:cf:7d:cc:cc:7e:c1:
         a7:14:96:c2:f2:da:28:38:5f:67:d1:85:72:a5:4d:70:a1:0d:
         d7:13:7f:e1:1f:96:ca:6e:d9:0d:4d:dc:9c:84:92:49:d4:ef:
         9d:2f:ba:21
-----BEGIN CERTIFICATE-----
MIIDzjCCAragAwIBAgIBAjANBgkqhkiG9w0BAQUFADCBgjESMBAGCgmSJomT8ixk
ARkWAmNhMRQwEgYKCZImiZPyLGQBGRYEbGFiNTEZMBcGA1UECgwQTGFiNSBEZXZP
cHMgSW5jLjEPMA0GA1UECwwGRGV2T3BzMSowKAYDVQQDDCFSb290Q0EgU2VsZlNp
Z25lZCBodHRwczovL2xhYjUuY2EwHhcNMjIwNDI4MTkzNTQ0WhcNMzIwNDI3MTkz
NTQ0WjBqMRIwEAYKCZImiZPyLGQBGRYCY2ExFDASBgoJkiaJk/IsZAEZFgRsYWI1
MRkwFwYDVQQKDBBMYWI1IERldk9wcyBJbmMuMQ8wDQYDVQQLDAZEZXZPcHMxEjAQ
BgNVBAMMCVJvb3RDQSBHMTCCASIwDQYJKoZIhvcNAQEBBQADggEPADCCAQoCggEB
APCBfEmnGEAUMKOKnqVFIJrA9bg7tcHXMgUxEdzqsfoeCuQ5zyrR/kzz/WeWl0s7
aTRBZ37vEe/mKJC81lyEsAPFFsYhcGQA2sOM+n5GiWn4wCzzxftargBULXE9PFE6
gV6adx5vrmsiPjmhI2UiEKJKd/cnbeRjwfOol5O+LfO5JboYrAkr0Ykh/r3fUI9B
ZYBsv+drkIJhm4YvigqOxzdSHoXwaaF0T5QrF+LViPaiRrmGmfnAKEqV+Euksh9T
xs7oFjPaCh5aq8XjND8cZ1HdgHF4VDQ3SfTMT2aq/5jv6Xa+LlK0UG7JlPnhPZIF
KNeXc1p77Rh5LFO/5POVvQ0CAwEAAaNmMGQwDgYDVR0PAQH/BAQDAgEGMBIGA1Ud
EwEB/wQIMAYBAf8CAQAwHQYDVR0OBBYEFM1CRk/uar9wQk5LfCMP8t3OQHo+MB8G
A1UdIwQYMBaAFJhxlPV44IaUQnSm3boP5KsUxXXTMA0GCSqGSIb3DQEBBQUAA4IB
AQC01d6Qh35+ohbyE/ihj8o/fj1E+QHuA5sgRp6BUnS3jHJKcsbJjY928/YgmPIf
nbjs1qZAxE4qQdRddpzL+2srtwaGUJ/x0r0izJQbk0QDS5iW6/vg/P9s0fkdo6ai
halRuNtWIs0DTtU939kAUyxullrrGeMg8oLAR84ogLqk2ucqDk3N421N9KTMJ5H7
rnbVVMS4YG8Wd+Bv80/H7gBHIgdjiIwN7mZk4J5S0hvxys6KCP7XRV5O2c/5nCP/
OqUd6g+4H2fwc3YyefJ8mpgCzUjPfczMfsGnFJbC8tooOF9n0YVypU1woQ3XE3/h
H5bKbtkNTdychJJJ1O+dL7oh
-----END CERTIFICATE-----
